ccopy_reg
_reconstructor
p1
(cpsychopy.data
ExperimentHandler
p2
c__builtin__
object
p3
NtRp4
(dp5
S'originPath'
p6
VC:\u005cUsers\u005cchatterjeelab\u005cDocuments\u005cArrows_VVA\u005cArrows_VVA_Color.psyexp
p7
sS'dataFileName'
p8
VC:\u005cUsers\u005cchatterjeelab\u005cDocuments\u005cArrows_VVA\u005cdata_Arrows_VVA_Color\u005c1004_2018_Dec_19_1152
p9
sS'runtimeInfo'
p10
NsS'name'
p11
S'Arrows_VVA_Color'
p12
sS'dataNames'
p13
(lp14
S'key_resp_7.keys'
p15
aS'key_resp_7.rt'
p16
aS'key_resp_8.keys'
p17
aS'key_resp_8.rt'
p18
aS'key_resp_9.keys'
p19
aS'key_resp_9.rt'
p20
aS'key_resp_6.keys'
p21
aS'key_resp_6.rt'
p22
aS'key_resp_2.keys'
p23
aS'key_resp_11.keys'
p24
aS'key_resp_11.rt'
p25
aS'colorpractice_numVertices'
p26
aS'colorpractice_correct'
p27
aS'key_resp_2.rt'
p28
aS'key_resp_13.keys'
p29
aS'key_resp_13.rt'
p30
aS'color_response.keys'
p31
aS'color_response.rt'
p32
asS'autoLog'
p33
I01
sS'extraInfo'
p34
(dp35
S'date'
p36
V2018_Dec_19_1152
p37
sS'frameRate'
p38
cnumpy.core.multiarray
scalar
p39
(cnumpy
dtype
p40
(S'f8'
I0
I1
tRp41
(I3
S'<'
NNNI-1
I-1
I0
tbS'\xc7M\xca\x8c\x8d\nN@'
tRp42
sS'expName'
p43
g12
sVparticipant
p44
V1004
p45
ssS'loopsUnfinished'
p46
(lp47
sS'saveWideText'
p48
I00
sS'thisEntry'
p49
(dp50
sS'version'
p51
S''
sS'_paramNamesSoFar'
p52
(lp53
S'color'
p54
aS'answer'
p55
asS'entries'
p56
(lp57
(dp58
g43
g12
sg44
g45
sg15
S'd'
sg36
g37
sg16
F165.98105613857058
sg38
g42
sa(dp59
g18
F13.411384166533935
sg43
g12
sg17
S'd'
sg36
g37
sg44
g45
sg38
g42
sa(dp60
g43
g12
sg44
g45
sg36
g37
sg20
F31.66868100263423
sg38
g42
sg19
S'd'
sa(dp61
g24
S'f'
sS'repeat_color_practice_mini.thisTrialN'
p62
I0
sg21
S'd'
sg26
I3
sg38
g42
sS'repeat_color_practice_mini.thisIndex'
p63
g39
(g40
(S'i4'
I0
I1
tRp64
(I3
S'<'
NNNI-1
I-1
I0
tbS'\x00\x00\x00\x00'
tRp65
sg23
NsS'trials_3.thisRepN'
p66
I0
sS'repeat_color_practice.thisRepN'
p67
I0
sg25
F11.378208758211485
sg36
g37
sS'trials_3.thisIndex'
p68
g39
(g64
S'\x00\x00\x00\x00'
tRp69
sS'repeat_color_practice_mini.thisN'
p70
I0
sS'trials_3.thisTrialN'
p71
I0
sg54
V#d7191c
p72
sg44
g45
sS'repeat_color_practice.thisN'
p73
I0
sS'repeat_color_practice.thisIndex'
p74
g39
(g64
S'\x00\x00\x00\x00'
tRp75
sS'trials_3.thisN'
p76
I0
sS'repeat_color_practice_mini.thisRepN'
p77
I0
sS'repeat_color_practice.thisTrialN'
p78
I0
sg43
g12
sg55
Vr
sg22
F32.401158533238686
sa(dp79
g24
S'f'
sS'repeat_color_practice_mini.thisTrialN'
p80
I0
sg25
F6.4144324449996475
sg38
g42
sS'repeat_color_practice_mini.thisIndex'
p81
g65
sS'trials_3.thisRepN'
p82
I0
sS'repeat_color_practice.thisRepN'
p83
I0
sg26
I999
sg36
g37
sS'trials_3.thisIndex'
p84
g39
(g64
S'\x01\x00\x00\x00'
tRp85
sS'repeat_color_practice_mini.thisN'
p86
I0
sS'trials_3.thisTrialN'
p87
I1
sg54
g72
sg44
g45
sS'repeat_color_practice.thisN'
p88
I0
sS'repeat_color_practice.thisIndex'
p89
g75
sS'trials_3.thisN'
p90
I1
sS'repeat_color_practice_mini.thisRepN'
p91
I0
sg27
I0
sS'repeat_color_practice.thisTrialN'
p92
I0
sg43
g12
sg55
Vr
sa(dp93
g44
g45
sS'trials_3.thisN'
p94
I2
sg36
g37
sg24
S'f'
sS'repeat_color_practice_mini.thisTrialN'
p95
I0
sS'trials_3.thisTrialN'
p96
I2
sS'repeat_color_practice.thisIndex'
p97
g75
sg25
F5.4308465610590702
sg38
g42
sS'repeat_color_practice_mini.thisRepN'
p98
I0
sS'repeat_color_practice_mini.thisIndex'
p99
g65
sS'repeat_color_practice.thisTrialN'
p100
I0
sg43
g12
sS'repeat_color_practice.thisRepN'
p101
I0
sS'trials_3.thisRepN'
p102
I0
sg26
I5
sg55
Vo
sS'trials_3.thisIndex'
p103
g39
(g64
S'\x02\x00\x00\x00'
tRp104
sS'repeat_color_practice_mini.thisN'
p105
I0
sS'repeat_color_practice.thisN'
p106
I0
sg54
V#fdae61
p107
sa(dp108
g24
S'a'
sS'repeat_color_practice_mini.thisTrialN'
p109
I0
sg25
F2.5491234247103876
sg38
g42
sS'repeat_color_practice_mini.thisIndex'
p110
g65
sS'trials_3.thisRepN'
p111
I0
sS'repeat_color_practice.thisRepN'
p112
I0
sg26
I999
sg36
g37
sS'trials_3.thisIndex'
p113
g39
(g64
S'\x03\x00\x00\x00'
tRp114
sS'repeat_color_practice_mini.thisN'
p115
I0
sS'trials_3.thisTrialN'
p116
I3
sg54
V#2c7bb6
p117
sg44
g45
sS'repeat_color_practice.thisN'
p118
I0
sS'repeat_color_practice.thisIndex'
p119
g75
sS'trials_3.thisN'
p120
I3
sS'repeat_color_practice_mini.thisRepN'
p121
I0
sg27
I0
sS'repeat_color_practice.thisTrialN'
p122
I0
sg43
g12
sg55
Vb
sa(dp123
g44
g45
sS'trials_3.thisN'
p124
I4
sg36
g37
sg24
S'f'
sS'repeat_color_practice_mini.thisTrialN'
p125
I0
sS'trials_3.thisTrialN'
p126
I4
sS'repeat_color_practice.thisIndex'
p127
g75
sg25
F1.6330418927441315
sg38
g42
sS'repeat_color_practice_mini.thisRepN'
p128
I0
sS'repeat_color_practice_mini.thisIndex'
p129
g65
sS'repeat_color_practice.thisTrialN'
p130
I0
sg43
g12
sS'repeat_color_practice.thisRepN'
p131
I0
sS'trials_3.thisRepN'
p132
I0
sg26
I4
sg55
Vb
sS'trials_3.thisIndex'
p133
g39
(g64
S'\x04\x00\x00\x00'
tRp134
sS'repeat_color_practice_mini.thisN'
p135
I0
sS'repeat_color_practice.thisN'
p136
I0
sg54
g117
sa(dp137
g24
S'f'
sS'repeat_color_practice_mini.thisTrialN'
p138
I0
sg25
F2.0496756490699681
sg38
g42
sS'repeat_color_practice_mini.thisIndex'
p139
g65
sS'trials_3.thisRepN'
p140
I0
sS'repeat_color_practice.thisRepN'
p141
I0
sg26
I6
sg36
g37
sS'trials_3.thisIndex'
p142
g39
(g64
S'\x05\x00\x00\x00'
tRp143
sS'repeat_color_practice_mini.thisN'
p144
I0
sS'trials_3.thisTrialN'
p145
I5
sg54
g117
sg44
g45
sS'repeat_color_practice.thisN'
p146
I0
sS'repeat_color_practice.thisIndex'
p147
g75
sS'trials_3.thisN'
p148
I5
sS'repeat_color_practice_mini.thisRepN'
p149
I0
sg27
I0
sS'repeat_color_practice.thisTrialN'
p150
I0
sg43
g12
sg55
Vb
sa(dp151
g44
g45
sS'trials_3.thisN'
p152
I6
sg36
g37
sg24
S'f'
sS'repeat_color_practice_mini.thisTrialN'
p153
I0
sS'trials_3.thisTrialN'
p154
I6
sS'repeat_color_practice.thisIndex'
p155
g75
sg25
F1.5496513288860569
sg38
g42
sS'repeat_color_practice_mini.thisRepN'
p156
I0
sS'repeat_color_practice_mini.thisIndex'
p157
g65
sS'repeat_color_practice.thisTrialN'
p158
I0
sg43
g12
sS'repeat_color_practice.thisRepN'
p159
I0
sS'trials_3.thisRepN'
p160
I0
sg26
I5
sg55
Vo
sS'trials_3.thisIndex'
p161
g39
(g64
S'\x06\x00\x00\x00'
tRp162
sS'repeat_color_practice_mini.thisN'
p163
I0
sS'repeat_color_practice.thisN'
p164
I0
sg54
g107
sa(dp165
g24
S'f'
sS'repeat_color_practice_mini.thisTrialN'
p166
I0
sg25
F1.6998911615989982
sg38
g42
sS'repeat_color_practice_mini.thisIndex'
p167
g65
sS'trials_3.thisRepN'
p168
I0
sS'repeat_color_practice.thisRepN'
p169
I0
sg26
I3
sg36
g37
sS'trials_3.thisIndex'
p170
g39
(g64
S'\x07\x00\x00\x00'
tRp171
sS'repeat_color_practice_mini.thisN'
p172
I0
sS'trials_3.thisTrialN'
p173
I7
sg54
g107
sg44
g45
sS'repeat_color_practice.thisN'
p174
I0
sS'repeat_color_practice.thisIndex'
p175
g75
sS'trials_3.thisN'
p176
I7
sS'repeat_color_practice_mini.thisRepN'
p177
I0
sg27
I0
sS'repeat_color_practice.thisTrialN'
p178
I0
sg43
g12
sg55
Vo
sa(dp179
g28
F11.794302561830136
sg24
S'f'
sS'repeat_color_practice_mini.thisTrialN'
p180
I0
sg26
I999
sg38
g42
sS'repeat_color_practice_mini.thisIndex'
p181
g39
(g64
S'\x00\x00\x00\x00'
tRp182
sg23
S'd'
sS'trials_3.thisRepN'
p183
I0
sS'repeat_color_practice.thisRepN'
p184
I0
sg25
F3.7830849327758642
sg36
g37
sS'trials_3.thisIndex'
p185
g39
(g64
S'\x00\x00\x00\x00'
tRp186
sS'repeat_color_practice_mini.thisN'
p187
I1
sS'trials_3.thisTrialN'
p188
I0
sS'color'
p189
V#d7191c
p190
sg44
g45
sS'repeat_color_practice.thisN'
p191
I0
sS'repeat_color_practice.thisIndex'
p192
g75
sS'trials_3.thisN'
p193
I0
sS'repeat_color_practice_mini.thisRepN'
p194
I1
sS'repeat_color_practice.thisTrialN'
p195
I0
sg43
g12
sS'answer'
p196
Vr
sa(dp197
g24
S'a'
sS'repeat_color_practice_mini.thisTrialN'
p198
I0
sg25
F1.716766245548115
sg38
g42
sS'repeat_color_practice_mini.thisIndex'
p199
g182
sS'trials_3.thisRepN'
p200
I0
sS'repeat_color_practice.thisRepN'
p201
I0
sg26
I4
sg36
g37
sS'trials_3.thisIndex'
p202
g39
(g64
S'\x01\x00\x00\x00'
tRp203
sS'repeat_color_practice_mini.thisN'
p204
I1
sS'trials_3.thisTrialN'
p205
I1
sg189
V#2c7bb6
p206
sg44
g45
sS'repeat_color_practice.thisN'
p207
I0
sS'repeat_color_practice.thisIndex'
p208
g75
sS'trials_3.thisN'
p209
I1
sS'repeat_color_practice_mini.thisRepN'
p210
I1
sg27
I0
sS'repeat_color_practice.thisTrialN'
p211
I0
sg43
g12
sg196
Vb
sa(dp212
g44
g45
sS'trials_3.thisN'
p213
I2
sg36
g37
sg24
S'f'
sS'repeat_color_practice_mini.thisTrialN'
p214
I0
sS'trials_3.thisTrialN'
p215
I2
sS'repeat_color_practice.thisIndex'
p216
g75
sg25
F2.5665607734622427
sg38
g42
sS'repeat_color_practice_mini.thisRepN'
p217
I1
sS'repeat_color_practice_mini.thisIndex'
p218
g182
sS'repeat_color_practice.thisTrialN'
p219
I0
sg43
g12
sS'repeat_color_practice.thisRepN'
p220
I0
sS'trials_3.thisRepN'
p221
I0
sg26
I999
sg196
Vr
sS'trials_3.thisIndex'
p222
g39
(g64
S'\x02\x00\x00\x00'
tRp223
sS'repeat_color_practice_mini.thisN'
p224
I1
sS'repeat_color_practice.thisN'
p225
I0
sg189
g190
sa(dp226
g24
S'a'
sS'repeat_color_practice_mini.thisTrialN'
p227
I0
sg25
F1.6835787886941489
sg38
g42
sS'repeat_color_practice_mini.thisIndex'
p228
g182
sS'trials_3.thisRepN'
p229
I0
sS'repeat_color_practice.thisRepN'
p230
I0
sg26
I4
sg36
g37
sS'trials_3.thisIndex'
p231
g39
(g64
S'\x03\x00\x00\x00'
tRp232
sS'repeat_color_practice_mini.thisN'
p233
I1
sS'trials_3.thisTrialN'
p234
I3
sg189
V#fdae61
p235
sg44
g45
sS'repeat_color_practice.thisN'
p236
I0
sS'repeat_color_practice.thisIndex'
p237
g75
sS'trials_3.thisN'
p238
I3
sS'repeat_color_practice_mini.thisRepN'
p239
I1
sg27
I0
sS'repeat_color_practice.thisTrialN'
p240
I0
sg43
g12
sg196
Vo
sa(dp241
g44
g45
sS'trials_3.thisN'
p242
I4
sg36
g37
sg24
S'f'
sS'repeat_color_practice_mini.thisTrialN'
p243
I0
sS'trials_3.thisTrialN'
p244
I4
sS'repeat_color_practice.thisIndex'
p245
g75
sg25
F1.4833977929768025
sg38
g42
sS'repeat_color_practice_mini.thisRepN'
p246
I1
sS'repeat_color_practice_mini.thisIndex'
p247
g182
sS'repeat_color_practice.thisTrialN'
p248
I0
sg43
g12
sS'repeat_color_practice.thisRepN'
p249
I0
sS'trials_3.thisRepN'
p250
I0
sg26
I5
sg196
Vb
sS'trials_3.thisIndex'
p251
g39
(g64
S'\x04\x00\x00\x00'
tRp252
sS'repeat_color_practice_mini.thisN'
p253
I1
sS'repeat_color_practice.thisN'
p254
I0
sg189
g206
sa(dp255
g24
S'f'
sS'repeat_color_practice_mini.thisTrialN'
p256
I0
sg25
F1.7331285975465107
sg38
g42
sS'repeat_color_practice_mini.thisIndex'
p257
g182
sS'trials_3.thisRepN'
p258
I0
sS'repeat_color_practice.thisRepN'
p259
I0
sg26
I6
sg36
g37
sS'trials_3.thisIndex'
p260
g39
(g64
S'\x05\x00\x00\x00'
tRp261
sS'repeat_color_practice_mini.thisN'
p262
I1
sS'trials_3.thisTrialN'
p263
I5
sg189
g206
sg44
g45
sS'repeat_color_practice.thisN'
p264
I0
sS'repeat_color_practice.thisIndex'
p265
g75
sS'trials_3.thisN'
p266
I5
sS'repeat_color_practice_mini.thisRepN'
p267
I1
sg27
I0
sS'repeat_color_practice.thisTrialN'
p268
I0
sg43
g12
sg196
Vb
sa(dp269
g44
g45
sS'trials_3.thisN'
p270
I6
sg36
g37
sg24
S'f'
sS'repeat_color_practice_mini.thisTrialN'
p271
I0
sS'trials_3.thisTrialN'
p272
I6
sS'repeat_color_practice.thisIndex'
p273
g75
sg25
F2.19962765575292
sg38
g42
sS'repeat_color_practice_mini.thisRepN'
p274
I1
sS'repeat_color_practice_mini.thisIndex'
p275
g182
sS'repeat_color_practice.thisTrialN'
p276
I0
sg43
g12
sS'repeat_color_practice.thisRepN'
p277
I0
sS'trials_3.thisRepN'
p278
I0
sg26
I999
sg196
Vo
sS'trials_3.thisIndex'
p279
g39
(g64
S'\x06\x00\x00\x00'
tRp280
sS'repeat_color_practice_mini.thisN'
p281
I1
sS'repeat_color_practice.thisN'
p282
I0
sg189
g235
sa(dp283
g24
S'a'
sS'repeat_color_practice_mini.thisTrialN'
p284
I0
sg25
F1.6168384028644596
sg38
g42
sS'repeat_color_practice_mini.thisIndex'
p285
g182
sS'trials_3.thisRepN'
p286
I0
sS'repeat_color_practice.thisRepN'
p287
I0
sg26
I4
sg36
g37
sS'trials_3.thisIndex'
p288
g39
(g64
S'\x07\x00\x00\x00'
tRp289
sS'repeat_color_practice_mini.thisN'
p290
I1
sS'trials_3.thisTrialN'
p291
I7
sg189
g190
sg44
g45
sS'repeat_color_practice.thisN'
p292
I0
sS'repeat_color_practice.thisIndex'
p293
g75
sS'trials_3.thisN'
p294
I7
sS'repeat_color_practice_mini.thisRepN'
p295
I1
sg27
I0
sS'repeat_color_practice.thisTrialN'
p296
I0
sg43
g12
sg196
Vr
sa(dp297
g28
F3.8480314261400963
sg24
S'f'
sS'repeat_color_practice_mini.thisTrialN'
p298
I0
sg26
I5
sg38
g42
sS'repeat_color_practice_mini.thisIndex'
p299
g39
(g64
S'\x00\x00\x00\x00'
tRp300
sg23
S'd'
sS'trials_3.thisRepN'
p301
I0
sS'repeat_color_practice.thisRepN'
p302
I0
sg25
F3.1162098711386079
sg36
g37
sS'trials_3.thisIndex'
p303
g39
(g64
S'\x00\x00\x00\x00'
tRp304
sS'repeat_color_practice_mini.thisN'
p305
I2
sS'trials_3.thisTrialN'
p306
I0
sS'color'
p307
V#fdae61
p308
sg44
g45
sS'repeat_color_practice.thisN'
p309
I0
sS'repeat_color_practice.thisIndex'
p310
g75
sS'trials_3.thisN'
p311
I0
sS'repeat_color_practice_mini.thisRepN'
p312
I2
sS'repeat_color_practice.thisTrialN'
p313
I0
sg43
g12
sS'answer'
p314
Vo
sa(dp315
g24
S'f'
sS'repeat_color_practice_mini.thisTrialN'
p316
I0
sg25
F1.8669427119102693
sg38
g42
sS'repeat_color_practice_mini.thisIndex'
p317
g300
sS'trials_3.thisRepN'
p318
I0
sS'repeat_color_practice.thisRepN'
p319
I0
sg26
I3
sg36
g37
sS'trials_3.thisIndex'
p320
g39
(g64
S'\x01\x00\x00\x00'
tRp321
sS'repeat_color_practice_mini.thisN'
p322
I2
sS'trials_3.thisTrialN'
p323
I1
sg307
g308
sg44
g45
sS'repeat_color_practice.thisN'
p324
I0
sS'repeat_color_practice.thisIndex'
p325
g75
sS'trials_3.thisN'
p326
I1
sS'repeat_color_practice_mini.thisRepN'
p327
I2
sg27
I0
sS'repeat_color_practice.thisTrialN'
p328
I0
sg43
g12
sg314
Vo
sa(dp329
g44
g45
sS'trials_3.thisN'
p330
I2
sg36
g37
sg24
S'f'
sS'repeat_color_practice_mini.thisTrialN'
p331
I0
sS'trials_3.thisTrialN'
p332
I2
sS'repeat_color_practice.thisIndex'
p333
g75
sg25
F2.0831353134872188
sg38
g42
sS'repeat_color_practice_mini.thisRepN'
p334
I2
sS'repeat_color_practice_mini.thisIndex'
p335
g300
sS'repeat_color_practice.thisTrialN'
p336
I0
sg43
g12
sS'repeat_color_practice.thisRepN'
p337
I0
sS'trials_3.thisRepN'
p338
I0
sg26
I999
sg314
Vr
sS'trials_3.thisIndex'
p339
g39
(g64
S'\x02\x00\x00\x00'
tRp340
sS'repeat_color_practice_mini.thisN'
p341
I2
sS'repeat_color_practice.thisN'
p342
I0
sg307
V#d7191c
p343
sa(dp344
g24
S'a'
sS'repeat_color_practice_mini.thisTrialN'
p345
I0
sg25
F3.2160855035192526
sg38
g42
sS'repeat_color_practice_mini.thisIndex'
p346
g300
sS'trials_3.thisRepN'
p347
I0
sS'repeat_color_practice.thisRepN'
p348
I0
sg26
I3
sg36
g37
sS'trials_3.thisIndex'
p349
g39
(g64
S'\x03\x00\x00\x00'
tRp350
sS'repeat_color_practice_mini.thisN'
p351
I2
sS'trials_3.thisTrialN'
p352
I3
sg307
V#2c7bb6
p353
sg44
g45
sS'repeat_color_practice.thisN'
p354
I0
sS'repeat_color_practice.thisIndex'
p355
g75
sS'trials_3.thisN'
p356
I3
sS'repeat_color_practice_mini.thisRepN'
p357
I2
sg27
I0
sS'repeat_color_practice.thisTrialN'
p358
I0
sg43
g12
sg314
Vb
sa(dp359
g44
g45
sS'trials_3.thisN'
p360
I4
sg36
g37
sg24
S'f'
sS'repeat_color_practice_mini.thisTrialN'
p361
I0
sS'trials_3.thisTrialN'
p362
I4
sS'repeat_color_practice.thisIndex'
p363
g75
sg25
F1.7490232880263648
sg38
g42
sS'repeat_color_practice_mini.thisRepN'
p364
I2
sS'repeat_color_practice_mini.thisIndex'
p365
g300
sS'repeat_color_practice.thisTrialN'
p366
I0
sg43
g12
sS'repeat_color_practice.thisRepN'
p367
I0
sS'trials_3.thisRepN'
p368
I0
sg26
I6
sg314
Vo
sS'trials_3.thisIndex'
p369
g39
(g64
S'\x04\x00\x00\x00'
tRp370
sS'repeat_color_practice_mini.thisN'
p371
I2
sS'repeat_color_practice.thisN'
p372
I0
sg307
g308
sa(dp373
g24
S'a'
sS'repeat_color_practice_mini.thisTrialN'
p374
I0
sg25
F1.7668734105420754
sg38
g42
sS'repeat_color_practice_mini.thisIndex'
p375
g300
sS'trials_3.thisRepN'
p376
I0
sS'repeat_color_practice.thisRepN'
p377
I0
sg26
I4
sg36
g37
sS'trials_3.thisIndex'
p378
g39
(g64
S'\x05\x00\x00\x00'
tRp379
sS'repeat_color_practice_mini.thisN'
p380
I2
sS'trials_3.thisTrialN'
p381
I5
sg307
g353
sg44
g45
sS'repeat_color_practice.thisN'
p382
I0
sS'repeat_color_practice.thisIndex'
p383
g75
sS'trials_3.thisN'
p384
I5
sS'repeat_color_practice_mini.thisRepN'
p385
I2
sg27
I0
sS'repeat_color_practice.thisTrialN'
p386
I0
sg43
g12
sg314
Vb
sa(dp387
g44
g45
sS'trials_3.thisN'
p388
I6
sg36
g37
sg24
S'f'
sS'repeat_color_practice_mini.thisTrialN'
p389
I0
sS'trials_3.thisTrialN'
p390
I6
sS'repeat_color_practice.thisIndex'
p391
g75
sg25
F1.7340081403449403
sg38
g42
sS'repeat_color_practice_mini.thisRepN'
p392
I2
sS'repeat_color_practice_mini.thisIndex'
p393
g300
sS'repeat_color_practice.thisTrialN'
p394
I0
sg43
g12
sS'repeat_color_practice.thisRepN'
p395
I0
sS'trials_3.thisRepN'
p396
I0
sg26
I999
sg314
Vr
sS'trials_3.thisIndex'
p397
g39
(g64
S'\x06\x00\x00\x00'
tRp398
sS'repeat_color_practice_mini.thisN'
p399
I2
sS'repeat_color_practice.thisN'
p400
I0
sg307
g343
sa(dp401
g24
S'f'
sS'repeat_color_practice_mini.thisTrialN'
p402
I0
sg25
F1.8665129809539849
sg38
g42
sS'repeat_color_practice_mini.thisIndex'
p403
g300
sS'trials_3.thisRepN'
p404
I0
sS'repeat_color_practice.thisRepN'
p405
I0
sg26
I3
sg36
g37
sS'trials_3.thisIndex'
p406
g39
(g64
S'\x07\x00\x00\x00'
tRp407
sS'repeat_color_practice_mini.thisN'
p408
I2
sS'trials_3.thisTrialN'
p409
I7
sg307
g343
sg44
g45
sS'repeat_color_practice.thisN'
p410
I0
sS'repeat_color_practice.thisIndex'
p411
g75
sS'trials_3.thisN'
p412
I7
sS'repeat_color_practice_mini.thisRepN'
p413
I2
sg27
I0
sS'repeat_color_practice.thisTrialN'
p414
I0
sg43
g12
sg314
Vr
sa(dp415
g24
S'f'
sS'repeat_color_practice_mini.thisTrialN'
p416
I0
sg21
S'd'
sg26
I999
sg38
g42
sS'repeat_color_practice_mini.thisIndex'
p417
g39
(g64
S'\x00\x00\x00\x00'
tRp418
sg23
NsS'trials_3.thisRepN'
p419
I0
sS'repeat_color_practice.thisRepN'
p420
I1
sg25
F2.5327472392129948
sg36
g37
sS'trials_3.thisIndex'
p421
g39
(g64
S'\x00\x00\x00\x00'
tRp422
sS'repeat_color_practice_mini.thisN'
p423
I0
sS'trials_3.thisTrialN'
p424
I0
sS'color'
p425
V#2c7bb6
p426
sg44
g45
sS'repeat_color_practice.thisN'
p427
I1
sS'repeat_color_practice.thisIndex'
p428
g39
(g64
S'\x00\x00\x00\x00'
tRp429
sS'trials_3.thisN'
p430
I0
sS'repeat_color_practice_mini.thisRepN'
p431
I0
sS'repeat_color_practice.thisTrialN'
p432
I0
sg43
g12
sS'answer'
p433
Vb
sg22
F9.0793712630029404
sa(dp434
g24
S'f'
sS'repeat_color_practice_mini.thisTrialN'
p435
I0
sg25
F1.8330823222606796
sg38
g42
sS'repeat_color_practice_mini.thisIndex'
p436
g418
sS'trials_3.thisRepN'
p437
I0
sS'repeat_color_practice.thisRepN'
p438
I1
sg26
I6
sg36
g37
sS'trials_3.thisIndex'
p439
g39
(g64
S'\x01\x00\x00\x00'
tRp440
sS'repeat_color_practice_mini.thisN'
p441
I0
sS'trials_3.thisTrialN'
p442
I1
sg425
g426
sg44
g45
sS'repeat_color_practice.thisN'
p443
I1
sS'repeat_color_practice.thisIndex'
p444
g429
sS'trials_3.thisN'
p445
I1
sS'repeat_color_practice_mini.thisRepN'
p446
I0
sg27
I0
sS'repeat_color_practice.thisTrialN'
p447
I0
sg43
g12
sg433
Vb
sa(dp448
g44
g45
sS'trials_3.thisN'
p449
I2
sg36
g37
sg24
S'f'
sS'repeat_color_practice_mini.thisTrialN'
p450
I0
sS'trials_3.thisTrialN'
p451
I2
sS'repeat_color_practice.thisIndex'
p452
g429
sg25
F1.8995607640911203
sg38
g42
sS'repeat_color_practice_mini.thisRepN'
p453
I0
sS'repeat_color_practice_mini.thisIndex'
p454
g418
sS'repeat_color_practice.thisTrialN'
p455
I0
sg43
g12
sS'repeat_color_practice.thisRepN'
p456
I1
sS'trials_3.thisRepN'
p457
I0
sg26
I999
sg433
Vr
sS'trials_3.thisIndex'
p458
g39
(g64
S'\x02\x00\x00\x00'
tRp459
sS'repeat_color_practice_mini.thisN'
p460
I0
sS'repeat_color_practice.thisN'
p461
I1
sg425
V#d7191c
p462
sa(dp463
g24
S'a'
sS'repeat_color_practice_mini.thisTrialN'
p464
I0
sg25
F1.6337500786503369
sg38
g42
sS'repeat_color_practice_mini.thisIndex'
p465
g418
sS'trials_3.thisRepN'
p466
I0
sS'repeat_color_practice.thisRepN'
p467
I1
sg26
I5
sg36
g37
sS'trials_3.thisIndex'
p468
g39
(g64
S'\x03\x00\x00\x00'
tRp469
sS'repeat_color_practice_mini.thisN'
p470
I0
sS'trials_3.thisTrialN'
p471
I3
sg425
V#fdae61
p472
sg44
g45
sS'repeat_color_practice.thisN'
p473
I1
sS'repeat_color_practice.thisIndex'
p474
g429
sS'trials_3.thisN'
p475
I3
sS'repeat_color_practice_mini.thisRepN'
p476
I0
sg27
I0
sS'repeat_color_practice.thisTrialN'
p477
I0
sg43
g12
sg433
Vo
sa(dp478
g44
g45
sS'trials_3.thisN'
p479
I4
sg36
g37
sg24
S'f'
sS'repeat_color_practice_mini.thisTrialN'
p480
I0
sS'trials_3.thisTrialN'
p481
I4
sS'repeat_color_practice.thisIndex'
p482
g429
sg25
F2.1158957168363486
sg38
g42
sS'repeat_color_practice_mini.thisRepN'
p483
I0
sS'repeat_color_practice_mini.thisIndex'
p484
g418
sS'repeat_color_practice.thisTrialN'
p485
I0
sg43
g12
sS'repeat_color_practice.thisRepN'
p486
I1
sS'trials_3.thisRepN'
p487
I0
sg26
I6
sg433
Vr
sS'trials_3.thisIndex'
p488
g39
(g64
S'\x04\x00\x00\x00'
tRp489
sS'repeat_color_practice_mini.thisN'
p490
I0
sS'repeat_color_practice.thisN'
p491
I1
sg425
g462
sa(dp492
g24
S'f'
sS'repeat_color_practice_mini.thisTrialN'
p493
I0
sg25
F2.6828241936298127
sg38
g42
sS'repeat_color_practice_mini.thisIndex'
p494
g418
sS'trials_3.thisRepN'
p495
I0
sS'repeat_color_practice.thisRepN'
p496
I1
sg26
I4
sg36
g37
sS'trials_3.thisIndex'
p497
g39
(g64
S'\x05\x00\x00\x00'
tRp498
sS'repeat_color_practice_mini.thisN'
p499
I0
sS'trials_3.thisTrialN'
p500
I5
sg425
g462
sg44
g45
sS'repeat_color_practice.thisN'
p501
I1
sS'repeat_color_practice.thisIndex'
p502
g429
sS'trials_3.thisN'
p503
I5
sS'repeat_color_practice_mini.thisRepN'
p504
I0
sg27
I0
sS'repeat_color_practice.thisTrialN'
p505
I0
sg43
g12
sg433
Vr
sa(dp506
g44
g45
sS'trials_3.thisN'
p507
I6
sg36
g37
sg24
S'f'
sS'repeat_color_practice_mini.thisTrialN'
p508
I0
sS'trials_3.thisTrialN'
p509
I6
sS'repeat_color_practice.thisIndex'
p510
g429
sg25
F3.4818805704935585
sg38
g42
sS'repeat_color_practice_mini.thisRepN'
p511
I0
sS'repeat_color_practice_mini.thisIndex'
p512
g418
sS'repeat_color_practice.thisTrialN'
p513
I0
sg43
g12
sS'repeat_color_practice.thisRepN'
p514
I1
sS'trials_3.thisRepN'
p515
I0
sg26
I3
sg433
Vo
sS'trials_3.thisIndex'
p516
g39
(g64
S'\x06\x00\x00\x00'
tRp517
sS'repeat_color_practice_mini.thisN'
p518
I0
sS'repeat_color_practice.thisN'
p519
I1
sg425
g472
sa(dp520
g24
S'f'
sS'repeat_color_practice_mini.thisTrialN'
p521
I0
sg25
F9.962525943388755
sg38
g42
sS'repeat_color_practice_mini.thisIndex'
p522
g418
sS'trials_3.thisRepN'
p523
I0
sS'repeat_color_practice.thisRepN'
p524
I1
sg26
I4
sg36
g37
sS'trials_3.thisIndex'
p525
g39
(g64
S'\x07\x00\x00\x00'
tRp526
sS'repeat_color_practice_mini.thisN'
p527
I0
sS'trials_3.thisTrialN'
p528
I7
sg425
g472
sg44
g45
sS'repeat_color_practice.thisN'
p529
I1
sS'repeat_color_practice.thisIndex'
p530
g429
sS'trials_3.thisN'
p531
I7
sS'repeat_color_practice_mini.thisRepN'
p532
I0
sg27
I0
sS'repeat_color_practice.thisTrialN'
p533
I0
sg43
g12
sg433
Vo
sa(dp534
g28
F4.6145335634157618
sg24
S'f'
sS'repeat_color_practice_mini.thisTrialN'
p535
I0
sg26
I999
sg38
g42
sS'repeat_color_practice_mini.thisIndex'
p536
g39
(g64
S'\x00\x00\x00\x00'
tRp537
sg23
S'd'
sS'trials_3.thisRepN'
p538
I0
sS'repeat_color_practice.thisRepN'
p539
I1
sg25
F7.3973824342228909
sg36
g37
sS'trials_3.thisIndex'
p540
g39
(g64
S'\x00\x00\x00\x00'
tRp541
sS'repeat_color_practice_mini.thisN'
p542
I1
sS'trials_3.thisTrialN'
p543
I0
sS'color'
p544
V#fdae61
p545
sg44
g45
sS'repeat_color_practice.thisN'
p546
I1
sS'repeat_color_practice.thisIndex'
p547
g429
sS'trials_3.thisN'
p548
I0
sS'repeat_color_practice_mini.thisRepN'
p549
I1
sS'repeat_color_practice.thisTrialN'
p550
I0
sg43
g12
sS'answer'
p551
Vo
sa(dp552
g24
S'a'
sS'repeat_color_practice_mini.thisTrialN'
p553
I0
sg25
F1.8163379871903089
sg38
g42
sS'repeat_color_practice_mini.thisIndex'
p554
g537
sS'trials_3.thisRepN'
p555
I0
sS'repeat_color_practice.thisRepN'
p556
I1
sg26
I6
sg36
g37
sS'trials_3.thisIndex'
p557
g39
(g64
S'\x01\x00\x00\x00'
tRp558
sS'repeat_color_practice_mini.thisN'
p559
I1
sS'trials_3.thisTrialN'
p560
I1
sg544
V#2c7bb6
p561
sg44
g45
sS'repeat_color_practice.thisN'
p562
I1
sS'repeat_color_practice.thisIndex'
p563
g429
sS'trials_3.thisN'
p564
I1
sS'repeat_color_practice_mini.thisRepN'
p565
I1
sg27
I0
sS'repeat_color_practice.thisTrialN'
p566
I0
sg43
g12
sg551
Vb
sa(dp567
g44
g45
sS'trials_3.thisN'
p568
I2
sg36
g37
sg24
S'f'
sS'repeat_color_practice_mini.thisTrialN'
p569
I0
sS'trials_3.thisTrialN'
p570
I2
sS'repeat_color_practice.thisIndex'
p571
g429
sg25
F2.9155442567105183
sg38
g42
sS'repeat_color_practice_mini.thisRepN'
p572
I1
sS'repeat_color_practice_mini.thisIndex'
p573
g537
sS'repeat_color_practice.thisTrialN'
p574
I0
sg43
g12
sS'repeat_color_practice.thisRepN'
p575
I1
sS'trials_3.thisRepN'
p576
I0
sg26
I3
sg551
Vo
sS'trials_3.thisIndex'
p577
g39
(g64
S'\x02\x00\x00\x00'
tRp578
sS'repeat_color_practice_mini.thisN'
p579
I1
sS'repeat_color_practice.thisN'
p580
I1
sg544
V#d7191c
p581
sa(dp582
g24
S'f'
sS'repeat_color_practice_mini.thisTrialN'
p583
I0
sg25
F2.4329885222118719
sg38
g42
sS'repeat_color_practice_mini.thisIndex'
p584
g537
sS'trials_3.thisRepN'
p585
I0
sS'repeat_color_practice.thisRepN'
p586
I1
sg26
I5
sg36
g37
sS'trials_3.thisIndex'
p587
g39
(g64
S'\x03\x00\x00\x00'
tRp588
sS'repeat_color_practice_mini.thisN'
p589
I1
sS'trials_3.thisTrialN'
p590
I3
sg544
g581
sg44
g45
sS'repeat_color_practice.thisN'
p591
I1
sS'repeat_color_practice.thisIndex'
p592
g429
sS'trials_3.thisN'
p593
I3
sS'repeat_color_practice_mini.thisRepN'
p594
I1
sg27
I0
sS'repeat_color_practice.thisTrialN'
p595
I0
sg43
g12
sg551
Vo
sa(dp596
g44
g45
sS'trials_3.thisN'
p597
I4
sg36
g37
sg24
S'f'
sS'repeat_color_practice_mini.thisTrialN'
p598
I0
sS'trials_3.thisTrialN'
p599
I4
sS'repeat_color_practice.thisIndex'
p600
g429
sg25
F2.6826550679470529
sg38
g42
sS'repeat_color_practice_mini.thisRepN'
p601
I1
sS'repeat_color_practice_mini.thisIndex'
p602
g537
sS'repeat_color_practice.thisTrialN'
p603
I0
sg43
g12
sS'repeat_color_practice.thisRepN'
p604
I1
sS'trials_3.thisRepN'
p605
I0
sg26
I6
sg551
Vr
sS'trials_3.thisIndex'
p606
g39
(g64
S'\x04\x00\x00\x00'
tRp607
sS'repeat_color_practice_mini.thisN'
p608
I1
sS'repeat_color_practice.thisN'
p609
I1
sg544
g545
sa(dp610
g24
S'a'
sS'repeat_color_practice_mini.thisTrialN'
p611
I0
sg25
F1.5333072728060415
sg38
g42
sS'repeat_color_practice_mini.thisIndex'
p612
g537
sS'trials_3.thisRepN'
p613
I0
sS'repeat_color_practice.thisRepN'
p614
I1
sg26
I5
sg36
g37
sS'trials_3.thisIndex'
p615
g39
(g64
S'\x05\x00\x00\x00'
tRp616
sS'repeat_color_practice_mini.thisN'
p617
I1
sS'trials_3.thisTrialN'
p618
I5
sg544
g561
sg44
g45
sS'repeat_color_practice.thisN'
p619
I1
sS'repeat_color_practice.thisIndex'
p620
g429
sS'trials_3.thisN'
p621
I5
sS'repeat_color_practice_mini.thisRepN'
p622
I1
sg27
I0
sS'repeat_color_practice.thisTrialN'
p623
I0
sg43
g12
sg551
Vb
sa(dp624
g44
g45
sS'trials_3.thisN'
p625
I6
sg36
g37
sg24
S'f'
sS'repeat_color_practice_mini.thisTrialN'
p626
I0
sS'trials_3.thisTrialN'
p627
I6
sS'repeat_color_practice.thisIndex'
p628
g429
sg25
F2.265965085140806
sg38
g42
sS'repeat_color_practice_mini.thisRepN'
p629
I1
sS'repeat_color_practice_mini.thisIndex'
p630
g537
sS'repeat_color_practice.thisTrialN'
p631
I0
sg43
g12
sS'repeat_color_practice.thisRepN'
p632
I1
sS'trials_3.thisRepN'
p633
I0
sg26
I3
sg551
Vb
sS'trials_3.thisIndex'
p634
g39
(g64
S'\x06\x00\x00\x00'
tRp635
sS'repeat_color_practice_mini.thisN'
p636
I1
sS'repeat_color_practice.thisN'
p637
I1
sg544
g561
sa(dp638
g24
S'a'
sS'repeat_color_practice_mini.thisTrialN'
p639
I0
sg25
F3.1158234256474771
sg38
g42
sS'repeat_color_practice_mini.thisIndex'
p640
g537
sS'trials_3.thisRepN'
p641
I0
sS'repeat_color_practice.thisRepN'
p642
I1
sg26
I5
sg36
g37
sS'trials_3.thisIndex'
p643
g39
(g64
S'\x07\x00\x00\x00'
tRp644
sS'repeat_color_practice_mini.thisN'
p645
I1
sS'trials_3.thisTrialN'
p646
I7
sg544
g545
sg44
g45
sS'repeat_color_practice.thisN'
p647
I1
sS'repeat_color_practice.thisIndex'
p648
g429
sS'trials_3.thisN'
p649
I7
sS'repeat_color_practice_mini.thisRepN'
p650
I1
sg27
I0
sS'repeat_color_practice.thisTrialN'
p651
I0
sg43
g12
sg551
Vr
sa(dp652
g28
F4.4151584805820221
sg24
S'f'
sS'repeat_color_practice_mini.thisTrialN'
p653
I0
sg26
I5
sg38
g42
sS'repeat_color_practice_mini.thisIndex'
p654
g39
(g64
S'\x00\x00\x00\x00'
tRp655
sg23
S'd'
sS'trials_3.thisRepN'
p656
I0
sS'repeat_color_practice.thisRepN'
p657
I1
sg25
F3.0990527623043818
sg36
g37
sS'trials_3.thisIndex'
p658
g39
(g64
S'\x00\x00\x00\x00'
tRp659
sS'repeat_color_practice_mini.thisN'
p660
I2
sS'trials_3.thisTrialN'
p661
I0
sS'color'
p662
V#d7191c
p663
sg44
g45
sS'repeat_color_practice.thisN'
p664
I1
sS'repeat_color_practice.thisIndex'
p665
g429
sS'trials_3.thisN'
p666
I0
sS'repeat_color_practice_mini.thisRepN'
p667
I2
sS'repeat_color_practice.thisTrialN'
p668
I0
sg43
g12
sS'answer'
p669
Vr
sa(dp670
g24
S'a'
sS'repeat_color_practice_mini.thisTrialN'
p671
I0
sg25
F2.5328534447867241
sg38
g42
sS'repeat_color_practice_mini.thisIndex'
p672
g655
sS'trials_3.thisRepN'
p673
I0
sS'repeat_color_practice.thisRepN'
p674
I1
sg26
I4
sg36
g37
sS'trials_3.thisIndex'
p675
g39
(g64
S'\x01\x00\x00\x00'
tRp676
sS'repeat_color_practice_mini.thisN'
p677
I2
sS'trials_3.thisTrialN'
p678
I1
sg662
V#fdae61
p679
sg44
g45
sS'repeat_color_practice.thisN'
p680
I1
sS'repeat_color_practice.thisIndex'
p681
g429
sS'trials_3.thisN'
p682
I1
sS'repeat_color_practice_mini.thisRepN'
p683
I2
sg27
I0
sS'repeat_color_practice.thisTrialN'
p684
I0
sg43
g12
sg669
Vo
sa(dp685
g44
g45
sS'trials_3.thisN'
p686
I2
sg36
g37
sg24
S'f'
sS'repeat_color_practice_mini.thisTrialN'
p687
I0
sS'trials_3.thisTrialN'
p688
I2
sS'repeat_color_practice.thisIndex'
p689
g429
sg25
F1.9493194141557524
sg38
g42
sS'repeat_color_practice_mini.thisRepN'
p690
I2
sS'repeat_color_practice_mini.thisIndex'
p691
g655
sS'repeat_color_practice.thisTrialN'
p692
I0
sg43
g12
sS'repeat_color_practice.thisRepN'
p693
I1
sS'trials_3.thisRepN'
p694
I0
sg26
I5
sg669
Vb
sS'trials_3.thisIndex'
p695
g39
(g64
S'\x02\x00\x00\x00'
tRp696
sS'repeat_color_practice_mini.thisN'
p697
I2
sS'repeat_color_practice.thisN'
p698
I1
sg662
V#2c7bb6
p699
sa(dp700
g24
S'a'
sS'repeat_color_practice_mini.thisTrialN'
p701
I0
sg25
F1.683587267290477
sg38
g42
sS'repeat_color_practice_mini.thisIndex'
p702
g655
sS'trials_3.thisRepN'
p703
I0
sS'repeat_color_practice.thisRepN'
p704
I1
sg26
I4
sg36
g37
sS'trials_3.thisIndex'
p705
g39
(g64
S'\x03\x00\x00\x00'
tRp706
sS'repeat_color_practice_mini.thisN'
p707
I2
sS'trials_3.thisTrialN'
p708
I3
sg662
g679
sg44
g45
sS'repeat_color_practice.thisN'
p709
I1
sS'repeat_color_practice.thisIndex'
p710
g429
sS'trials_3.thisN'
p711
I3
sS'repeat_color_practice_mini.thisRepN'
p712
I2
sg27
I0
sS'repeat_color_practice.thisTrialN'
p713
I0
sg43
g12
sg669
Vo
sa(dp714
g44
g45
sS'trials_3.thisN'
p715
I4
sg36
g37
sg24
S'f'
sS'repeat_color_practice_mini.thisTrialN'
p716
I0
sS'trials_3.thisTrialN'
p717
I4
sS'repeat_color_practice.thisIndex'
p718
g429
sg25
F2.0334659118038871
sg38
g42
sS'repeat_color_practice_mini.thisRepN'
p719
I2
sS'repeat_color_practice_mini.thisIndex'
p720
g655
sS'repeat_color_practice.thisTrialN'
p721
I0
sg43
g12
sS'repeat_color_practice.thisRepN'
p722
I1
sS'trials_3.thisRepN'
p723
I0
sg26
I999
sg669
Vr
sS'trials_3.thisIndex'
p724
g39
(g64
S'\x04\x00\x00\x00'
tRp725
sS'repeat_color_practice_mini.thisN'
p726
I2
sS'repeat_color_practice.thisN'
p727
I1
sg662
g663
sa(dp728
g24
S'f'
sS'repeat_color_practice_mini.thisTrialN'
p729
I0
sg25
F1.7998823706332132
sg38
g42
sS'repeat_color_practice_mini.thisIndex'
p730
g655
sS'trials_3.thisRepN'
p731
I0
sS'repeat_color_practice.thisRepN'
p732
I1
sg26
I6
sg36
g37
sS'trials_3.thisIndex'
p733
g39
(g64
S'\x05\x00\x00\x00'
tRp734
sS'repeat_color_practice_mini.thisN'
p735
I2
sS'trials_3.thisTrialN'
p736
I5
sg662
g663
sg44
g45
sS'repeat_color_practice.thisN'
p737
I1
sS'repeat_color_practice.thisIndex'
p738
g429
sS'trials_3.thisN'
p739
I5
sS'repeat_color_practice_mini.thisRepN'
p740
I2
sg27
I0
sS'repeat_color_practice.thisTrialN'
p741
I0
sg43
g12
sg669
Vr
sa(dp742
g44
g45
sS'trials_3.thisN'
p743
I6
sg36
g37
sg24
S'f'
sS'repeat_color_practice_mini.thisTrialN'
p744
I0
sS'trials_3.thisTrialN'
p745
I6
sS'repeat_color_practice.thisIndex'
p746
g429
sg25
F2.866170713411293
sg38
g42
sS'repeat_color_practice_mini.thisRepN'
p747
I2
sS'repeat_color_practice_mini.thisIndex'
p748
g655
sS'repeat_color_practice.thisTrialN'
p749
I0
sg43
g12
sS'repeat_color_practice.thisRepN'
p750
I1
sS'trials_3.thisRepN'
p751
I0
sg26
I999
sg669
Vb
sS'trials_3.thisIndex'
p752
g39
(g64
S'\x06\x00\x00\x00'
tRp753
sS'repeat_color_practice_mini.thisN'
p754
I2
sS'repeat_color_practice.thisN'
p755
I1
sg662
g699
sa(dp756
g24
S'f'
sS'repeat_color_practice_mini.thisTrialN'
p757
I0
sg25
F2.133330834378512
sg38
g42
sS'repeat_color_practice_mini.thisIndex'
p758
g655
sS'trials_3.thisRepN'
p759
I0
sS'repeat_color_practice.thisRepN'
p760
I1
sg26
I6
sg36
g37
sS'trials_3.thisIndex'
p761
g39
(g64
S'\x07\x00\x00\x00'
tRp762
sS'repeat_color_practice_mini.thisN'
p763
I2
sS'trials_3.thisTrialN'
p764
I7
sg662
g699
sg44
g45
sS'repeat_color_practice.thisN'
p765
I1
sS'repeat_color_practice.thisIndex'
p766
g429
sS'trials_3.thisN'
p767
I7
sS'repeat_color_practice_mini.thisRepN'
p768
I2
sg27
I0
sS'repeat_color_practice.thisTrialN'
p769
I0
sg43
g12
sg669
Vb
sa(dp770
g43
g12
sg44
g45
sg29
S'd'
sg36
g37
sg38
g42
sg30
F41.729128931335481
sa(dp771
g44
g45
sS'trials_2.thisRepN'
p772
I0
sS'trials_2.thisTrialN'
p773
I0
sS'color'
p774
V#2c7bb6
p775
sg38
g42
sg36
g37
sg31
S'f'
sg43
g12
sS'trials_2.thisIndex'
p776
g39
(g64
S'\x00\x00\x00\x00'
tRp777
sg32
F5.2648664375660701
sg26
I6
sS'answer'
p778
Vb
sS'trials_2.thisN'
p779
I0
sa(dp780
g44
g45
sS'trials_2.thisRepN'
p781
I0
sS'trials_2.thisTrialN'
p782
I1
sg774
V#d7191c
p783
sg38
g42
sg27
I0
sg36
g37
sg31
S'a'
sg43
g12
sS'trials_2.thisIndex'
p784
g39
(g64
S'\x01\x00\x00\x00'
tRp785
sS'trials_2.thisN'
p786
I1
sg26
I5
sg778
Vr
sg32
F1.783168380012512
sa(dp787
g44
g45
sS'trials_2.thisRepN'
p788
I0
sS'trials_2.thisTrialN'
p789
I2
sg774
V#fdae61
p790
sg38
g42
sg36
g37
sg31
S'f'
sg43
g12
sS'trials_2.thisIndex'
p791
g39
(g64
S'\x02\x00\x00\x00'
tRp792
sg32
F2.082714507369019
sg26
I4
sg778
Vo
sS'trials_2.thisN'
p793
I2
sa(dp794
g44
g45
sS'trials_2.thisRepN'
p795
I0
sS'trials_2.thisTrialN'
p796
I3
sg774
g775
sg38
g42
sg27
I0
sg36
g37
sg31
S'a'
sg43
g12
sS'trials_2.thisIndex'
p797
g39
(g64
S'\x03\x00\x00\x00'
tRp798
sS'trials_2.thisN'
p799
I3
sg26
I6
sg778
Vb
sg32
F2.4826846984096846
sa(dp800
g44
g45
sS'trials_2.thisRepN'
p801
I0
sS'trials_2.thisTrialN'
p802
I4
sg774
g775
sg38
g42
sg36
g37
sg31
S'f'
sg43
g12
sS'trials_2.thisIndex'
p803
g39
(g64
S'\x04\x00\x00\x00'
tRp804
sg32
F2.0990059069040399
sg26
I4
sg778
Vb
sS'trials_2.thisN'
p805
I4
sa(dp806
g44
g45
sS'trials_2.thisRepN'
p807
I0
sS'trials_2.thisTrialN'
p808
I5
sg774
g783
sg38
g42
sg27
I0
sg36
g37
sg31
S'a'
sg43
g12
sS'trials_2.thisIndex'
p809
g39
(g64
S'\x05\x00\x00\x00'
tRp810
sS'trials_2.thisN'
p811
I5
sg26
I5
sg778
Vr
sg32
F3.0323985011627883
sa(dp812
g44
g45
sS'trials_2.thisRepN'
p813
I0
sS'trials_2.thisTrialN'
p814
I6
sg774
g775
sg38
g42
sg36
g37
sg31
S'f'
sg43
g12
sS'trials_2.thisIndex'
p815
g39
(g64
S'\x06\x00\x00\x00'
tRp816
sg32
F2.715735426743322
sg26
I3
sg778
Vb
sS'trials_2.thisN'
p817
I6
sa(dp818
g44
g45
sS'trials_2.thisRepN'
p819
I0
sS'trials_2.thisTrialN'
p820
I7
sg774
g775
sg38
g42
sg27
I0
sg36
g37
sg31
S'f'
sg43
g12
sS'trials_2.thisIndex'
p821
g39
(g64
S'\x07\x00\x00\x00'
tRp822
sS'trials_2.thisN'
p823
I7
sg26
I6
sg778
Vb
sg32
F9.8953446705552324
sa(dp824
g44
g45
sS'trials_2.thisRepN'
p825
I0
sS'trials_2.thisTrialN'
p826
I8
sg774
g790
sg38
g42
sg36
g37
sg31
S'f'
sg43
g12
sS'trials_2.thisIndex'
p827
g39
(g64
S'\x08\x00\x00\x00'
tRp828
sg32
F3.4156529166148175
sg26
I5
sg778
Vo
sS'trials_2.thisN'
p829
I8
sa(dp830
g44
g45
sS'trials_2.thisRepN'
p831
I0
sS'trials_2.thisTrialN'
p832
I9
sg774
g790
sg38
g42
sg27
I0
sg36
g37
sg31
S'f'
sg43
g12
sS'trials_2.thisIndex'
p833
g39
(g64
S'\t\x00\x00\x00'
tRp834
sS'trials_2.thisN'
p835
I9
sg26
I3
sg778
Vo
sg32
F1.7166662873610221
sa(dp836
g44
g45
sS'trials_2.thisRepN'
p837
I0
sS'trials_2.thisTrialN'
p838
I10
sg774
g783
sg38
g42
sg36
g37
sg31
S'f'
sg43
g12
sS'trials_2.thisIndex'
p839
g39
(g64
S'\n\x00\x00\x00'
tRp840
sg32
F3.4498096108902701
sg26
I6
sg778
Vr
sS'trials_2.thisN'
p841
I10
sa(dp842
g44
g45
sS'trials_2.thisRepN'
p843
I0
sS'trials_2.thisTrialN'
p844
I11
sg774
g775
sg38
g42
sg27
I0
sg36
g37
sg31
S'a'
sg43
g12
sS'trials_2.thisIndex'
p845
g39
(g64
S'\x0b\x00\x00\x00'
tRp846
sS'trials_2.thisN'
p847
I11
sg26
I5
sg778
Vb
sg32
F1.6673556641708274
sa(dp848
g44
g45
sS'trials_2.thisRepN'
p849
I0
sS'trials_2.thisTrialN'
p850
I12
sg774
g790
sg38
g42
sg36
g37
sg31
S'f'
sg43
g12
sS'trials_2.thisIndex'
p851
g39
(g64
S'\x0c\x00\x00\x00'
tRp852
sg32
F2.6669781435177811
sg26
I999
sg778
Vo
sS'trials_2.thisN'
p853
I12
sa(dp854
g44
g45
sS'trials_2.thisRepN'
p855
I0
sS'trials_2.thisTrialN'
p856
I13
sg774
g783
sg38
g42
sg27
I0
sg36
g37
sg31
S'a'
sg43
g12
sS'trials_2.thisIndex'
p857
g39
(g64
S'\r\x00\x00\x00'
tRp858
sS'trials_2.thisN'
p859
I13
sg26
I6
sg778
Vr
sg32
F2.26662820061415
sa(dp860
g44
g45
sS'trials_2.thisRepN'
p861
I0
sS'trials_2.thisTrialN'
p862
I14
sg774
g783
sg38
g42
sg36
g37
sg31
S'f'
sg43
g12
sS'trials_2.thisIndex'
p863
g39
(g64
S'\x0e\x00\x00\x00'
tRp864
sg32
F2.1662210941226476
sg26
I3
sg778
Vr
sS'trials_2.thisN'
p865
I14
sa(dp866
g44
g45
sS'trials_2.thisRepN'
p867
I0
sS'trials_2.thisTrialN'
p868
I15
sg774
g783
sg38
g42
sg27
I0
sg36
g37
sg31
S'f'
sg43
g12
sS'trials_2.thisIndex'
p869
g39
(g64
S'\x0f\x00\x00\x00'
tRp870
sS'trials_2.thisN'
p871
I15
sg26
I4
sg778
Vr
sg32
F1.9500744554620724
sa(dp872
g44
g45
sS'trials_2.thisRepN'
p873
I0
sS'trials_2.thisTrialN'
p874
I16
sg774
g790
sg38
g42
sg36
g37
sg31
S'f'
sg43
g12
sS'trials_2.thisIndex'
p875
g39
(g64
S'\x10\x00\x00\x00'
tRp876
sg32
F1.6340526306630636
sg26
I5
sg778
Vo
sS'trials_2.thisN'
p877
I16
sa(dp878
g44
g45
sS'trials_2.thisRepN'
p879
I0
sS'trials_2.thisTrialN'
p880
I17
sg774
g783
sg38
g42
sg27
I0
sg36
g37
sg31
S'a'
sg43
g12
sS'trials_2.thisIndex'
p881
g39
(g64
S'\x11\x00\x00\x00'
tRp882
sS'trials_2.thisN'
p883
I17
sg26
I999
sg778
Vr
sg32
F1.9335679673279174
sa(dp884
g44
g45
sS'trials_2.thisRepN'
p885
I0
sS'trials_2.thisTrialN'
p886
I18
sg774
g775
sg38
g42
sg36
g37
sg31
S'f'
sg43
g12
sS'trials_2.thisIndex'
p887
g39
(g64
S'\x12\x00\x00\x00'
tRp888
sg32
F1.8844675240759443
sg26
I3
sg778
Vb
sS'trials_2.thisN'
p889
I18
sa(dp890
g44
g45
sS'trials_2.thisRepN'
p891
I0
sS'trials_2.thisTrialN'
p892
I19
sg774
g790
sg38
g42
sg27
I0
sg36
g37
sg31
S'a'
sg43
g12
sS'trials_2.thisIndex'
p893
g39
(g64
S'\x13\x00\x00\x00'
tRp894
sS'trials_2.thisN'
p895
I19
sg26
I5
sg778
Vo
sg32
F1.6675640591413412
sa(dp896
g44
g45
sS'trials_2.thisRepN'
p897
I0
sS'trials_2.thisTrialN'
p898
I20
sg774
g775
sg38
g42
sg36
g37
sg31
S'f'
sg43
g12
sS'trials_2.thisIndex'
p899
g39
(g64
S'\x14\x00\x00\x00'
tRp900
sg32
F3.6826117824818994
sg26
I4
sg778
Vb
sS'trials_2.thisN'
p901
I20
sa(dp902
g44
g45
sS'trials_2.thisRepN'
p903
I0
sS'trials_2.thisTrialN'
p904
I21
sg774
g775
sg38
g42
sg27
I0
sg36
g37
sg31
S'f'
sg43
g12
sS'trials_2.thisIndex'
p905
g39
(g64
S'\x15\x00\x00\x00'
tRp906
sS'trials_2.thisN'
p907
I21
sg26
I3
sg778
Vb
sg32
F2.8667454729873043
sa(dp908
g44
g45
sS'trials_2.thisRepN'
p909
I0
sS'trials_2.thisTrialN'
p910
I22
sg774
g783
sg38
g42
sg36
g37
sg31
S'f'
sg43
g12
sS'trials_2.thisIndex'
p911
g39
(g64
S'\x16\x00\x00\x00'
tRp912
sg32
F1.9335371766362641
sg26
I999
sg778
Vr
sS'trials_2.thisN'
p913
I22
sa(dp914
g44
g45
sS'trials_2.thisRepN'
p915
I0
sS'trials_2.thisTrialN'
p916
I23
sg774
g783
sg38
g42
sg27
I0
sg36
g37
sg31
S'f'
sg43
g12
sS'trials_2.thisIndex'
p917
g39
(g64
S'\x17\x00\x00\x00'
tRp918
sS'trials_2.thisN'
p919
I23
sg26
I5
sg778
Vr
sg32
F1.7505637150889015
sa(dp920
g44
g45
sS'trials_2.thisRepN'
p921
I0
sS'trials_2.thisTrialN'
p922
I24
sg774
g783
sg38
g42
sg36
g37
sg31
S'f'
sg43
g12
sS'trials_2.thisIndex'
p923
g39
(g64
S'\x18\x00\x00\x00'
tRp924
sg32
F2.9003733706035746
sg26
I4
sg778
Vr
sS'trials_2.thisN'
p925
I24
sa(dp926
g44
g45
sS'trials_2.thisRepN'
p927
I0
sS'trials_2.thisTrialN'
p928
I25
sg774
g790
sg38
g42
sg27
I0
sg36
g37
sg31
S'a'
sg43
g12
sS'trials_2.thisIndex'
p929
g39
(g64
S'\x19\x00\x00\x00'
tRp930
sS'trials_2.thisN'
p931
I25
sg26
I5
sg778
Vo
sg32
F1.500608004598007
sa(dp932
g44
g45
sS'trials_2.thisRepN'
p933
I0
sS'trials_2.thisTrialN'
p934
I26
sg774
g775
sg38
g42
sg36
g37
sg31
S'f'
sg43
g12
sS'trials_2.thisIndex'
p935
g39
(g64
S'\x1a\x00\x00\x00'
tRp936
sg32
F2.1165815906470016
sg26
I4
sg778
Vb
sS'trials_2.thisN'
p937
I26
sa(dp938
g44
g45
sS'trials_2.thisRepN'
p939
I0
sS'trials_2.thisTrialN'
p940
I27
sg774
g775
sg38
g42
sg27
I0
sg36
g37
sg31
S'f'
sg43
g12
sS'trials_2.thisIndex'
p941
g39
(g64
S'\x1b\x00\x00\x00'
tRp942
sS'trials_2.thisN'
p943
I27
sg26
I3
sg778
Vb
sg32
F1.6002685483795176
sa(dp944
g44
g45
sS'trials_2.thisRepN'
p945
I0
sS'trials_2.thisTrialN'
p946
I28
sg774
g783
sg38
g42
sg36
g37
sg31
S'f'
sg43
g12
sS'trials_2.thisIndex'
p947
g39
(g64
S'\x1c\x00\x00\x00'
tRp948
sg32
F2.3337050528416512
sg26
I5
sg778
Vr
sS'trials_2.thisN'
p949
I28
sa(dp950
g44
g45
sS'trials_2.thisRepN'
p951
I0
sS'trials_2.thisTrialN'
p952
I29
sg774
g783
sg38
g42
sg27
I0
sg36
g37
sg31
S'f'
sg43
g12
sS'trials_2.thisIndex'
p953
g39
(g64
S'\x1d\x00\x00\x00'
tRp954
sS'trials_2.thisN'
p955
I29
sg26
I4
sg778
Vr
sg32
F1.5504907099129923
sa(dp956
g44
g45
sS'trials_2.thisRepN'
p957
I0
sS'trials_2.thisTrialN'
p958
I30
sg774
g790
sg38
g42
sg36
g37
sg31
S'f'
sg43
g12
sS'trials_2.thisIndex'
p959
g39
(g64
S'\x1e\x00\x00\x00'
tRp960
sg32
F1.2999856756346162
sg26
I6
sg778
Vo
sS'trials_2.thisN'
p961
I30
sa(dp962
g44
g45
sS'trials_2.thisRepN'
p963
I0
sS'trials_2.thisTrialN'
p964
I31
sg774
g783
sg38
g42
sg27
I0
sg36
g37
sg31
S'a'
sg43
g12
sS'trials_2.thisIndex'
p965
g39
(g64
S'\x1f\x00\x00\x00'
tRp966
sS'trials_2.thisN'
p967
I31
sg26
I999
sg778
Vr
sg32
F1.7005100991239033
sa(dp968
g44
g45
sS'trials_2.thisRepN'
p969
I0
sS'trials_2.thisTrialN'
p970
I32
sg774
g775
sg38
g42
sg36
g37
sg31
S'f'
sg43
g12
sS'trials_2.thisIndex'
p971
g39
(g64
S' \x00\x00\x00'
tRp972
sg32
F1.6669558314222286
sg26
I6
sg778
Vb
sS'trials_2.thisN'
p973
I32
sa(dp974
g44
g45
sS'trials_2.thisRepN'
p975
I0
sS'trials_2.thisTrialN'
p976
I33
sg774
g783
sg38
g42
sg27
I0
sg36
g37
sg31
S'a'
sg43
g12
sS'trials_2.thisIndex'
p977
g39
(g64
S'!\x00\x00\x00'
tRp978
sS'trials_2.thisN'
p979
I33
sg26
I5
sg778
Vr
sg32
F1.8335495375372375
sa(dp980
g44
g45
sS'trials_2.thisRepN'
p981
I0
sS'trials_2.thisTrialN'
p982
I34
sg774
g790
sg38
g42
sg36
g37
sg31
S'f'
sg43
g12
sS'trials_2.thisIndex'
p983
g39
(g64
S'"\x00\x00\x00'
tRp984
sg32
F1.7840787135025948
sg26
I999
sg778
Vo
sS'trials_2.thisN'
p985
I34
sa(dp986
g44
g45
sS'trials_2.thisRepN'
p987
I0
sS'trials_2.thisTrialN'
p988
I35
sg774
g790
sg38
g42
sg27
I0
sg36
g37
sg31
S'f'
sg43
g12
sS'trials_2.thisIndex'
p989
g39
(g64
S'#\x00\x00\x00'
tRp990
sS'trials_2.thisN'
p991
I35
sg26
I5
sg778
Vo
sg32
F2.349734062135667
sa(dp992
g44
g45
sS'trials_2.thisRepN'
p993
I0
sS'trials_2.thisTrialN'
p994
I36
sg774
g790
sg38
g42
sg36
g37
sg31
S'f'
sg43
g12
sS'trials_2.thisIndex'
p995
g39
(g64
S'$\x00\x00\x00'
tRp996
sg32
F1.8177275844880114
sg26
I4
sg778
Vo
sS'trials_2.thisN'
p997
I36
sa(dp998
g44
g45
sS'trials_2.thisRepN'
p999
I0
sS'trials_2.thisTrialN'
p1000
I37
sg774
g783
sg38
g42
sg27
I0
sg36
g37
sg31
S'a'
sg43
g12
sS'trials_2.thisIndex'
p1001
g39
(g64
S'%\x00\x00\x00'
tRp1002
sS'trials_2.thisN'
p1003
I37
sg26
I999
sg778
Vr
sg32
F1.8672332153917068
sa(dp1004
g44
g45
sS'trials_2.thisRepN'
p1005
I0
sS'trials_2.thisTrialN'
p1006
I38
sg774
g783
sg38
g42
sg36
g37
sg31
S'f'
sg43
g12
sS'trials_2.thisIndex'
p1007
g39
(g64
S'&\x00\x00\x00'
tRp1008
sg32
F2.3167389355435262
sg26
I4
sg778
Vr
sS'trials_2.thisN'
p1009
I38
sa(dp1010
g44
g45
sS'trials_2.thisRepN'
p1011
I0
sS'trials_2.thisTrialN'
p1012
I39
sg774
g783
sg38
g42
sg27
I0
sg36
g37
sg31
S'f'
sg43
g12
sS'trials_2.thisIndex'
p1013
g39
(g64
S"'\x00\x00\x00"
tRp1014
sS'trials_2.thisN'
p1015
I39
sg26
I999
sg778
Vr
sg32
F1.6006126008896899
sa(dp1016
g44
g45
sS'trials_2.thisRepN'
p1017
I0
sS'trials_2.thisTrialN'
p1018
I40
sg774
g775
sg38
g42
sg36
g37
sg31
S'f'
sg43
g12
sS'trials_2.thisIndex'
p1019
g39
(g64
S'(\x00\x00\x00'
tRp1020
sg32
F5.3984855442165554
sg26
I6
sg778
Vb
sS'trials_2.thisN'
p1021
I40
sa(dp1022
g44
g45
sS'trials_2.thisRepN'
p1023
I0
sS'trials_2.thisTrialN'
p1024
I41
sg774
g775
sg38
g42
sg27
I0
sg36
g37
sg31
S'f'
sg43
g12
sS'trials_2.thisIndex'
p1025
g39
(g64
S')\x00\x00\x00'
tRp1026
sS'trials_2.thisN'
p1027
I41
sg26
I999
sg778
Vb
sg32
F2.5503291703423656
sa(dp1028
g44
g45
sS'trials_2.thisRepN'
p1029
I0
sS'trials_2.thisTrialN'
p1030
I42
sg774
g790
sg38
g42
sg36
g37
sg31
S'f'
sg43
g12
sS'trials_2.thisIndex'
p1031
g39
(g64
S'*\x00\x00\x00'
tRp1032
sg32
F1.6335693506778171
sg26
I3
sg778
Vo
sS'trials_2.thisN'
p1033
I42
sa(dp1034
g44
g45
sS'trials_2.thisRepN'
p1035
I0
sS'trials_2.thisTrialN'
p1036
I43
sg774
g783
sg38
g42
sg27
I0
sg36
g37
sg31
S'a'
sg43
g12
sS'trials_2.thisIndex'
p1037
g39
(g64
S'+\x00\x00\x00'
tRp1038
sS'trials_2.thisN'
p1039
I43
sg26
I6
sg778
Vr
sg32
F1.4506436370143092
sa(dp1040
g44
g45
sS'trials_2.thisRepN'
p1041
I0
sS'trials_2.thisTrialN'
p1042
I44
sg774
g790
sg38
g42
sg36
g37
sg31
S'f'
sg43
g12
sS'trials_2.thisIndex'
p1043
g39
(g64
S',\x00\x00\x00'
tRp1044
sg32
F2.0334208413712531
sg26
I5
sg778
Vo
sS'trials_2.thisN'
p1045
I44
sa(dp1046
g44
g45
sS'trials_2.thisRepN'
p1047
I0
sS'trials_2.thisTrialN'
p1048
I45
sg774
g775
sg38
g42
sg27
I0
sg36
g37
sg31
S'a'
sg43
g12
sS'trials_2.thisIndex'
p1049
g39
(g64
S'-\x00\x00\x00'
tRp1050
sS'trials_2.thisN'
p1051
I45
sg26
I999
sg778
Vb
sg32
F1.4664606814023955
sa(dp1052
g44
g45
sS'trials_2.thisRepN'
p1053
I0
sS'trials_2.thisTrialN'
p1054
I46
sg774
g783
sg38
g42
sg36
g37
sg31
S'f'
sg43
g12
sS'trials_2.thisIndex'
p1055
g39
(g64
S'.\x00\x00\x00'
tRp1056
sg32
F2.631799109033409
sg26
I3
sg778
Vr
sS'trials_2.thisN'
p1057
I46
sa(dp1058
g44
g45
sS'trials_2.thisRepN'
p1059
I0
sS'trials_2.thisTrialN'
p1060
I47
sg774
g783
sg38
g42
sg27
I0
sg36
g37
sg31
S'f'
sg43
g12
sS'trials_2.thisIndex'
p1061
g39
(g64
S'/\x00\x00\x00'
tRp1062
sS'trials_2.thisN'
p1063
I47
sg26
I6
sg778
Vr
sg32
F1.8172817888232657
sa(dp1064
g44
g45
sS'trials_2.thisRepN'
p1065
I0
sS'trials_2.thisTrialN'
p1066
I48
sg774
g790
sg38
g42
sg36
g37
sg31
S'f'
sg43
g12
sS'trials_2.thisIndex'
p1067
g39
(g64
S'0\x00\x00\x00'
tRp1068
sg32
F2.0344739722713712
sg26
I4
sg778
Vo
sS'trials_2.thisN'
p1069
I48
sa(dp1070
g44
g45
sS'trials_2.thisRepN'
p1071
I0
sS'trials_2.thisTrialN'
p1072
I49
sg774
g790
sg38
g42
sg27
I0
sg36
g37
sg31
S'f'
sg43
g12
sS'trials_2.thisIndex'
p1073
g39
(g64
S'1\x00\x00\x00'
tRp1074
sS'trials_2.thisN'
p1075
I49
sg26
I6
sg778
Vo
sg32
F1.3171133325033679
sa(dp1076
g44
g45
sS'trials_2.thisRepN'
p1077
I0
sS'trials_2.thisTrialN'
p1078
I50
sg774
g783
sg38
g42
sg36
g37
sg31
S'f'
sg43
g12
sS'trials_2.thisIndex'
p1079
g39
(g64
S'2\x00\x00\x00'
tRp1080
sg32
F1.9674221095908706
sg26
I4
sg778
Vr
sS'trials_2.thisN'
p1081
I50
sa(dp1082
g44
g45
sS'trials_2.thisRepN'
p1083
I0
sS'trials_2.thisTrialN'
p1084
I51
sg774
g790
sg38
g42
sg27
I0
sg36
g37
sg31
S'a'
sg43
g12
sS'trials_2.thisIndex'
p1085
g39
(g64
S'3\x00\x00\x00'
tRp1086
sS'trials_2.thisN'
p1087
I51
sg26
I999
sg778
Vo
sg32
F1.7168108697387652
sa(dp1088
g44
g45
sS'trials_2.thisRepN'
p1089
I0
sS'trials_2.thisTrialN'
p1090
I52
sg774
g775
sg38
g42
sg36
g37
sg31
S'f'
sg43
g12
sS'trials_2.thisIndex'
p1091
g39
(g64
S'4\x00\x00\x00'
tRp1092
sg32
F2.3670607428944095
sg26
I5
sg778
Vb
sS'trials_2.thisN'
p1093
I52
sa(dp1094
g44
g45
sS'trials_2.thisRepN'
p1095
I0
sS'trials_2.thisTrialN'
p1096
I53
sg774
g775
sg38
g42
sg27
I0
sg36
g37
sg31
S'f'
sg43
g12
sS'trials_2.thisIndex'
p1097
g39
(g64
S'5\x00\x00\x00'
tRp1098
sS'trials_2.thisN'
p1099
I53
sg26
I6
sg778
Vb
sg32
F1.5835242133089196
sa(dp1100
g44
g45
sS'trials_2.thisRepN'
p1101
I0
sS'trials_2.thisTrialN'
p1102
I54
sg774
g790
sg38
g42
sg36
g37
sg31
S'f'
sg43
g12
sS'trials_2.thisIndex'
p1103
g39
(g64
S'6\x00\x00\x00'
tRp1104
sg32
F1.4674674031441555
sg26
I3
sg778
Vo
sS'trials_2.thisN'
p1105
I54
sa(dp1106
g44
g45
sS'trials_2.thisRepN'
p1107
I0
sS'trials_2.thisTrialN'
p1108
I55
sg774
g783
sg38
g42
sg27
I0
sg36
g37
sg31
S'a'
sg43
g12
sS'trials_2.thisIndex'
p1109
g39
(g64
S'7\x00\x00\x00'
tRp1110
sS'trials_2.thisN'
p1111
I55
sg26
I999
sg778
Vr
sg32
F1.5008262168905731
sa(dp1112
g44
g45
sS'trials_2.thisRepN'
p1113
I0
sS'trials_2.thisTrialN'
p1114
I56
sg774
g790
sg38
g42
sg36
g37
sg31
S'f'
sg43
g12
sS'trials_2.thisIndex'
p1115
g39
(g64
S'8\x00\x00\x00'
tRp1116
sg32
F2.599788392087703
sg26
I5
sg778
Vo
sS'trials_2.thisN'
p1117
I56
sa(dp1118
g44
g45
sS'trials_2.thisRepN'
p1119
I0
sS'trials_2.thisTrialN'
p1120
I57
sg774
g775
sg38
g42
sg27
I0
sg36
g37
sg31
S'a'
sg43
g12
sS'trials_2.thisIndex'
p1121
g39
(g64
S'9\x00\x00\x00'
tRp1122
sS'trials_2.thisN'
p1123
I57
sg26
I999
sg778
Vb
sg32
F2.6670468647712369
sa(dp1124
g44
g45
sS'trials_2.thisRepN'
p1125
I0
sS'trials_2.thisTrialN'
p1126
I58
sg774
g783
sg38
g42
sg36
g37
sg31
S'f'
sg43
g12
sS'trials_2.thisIndex'
p1127
g39
(g64
S':\x00\x00\x00'
tRp1128
sg32
F2.9666353851089298
sg26
I5
sg778
Vr
sS'trials_2.thisN'
p1129
I58
sa(dp1130
g44
g45
sS'trials_2.thisRepN'
p1131
I0
sS'trials_2.thisTrialN'
p1132
I59
sg774
g783
sg38
g42
sg27
I0
sg36
g37
sg31
S'f'
sg43
g12
sS'trials_2.thisIndex'
p1133
g39
(g64
S';\x00\x00\x00'
tRp1134
sS'trials_2.thisN'
p1135
I59
sg26
I3
sg778
Vr
sg32
F2.8501698173574823
sa(dp1136
g44
g45
sS'trials_2.thisRepN'
p1137
I0
sS'trials_2.thisTrialN'
p1138
I60
sg774
g790
sg38
g42
sg36
g37
sg31
S'f'
sg43
g12
sS'trials_2.thisIndex'
p1139
g39
(g64
S'<\x00\x00\x00'
tRp1140
sg32
F5.1488801336224697
sg26
I5
sg778
Vo
sS'trials_2.thisN'
p1141
I60
sa(dp1142
g44
g45
sS'trials_2.thisRepN'
p1143
I0
sS'trials_2.thisTrialN'
p1144
I61
sg774
g775
sg38
g42
sg27
I0
sg36
g37
sg31
S'a'
sg43
g12
sS'trials_2.thisIndex'
p1145
g39
(g64
S'=\x00\x00\x00'
tRp1146
sS'trials_2.thisN'
p1147
I61
sg26
I999
sg778
Vb
sg32
F1.6672409800007699
sa(dp1148
g44
g45
sS'trials_2.thisRepN'
p1149
I0
sS'trials_2.thisTrialN'
p1150
I62
sg774
g783
sg38
g42
sg36
g37
sg31
S'f'
sg43
g12
sS'trials_2.thisIndex'
p1151
g39
(g64
S'>\x00\x00\x00'
tRp1152
sg32
F3.3827791678213543
sg26
I4
sg778
Vr
sS'trials_2.thisN'
p1153
I62
sa(dp1154
g44
g45
sS'trials_2.thisRepN'
p1155
I0
sS'trials_2.thisTrialN'
p1156
I63
sg774
g783
sg38
g42
sg27
I0
sg36
g37
sg31
S'f'
sg43
g12
sS'trials_2.thisIndex'
p1157
g39
(g64
S'?\x00\x00\x00'
tRp1158
sS'trials_2.thisN'
p1159
I63
sg26
I999
sg778
Vr
sg32
F1.8504339925664226
sa(dp1160
g44
g45
sS'trials_2.thisRepN'
p1161
I0
sS'trials_2.thisTrialN'
p1162
I64
sg774
g790
sg38
g42
sg36
g37
sg31
S'f'
sg43
g12
sS'trials_2.thisIndex'
p1163
g39
(g64
S'@\x00\x00\x00'
tRp1164
sg32
F2.282970471726685
sg26
I4
sg778
Vo
sS'trials_2.thisN'
p1165
I64
sa(dp1166
g44
g45
sS'trials_2.thisRepN'
p1167
I0
sS'trials_2.thisTrialN'
p1168
I65
sg774
g790
sg38
g42
sg27
I0
sg36
g37
sg31
S'f'
sg43
g12
sS'trials_2.thisIndex'
p1169
g39
(g64
S'A\x00\x00\x00'
tRp1170
sS'trials_2.thisN'
p1171
I65
sg26
I6
sg778
Vo
sg32
F2.0835016780927162
sa(dp1172
g44
g45
sS'trials_2.thisRepN'
p1173
I0
sS'trials_2.thisTrialN'
p1174
I66
sg774
g783
sg38
g42
sg36
g37
sg31
S'f'
sg43
g12
sS'trials_2.thisIndex'
p1175
g39
(g64
S'B\x00\x00\x00'
tRp1176
sg32
F1.917199814184869
sg26
I999
sg778
Vr
sS'trials_2.thisN'
p1177
I66
sa(dp1178
g44
g45
sS'trials_2.thisRepN'
p1179
I0
sS'trials_2.thisTrialN'
p1180
I67
sg774
g790
sg38
g42
sg27
I0
sg36
g37
sg31
S'a'
sg43
g12
sS'trials_2.thisIndex'
p1181
g39
(g64
S'C\x00\x00\x00'
tRp1182
sS'trials_2.thisN'
p1183
I67
sg26
I4
sg778
Vo
sg32
F1.6506256088412101
sa(dp1184
g44
g45
sS'trials_2.thisRepN'
p1185
I0
sS'trials_2.thisTrialN'
p1186
I68
sg774
g783
sg38
g42
sg36
g37
sg31
S'f'
sg43
g12
sS'trials_2.thisIndex'
p1187
g39
(g64
S'D\x00\x00\x00'
tRp1188
sg32
F2.2176629686598517
sg26
I999
sg778
Vr
sS'trials_2.thisN'
p1189
I68
sa(dp1190
g44
g45
sS'trials_2.thisRepN'
p1191
I0
sS'trials_2.thisTrialN'
p1192
I69
sg774
g790
sg38
g42
sg27
I0
sg36
g37
sg31
S'a'
sg43
g12
sS'trials_2.thisIndex'
p1193
g39
(g64
S'E\x00\x00\x00'
tRp1194
sS'trials_2.thisN'
p1195
I69
sg26
I3
sg778
Vo
sg32
F2.5335067429384708
sa(dp1196
g44
g45
sS'trials_2.thisRepN'
p1197
I0
sS'trials_2.thisTrialN'
p1198
I70
sg774
g790
sg38
g42
sg36
g37
sg31
S'f'
sg43
g12
sS'trials_2.thisIndex'
p1199
g39
(g64
S'F\x00\x00\x00'
tRp1200
sg32
F2.0842857251229816
sg26
I6
sg778
Vo
sS'trials_2.thisN'
p1201
I70
sa(dp1202
g44
g45
sS'trials_2.thisRepN'
p1203
I0
sS'trials_2.thisTrialN'
p1204
I71
sg774
g790
sg38
g42
sg27
I0
sg36
g37
sg31
S'f'
sg43
g12
sS'trials_2.thisIndex'
p1205
g39
(g64
S'G\x00\x00\x00'
tRp1206
sS'trials_2.thisN'
p1207
I71
sg26
I3
sg778
Vo
sg32
F2.4326734754256449
sa(dp1208
g44
g45
sS'trials_2.thisRepN'
p1209
I0
sS'trials_2.thisTrialN'
p1210
I72
sg774
g775
sg38
g42
sg36
g37
sg31
S'f'
sg43
g12
sS'trials_2.thisIndex'
p1211
g39
(g64
S'H\x00\x00\x00'
tRp1212
sg32
F2.883526846136192
sg26
I4
sg778
Vb
sS'trials_2.thisN'
p1213
I72
sa(dp1214
g44
g45
sS'trials_2.thisRepN'
p1215
I0
sS'trials_2.thisTrialN'
p1216
I73
sg774
g775
sg38
g42
sg27
I0
sg36
g37
sg31
S'f'
sg43
g12
sS'trials_2.thisIndex'
p1217
g39
(g64
S'I\x00\x00\x00'
tRp1218
sS'trials_2.thisN'
p1219
I73
sg26
I3
sg778
Vb
sg32
F1.7674468313923626
sa(dp1220
g44
g45
sS'trials_2.thisRepN'
p1221
I0
sS'trials_2.thisTrialN'
p1222
I74
sg774
g775
sg38
g42
sg36
g37
sg31
S'f'
sg43
g12
sS'trials_2.thisIndex'
p1223
g39
(g64
S'J\x00\x00\x00'
tRp1224
sg32
F2.1165548161327479
sg26
I5
sg778
Vb
sS'trials_2.thisN'
p1225
I74
sa(dp1226
g44
g45
sS'trials_2.thisRepN'
p1227
I0
sS'trials_2.thisTrialN'
p1228
I75
sg774
g790
sg38
g42
sg27
I0
sg36
g37
sg31
S'a'
sg43
g12
sS'trials_2.thisIndex'
p1229
g39
(g64
S'K\x00\x00\x00'
tRp1230
sS'trials_2.thisN'
p1231
I75
sg26
I999
sg778
Vo
sg32
F1.4341282240418423
sa(dp1232
g44
g45
sS'trials_2.thisRepN'
p1233
I0
sS'trials_2.thisTrialN'
p1234
I76
sg774
g775
sg38
g42
sg36
g37
sg31
S'f'
sg43
g12
sS'trials_2.thisIndex'
p1235
g39
(g64
S'L\x00\x00\x00'
tRp1236
sg32
F1.6502119425936144
sg26
I6
sg778
Vb
sS'trials_2.thisN'
p1237
I76
sa(dp1238
g44
g45
sS'trials_2.thisRepN'
p1239
I0
sS'trials_2.thisTrialN'
p1240
I77
sg774
g775
sg38
g42
sg27
I0
sg36
g37
sg31
S'f'
sg43
g12
sS'trials_2.thisIndex'
p1241
g39
(g64
S'M\x00\x00\x00'
tRp1242
sS'trials_2.thisN'
p1243
I77
sg26
I4
sg778
Vb
sg32
F1.7173244941736812
sa(dp1244
g44
g45
sS'trials_2.thisRepN'
p1245
I0
sS'trials_2.thisTrialN'
p1246
I78
sg774
g783
sg38
g42
sg36
g37
sg31
S'f'
sg43
g12
sS'trials_2.thisIndex'
p1247
g39
(g64
S'N\x00\x00\x00'
tRp1248
sg32
F1.567679501922612
sg26
I999
sg778
Vr
sS'trials_2.thisN'
p1249
I78
sa(dp1250
g44
g45
sS'trials_2.thisRepN'
p1251
I0
sS'trials_2.thisTrialN'
p1252
I79
sg774
g783
sg38
g42
sg27
I0
sg36
g37
sg31
S'f'
sg43
g12
sS'trials_2.thisIndex'
p1253
g39
(g64
S'O\x00\x00\x00'
tRp1254
sS'trials_2.thisN'
p1255
I79
sg26
I5
sg778
Vr
sg32
F1.6001297671466546
sa(dp1256
g44
g45
sS'trials_2.thisRepN'
p1257
I0
sS'trials_2.thisTrialN'
p1258
I80
sg774
g783
sg38
g42
sg36
g37
sg31
S'f'
sg43
g12
sS'trials_2.thisIndex'
p1259
g39
(g64
S'P\x00\x00\x00'
tRp1260
sg32
F2.7500558917988656
sg26
I4
sg778
Vr
sS'trials_2.thisN'
p1261
I80
sa(dp1262
g44
g45
sS'trials_2.thisRepN'
p1263
I0
sS'trials_2.thisTrialN'
p1264
I81
sg774
g790
sg38
g42
sg27
I0
sg36
g37
sg31
S'a'
sg43
g12
sS'trials_2.thisIndex'
p1265
g39
(g64
S'Q\x00\x00\x00'
tRp1266
sS'trials_2.thisN'
p1267
I81
sg26
I6
sg778
Vo
sg32
F1.5341631647831946
sa(dp1268
g44
g45
sS'trials_2.thisRepN'
p1269
I0
sS'trials_2.thisTrialN'
p1270
I82
sg774
g783
sg38
g42
sg36
g37
sg31
S'f'
sg43
g12
sS'trials_2.thisIndex'
p1271
g39
(g64
S'R\x00\x00\x00'
tRp1272
sg32
F1.9505447944320622
sg26
I999
sg778
Vr
sS'trials_2.thisN'
p1273
I82
sa(dp1274
g44
g45
sS'trials_2.thisRepN'
p1275
I0
sS'trials_2.thisTrialN'
p1276
I83
sg774
g775
sg38
g42
sg27
I0
sg36
g37
sg31
S'a'
sg43
g12
sS'trials_2.thisIndex'
p1277
g39
(g64
S'S\x00\x00\x00'
tRp1278
sS'trials_2.thisN'
p1279
I83
sg26
I5
sg778
Vb
sg32
F1.5512627084115138
sa(dp1280
g44
g45
sS'trials_2.thisRepN'
p1281
I0
sS'trials_2.thisTrialN'
p1282
I84
sg774
g775
sg38
g42
sg36
g37
sg31
S'f'
sg43
g12
sS'trials_2.thisIndex'
p1283
g39
(g64
S'T\x00\x00\x00'
tRp1284
sg32
F1.7677761579195703
sg26
I999
sg778
Vb
sS'trials_2.thisN'
p1285
I84
sa(dp1286
g44
g45
sS'trials_2.thisRepN'
p1287
I0
sS'trials_2.thisTrialN'
p1288
I85
sg774
g775
sg38
g42
sg27
I0
sg36
g37
sg31
S'f'
sg43
g12
sS'trials_2.thisIndex'
p1289
g39
(g64
S'U\x00\x00\x00'
tRp1290
sS'trials_2.thisN'
p1291
I85
sg26
I3
sg778
Vb
sg32
F1.4008376853075788
sa(dp1292
g44
g45
sS'trials_2.thisRepN'
p1293
I0
sS'trials_2.thisTrialN'
p1294
I86
sg774
g790
sg38
g42
sg36
g37
sg31
S'f'
sg43
g12
sS'trials_2.thisIndex'
p1295
g39
(g64
S'V\x00\x00\x00'
tRp1296
sg32
F1.9839290439670094
sg26
I999
sg778
Vo
sS'trials_2.thisN'
p1297
I86
sa(dp1298
g44
g45
sS'trials_2.thisRepN'
p1299
I0
sS'trials_2.thisTrialN'
p1300
I87
sg774
g790
sg38
g42
sg27
I0
sg36
g37
sg31
S'f'
sg43
g12
sS'trials_2.thisIndex'
p1301
g39
(g64
S'W\x00\x00\x00'
tRp1302
sS'trials_2.thisN'
p1303
I87
sg26
I6
sg778
Vo
sg32
F1.2843194610111368
sa(dp1304
g44
g45
sS'trials_2.thisRepN'
p1305
I0
sS'trials_2.thisTrialN'
p1306
I88
sg774
g775
sg38
g42
sg36
g37
sg31
S'f'
sg43
g12
sS'trials_2.thisIndex'
p1307
g39
(g64
S'X\x00\x00\x00'
tRp1308
sg32
F1.9177540466330356
sg26
I999
sg778
Vb
sS'trials_2.thisN'
p1309
I88
sa(dp1310
g44
g45
sS'trials_2.thisRepN'
p1311
I0
sS'trials_2.thisTrialN'
p1312
I89
sg774
g783
sg38
g42
sg27
I0
sg36
g37
sg31
S'a'
sg43
g12
sS'trials_2.thisIndex'
p1313
g39
(g64
S'Y\x00\x00\x00'
tRp1314
sS'trials_2.thisN'
p1315
I89
sg26
I4
sg778
Vr
sg32
F1.3340803422854606
sa(dp1316
g44
g45
sS'trials_2.thisRepN'
p1317
I0
sS'trials_2.thisTrialN'
p1318
I90
sg774
g790
sg38
g42
sg36
g37
sg31
S'f'
sg43
g12
sS'trials_2.thisIndex'
p1319
g39
(g64
S'Z\x00\x00\x00'
tRp1320
sg32
F1.5503969991125359
sg26
I999
sg778
Vo
sS'trials_2.thisN'
p1321
I90
sa(dp1322
g44
g45
sS'trials_2.thisRepN'
p1323
I0
sS'trials_2.thisTrialN'
p1324
I91
sg774
g790
sg38
g42
sg27
I0
sg36
g37
sg31
S'f'
sg43
g12
sS'trials_2.thisIndex'
p1325
g39
(g64
S'[\x00\x00\x00'
tRp1326
sS'trials_2.thisN'
p1327
I91
sg26
I5
sg778
Vo
sg32
F1.7504191327109311
sa(dp1328
g44
g45
sS'trials_2.thisRepN'
p1329
I0
sS'trials_2.thisTrialN'
p1330
I92
sg774
g775
sg38
g42
sg36
g37
sg31
S'f'
sg43
g12
sS'trials_2.thisIndex'
p1331
g39
(g64
S'\\\x00\x00\x00'
tRp1332
sg32
F3.0670799759207057
sg26
I999
sg778
Vb
sS'trials_2.thisN'
p1333
I92
sa(dp1334
g44
g45
sS'trials_2.thisRepN'
p1335
I0
sS'trials_2.thisTrialN'
p1336
I93
sg774
g775
sg38
g42
sg27
I0
sg36
g37
sg31
S'f'
sg43
g12
sS'trials_2.thisIndex'
p1337
g39
(g64
S']\x00\x00\x00'
tRp1338
sS'trials_2.thisN'
p1339
I93
sg26
I6
sg778
Vb
sg32
F1.3336760471179332
sa(dp1340
g44
g45
sS'trials_2.thisRepN'
p1341
I0
sS'trials_2.thisTrialN'
p1342
I94
sg774
g783
sg38
g42
sg36
g37
sg31
S'f'
sg43
g12
sS'trials_2.thisIndex'
p1343
g39
(g64
S'^\x00\x00\x00'
tRp1344
sg32
F1.7337899280526017
sg26
I4
sg778
Vr
sS'trials_2.thisN'
p1345
I94
sa(dp1346
g44
g45
sS'trials_2.thisRepN'
p1347
I0
sS'trials_2.thisTrialN'
p1348
I95
sg774
g790
sg38
g42
sg27
I0
sg36
g37
sg31
S'a'
sg43
g12
sS'trials_2.thisIndex'
p1349
g39
(g64
S'_\x00\x00\x00'
tRp1350
sS'trials_2.thisN'
p1351
I95
sg26
I999
sg778
Vo
sg32
F2.0506127570743047
sa(dp1352
g44
g45
sS'trials_2.thisRepN'
p1353
I0
sS'trials_2.thisTrialN'
p1354
I96
sg774
g790
sg38
g42
sg36
g37
sg31
S'f'
sg43
g12
sS'trials_2.thisIndex'
p1355
g39
(g64
S'`\x00\x00\x00'
tRp1356
sg32
F1.9342118943995956
sg26
I4
sg778
Vo
sS'trials_2.thisN'
p1357
I96
sa(dp1358
g44
g45
sS'trials_2.thisRepN'
p1359
I0
sS'trials_2.thisTrialN'
p1360
I97
sg774
g790
sg38
g42
sg27
I0
sg36
g37
sg31
S'f'
sg43
g12
sS'trials_2.thisIndex'
p1361
g39
(g64
S'a\x00\x00\x00'
tRp1362
sS'trials_2.thisN'
p1363
I97
sg26
I999
sg778
Vo
sg32
F2.3506747400751919
sa(dp1364
g44
g45
sS'trials_2.thisRepN'
p1365
I0
sS'trials_2.thisTrialN'
p1366
I98
sg774
g783
sg38
g42
sg36
g37
sg31
S'f'
sg43
g12
sS'trials_2.thisIndex'
p1367
g39
(g64
S'b\x00\x00\x00'
tRp1368
sg32
F1.217351045567284
sg26
I4
sg778
Vr
sS'trials_2.thisN'
p1369
I98
sa(dp1370
g44
g45
sS'trials_2.thisRepN'
p1371
I0
sS'trials_2.thisTrialN'
p1372
I99
sg774
g790
sg38
g42
sg27
I0
sg36
g37
sg31
S'a'
sg43
g12
sS'trials_2.thisIndex'
p1373
g39
(g64
S'c\x00\x00\x00'
tRp1374
sS'trials_2.thisN'
p1375
I99
sg26
I5
sg778
Vo
sg32
F2.3834177399901364
sa(dp1376
g44
g45
sS'trials_2.thisRepN'
p1377
I0
sS'trials_2.thisTrialN'
p1378
I100
sg774
g775
sg38
g42
sg36
g37
sg31
S'f'
sg43
g12
sS'trials_2.thisIndex'
p1379
g39
(g64
S'd\x00\x00\x00'
tRp1380
sg32
F4.0328545603913426
sg26
I4
sg778
Vb
sS'trials_2.thisN'
p1381
I100
sa(dp1382
g44
g45
sS'trials_2.thisRepN'
p1383
I0
sS'trials_2.thisTrialN'
p1384
I101
sg774
g790
sg38
g42
sg27
I0
sg36
g37
sg31
S'a'
sg43
g12
sS'trials_2.thisIndex'
p1385
g39
(g64
S'e\x00\x00\x00'
tRp1386
sS'trials_2.thisN'
p1387
I101
sg26
I3
sg778
Vo
sg32
F2.0833914563418148
sa(dp1388
g44
g45
sS'trials_2.thisRepN'
p1389
I0
sS'trials_2.thisTrialN'
p1390
I102
sg774
g790
sg38
g42
sg36
g37
sg31
S'f'
sg43
g12
sS'trials_2.thisIndex'
p1391
g39
(g64
S'f\x00\x00\x00'
tRp1392
sg32
F1.950257860885813
sg26
I5
sg778
Vo
sS'trials_2.thisN'
p1393
I102
sa(dp1394
g44
g45
sS'trials_2.thisRepN'
p1395
I0
sS'trials_2.thisTrialN'
p1396
I103
sg774
g790
sg38
g42
sg27
I0
sg36
g37
sg31
S'f'
sg43
g12
sS'trials_2.thisIndex'
p1397
g39
(g64
S'g\x00\x00\x00'
tRp1398
sS'trials_2.thisN'
p1399
I103
sg26
I4
sg778
Vo
sg32
F1.6511338783732299
sa(dp1400
g44
g45
sS'trials_2.thisRepN'
p1401
I0
sS'trials_2.thisTrialN'
p1402
I104
sg774
g775
sg38
g42
sg36
g37
sg31
S'f'
sg43
g12
sS'trials_2.thisIndex'
p1403
g39
(g64
S'h\x00\x00\x00'
tRp1404
sg32
F2.967047266389045
sg26
I999
sg778
Vb
sS'trials_2.thisN'
p1405
I104
sa(dp1406
g44
g45
sS'trials_2.thisRepN'
p1407
I0
sS'trials_2.thisTrialN'
p1408
I105
sg774
g775
sg38
g42
sg27
I0
sg36
g37
sg31
S'f'
sg43
g12
sS'trials_2.thisIndex'
p1409
g39
(g64
S'i\x00\x00\x00'
tRp1410
sS'trials_2.thisN'
p1411
I105
sg26
I5
sg778
Vb
sg32
F1.3009531280888496
sa(dp1412
g44
g45
sS'trials_2.thisRepN'
p1413
I0
sS'trials_2.thisTrialN'
p1414
I106
sg774
g790
sg38
g42
sg36
g37
sg31
S'f'
sg43
g12
sS'trials_2.thisIndex'
p1415
g39
(g64
S'j\x00\x00\x00'
tRp1416
sg32
F1.9338763204857514
sg26
I4
sg778
Vo
sS'trials_2.thisN'
p1417
I106
sa(dp1418
g44
g45
sS'trials_2.thisRepN'
p1419
I0
sS'trials_2.thisTrialN'
p1420
I107
sg774
g783
sg38
g42
sg27
I0
sg36
g37
sg31
S'a'
sg43
g12
sS'trials_2.thisIndex'
p1421
g39
(g64
S'k\x00\x00\x00'
tRp1422
sS'trials_2.thisN'
p1423
I107
sg26
I5
sg778
Vr
sg32
F2.2502033747489349
sa(dp1424
g44
g45
sS'trials_2.thisRepN'
p1425
I0
sS'trials_2.thisTrialN'
p1426
I108
sg774
g783
sg38
g42
sg36
g37
sg31
S'f'
sg43
g12
sS'trials_2.thisIndex'
p1427
g39
(g64
S'l\x00\x00\x00'
tRp1428
sg32
F1.6830183088591184
sg26
I4
sg778
Vr
sS'trials_2.thisN'
p1429
I108
sa(dp1430
g44
g45
sS'trials_2.thisRepN'
p1431
I0
sS'trials_2.thisTrialN'
p1432
I109
sg774
g775
sg38
g42
sg27
I0
sg36
g37
sg31
S'a'
sg43
g12
sS'trials_2.thisIndex'
p1433
g39
(g64
S'm\x00\x00\x00'
tRp1434
sS'trials_2.thisN'
p1435
I109
sg26
I6
sg778
Vb
sg32
F1.5839294009604146
sa(dp1436
g44
g45
sS'trials_2.thisRepN'
p1437
I0
sS'trials_2.thisTrialN'
p1438
I110
sg774
g775
sg38
g42
sg36
g37
sg31
S'f'
sg43
g12
sS'trials_2.thisIndex'
p1439
g39
(g64
S'n\x00\x00\x00'
tRp1440
sg32
F2.400418217915103
sg26
I999
sg778
Vb
sS'trials_2.thisN'
p1441
I110
sa(dp1442
g44
g45
sS'trials_2.thisRepN'
p1443
I0
sS'trials_2.thisTrialN'
p1444
I111
sg774
g775
sg38
g42
sg27
I0
sg36
g37
sg31
S'f'
sg43
g12
sS'trials_2.thisIndex'
p1445
g39
(g64
S'o\x00\x00\x00'
tRp1446
sS'trials_2.thisN'
p1447
I111
sg26
I6
sg778
Vb
sg32
F1.5332090995864291
sa(dp1448
g44
g45
sS'trials_2.thisRepN'
p1449
I0
sS'trials_2.thisTrialN'
p1450
I112
sg774
g783
sg38
g42
sg36
g37
sg31
S'f'
sg43
g12
sS'trials_2.thisIndex'
p1451
g39
(g64
S'p\x00\x00\x00'
tRp1452
sg32
F1.950476073178379
sg26
I3
sg778
Vr
sS'trials_2.thisN'
p1453
I112
sa(dp1454
g44
g45
sS'trials_2.thisRepN'
p1455
I0
sS'trials_2.thisTrialN'
p1456
I113
sg774
g790
sg38
g42
sg27
I0
sg36
g37
sg31
S'a'
sg43
g12
sS'trials_2.thisIndex'
p1457
g39
(g64
S'q\x00\x00\x00'
tRp1458
sS'trials_2.thisN'
p1459
I113
sg26
I4
sg778
Vo
sg32
F1.3671102757461995
sa(dp1460
g44
g45
sS'trials_2.thisRepN'
p1461
I0
sS'trials_2.thisTrialN'
p1462
I114
sg774
g790
sg38
g42
sg36
g37
sg31
S'f'
sg43
g12
sS'trials_2.thisIndex'
p1463
g39
(g64
S'r\x00\x00\x00'
tRp1464
sg32
F3.5990663726825005
sg26
I5
sg778
Vo
sS'trials_2.thisN'
p1465
I114
sa(dp1466
g44
g45
sS'trials_2.thisRepN'
p1467
I0
sS'trials_2.thisTrialN'
p1468
I115
sg774
g775
sg38
g42
sg27
I0
sg36
g37
sg31
S'a'
sg43
g12
sS'trials_2.thisIndex'
p1469
g39
(g64
S's\x00\x00\x00'
tRp1470
sS'trials_2.thisN'
p1471
I115
sg26
I3
sg778
Vb
sg32
F1.9005558835433476
sa(dp1472
g44
g45
sS'trials_2.thisRepN'
p1473
I0
sS'trials_2.thisTrialN'
p1474
I116
sg774
g775
sg38
g42
sg36
g37
sg31
S'f'
sg43
g12
sS'trials_2.thisIndex'
p1475
g39
(g64
S't\x00\x00\x00'
tRp1476
sg32
F1.6171289063458971
sg26
I999
sg778
Vb
sS'trials_2.thisN'
p1477
I116
sa(dp1478
g44
g45
sS'trials_2.thisRepN'
p1479
I0
sS'trials_2.thisTrialN'
p1480
I117
sg774
g775
sg38
g42
sg27
I0
sg36
g37
sg31
S'f'
sg43
g12
sS'trials_2.thisIndex'
p1481
g39
(g64
S'u\x00\x00\x00'
tRp1482
sS'trials_2.thisN'
p1483
I117
sg26
I3
sg778
Vb
sg32
F1.1675165343781373
sa(dp1484
g44
g45
sS'trials_2.thisRepN'
p1485
I0
sS'trials_2.thisTrialN'
p1486
I118
sg774
g783
sg38
g42
sg36
g37
sg31
S'f'
sg43
g12
sS'trials_2.thisIndex'
p1487
g39
(g64
S'v\x00\x00\x00'
tRp1488
sg32
F2.3002275387482314
sg26
I4
sg778
Vr
sS'trials_2.thisN'
p1489
I118
sa(dp1490
g44
g45
sS'trials_2.thisRepN'
p1491
I0
sS'trials_2.thisTrialN'
p1492
I119
sg774
g775
sg38
g42
sg27
I0
sg36
g37
sg31
S'a'
sg43
g12
sS'trials_2.thisIndex'
p1493
g39
(g64
S'w\x00\x00\x00'
tRp1494
sS'trials_2.thisN'
p1495
I119
sg26
I3
sg778
Vb
sg32
F1.4504330108343311
sasS'loops'
p1496
(lp1497
g1
(cpsychopy.data
TrialHandler
p1498
g3
NtRp1499
(dp1500
S'origin'
p1501
NsS'thisTrial'
p1502
(lp1503
sS'_exp'
p1504
I354561360
sg11
S'repeat_color_practice'
p1505
sg6
I-1
sS'thisRepN'
p1506
I2
sg33
I01
sg34
g35
sS'data'
p1507
g1
(cpsychopy.data
DataHandler
p1508
c__builtin__
dict
p1509
(dp1510
S'ran'
p1511
cnumpy.ma.core
_mareconstruct
p1512
(cnumpy.ma.core
MaskedArray
p1513
cnumpy
ndarray
p1514
(I0
tp1515
S'b'
tRp1516
(I1
(I1
I2
tg40
(S'f4'
I0
I1
tRp1517
(I3
S'<'
NNNI-1
I-1
I0
tbI00
S'\x00\x00\x80?\x00\x00\x80?'
S'\x00\x00'
Ntbsg21
cnumpy.core.multiarray
_reconstruct
p1518
(g1514
(I0
tS'b'
tRp1519
(I1
(I1
I2
tg40
(S'O4'
I0
I1
tRp1520
(I3
S'|'
NNNI-1
I-1
I63
tbI00
(lp1521
S'd'
aS'd'
atbsS'order'
p1522
g1512
(g1513
g1514
g1515
S'b'
tRp1523
(I1
(I1
I2
tg1517
I00
S'\x00\x00\x00\x00\x00\x00\x80?'
S'\x00\x00'
Ntbsg22
g1512
(g1513
g1514
g1515
S'b'
tRp1524
(I1
(I1
I2
tg1517
I00
S'\xc9\x9a\x01B\x1bE\x11A'
S'\x00\x00'
NtbstRp1525
(dp1526
S'isNumeric'
p1527
(dp1528
g1511
I01
sg21
I00
sg1522
I01
sg22
I01
ssS'trials'
p1529
g1499
sS'dataTypes'
p1530
(lp1531
g1511
ag1522
ag21
ag22
asS'dataShape'
p1532
(lp1533
I1
aI2
asbsS'method'
p1534
S'random'
p1535
sS'sequenceIndices'
p1536
g1518
(g1514
(I0
tS'b'
tRp1537
(I1
(I1
I2
tg64
I01
S'\x00\x00\x00\x00\x00\x00\x00\x00'
tbsS'finished'
p1538
I01
sS'nReps'
p1539
I2
sS'nRemaining'
p1540
I-1
sS'trialList'
p1541
(lp1542
NasS'seed'
p1543
NsS'thisIndex'
p1544
g429
sS'thisN'
p1545
I2
sS'thisTrialN'
p1546
I0
sS'nTotal'
p1547
I2
sbag1
(g1498
g3
NtRp1548
(dp1549
g1501
Nsg1502
(lp1550
sg1504
I354561360
sg11
S'repeat_color_practice_mini'
p1551
sg6
I-1
sg1506
I3
sg33
I01
sg34
g35
sg1507
g1
(g1508
g1509
(dp1552
g1511
g1512
(g1513
g1514
g1515
S'b'
tRp1553
(I1
(I1
I3
tg1517
I00
S'\x00\x00\x80?\x00\x00\x80?\x00\x00\x80?'
S'\x00\x00\x00'
Ntbsg28
g1512
(g1513
g1514
g1515
S'b'
tRp1554
(I1
(I1
I3
tg1517
I00
S'\x00\x00\x00\x00w\xb5<A&Fv@'
S'\x01\x00\x00'
Ntbsg1522
g1512
(g1513
g1514
g1515
S'b'
tRp1555
(I1
(I1
I3
tg1517
I00
S'\x00\x00\x00\x00\x00\x00\x80?\x00\x00\x00@'
S'\x00\x00\x00'
Ntbsg23
g1518
(g1514
(I0
tS'b'
tRp1556
(I1
(I1
I3
tg1520
I00
(lp1557
NaS'd'
aS'd'
atbstRp1558
(dp1559
g1527
(dp1560
g1511
I01
sg28
I01
sg1522
I01
sg23
I00
ssg1529
g1548
sg1530
(lp1561
g1511
ag1522
ag23
ag28
asg1532
(lp1562
I1
aI3
asbsg1534
g1535
sg1536
g1518
(g1514
(I0
tS'b'
tRp1563
(I1
(I1
I3
tg64
I01
S'\x00\x00\x00\x00\x00\x00\x00\x00\x00\x00\x00\x00'
tbsg1538
I01
sg1539
I3
sg1540
I-1
sg1541
(lp1564
Nasg1543
Nsg1544
g300
sg1545
I3
sg1546
I0
sg1547
I3
sbag1
(g1498
g3
NtRp1565
(dp1566
g1501
Nsg1502
(lp1567
sg1504
I354561360
sg11
S'trials_3'
p1568
sg6
I-1
sg1506
I1
sg33
I01
sg34
g35
sg1507
g1
(g1508
g1509
(dp1569
g27
g1512
(g1513
g1514
g1515
S'b'
tRp1570
(I1
(I8
I1
tg1517
I00
S'\x00\x00\x00\x00\x00\x00\x00\x00\x00\x00\x00\x00\x00\x00\x00\x00\x00\x00\x00\x00\x00\x00\x00\x00\x00\x00\x00\x00\x00\x00\x00\x00'
S'\x01\x00\x01\x00\x01\x00\x01\x00'
Ntbsg25
g1512
(g1513
g1514
g1515
S'b'
tRp1571
(I1
(I8
I1
tg1517
I00
S'%\r6A\x08C\xcd@\x7f\xc9\xad@\xd7$#@\x84\x07\xd1?\xe3-\x03@\xfaZ\xc6?\t\x96\xd9?'
S'\x00\x00\x00\x00\x00\x00\x00\x00'
Ntbsg24
g1518
(g1514
(I0
tS'b'
tRp1572
(I1
(I8
I1
tg1520
I00
(lp1573
S'f'
aS'f'
aS'f'
aS'a'
aS'f'
aS'f'
aS'f'
aS'f'
atbsg1511
g1512
(g1513
g1514
g1515
S'b'
tRp1574
(I1
(I8
I1
tg1517
I00
S'\x00\x00\x80?\x00\x00\x80?\x00\x00\x80?\x00\x00\x80?\x00\x00\x80?\x00\x00\x80?\x00\x00\x80?\x00\x00\x80?'
S'\x00\x00\x00\x00\x00\x00\x00\x00'
Ntbsg26
g1512
(g1513
g1514
g1515
S'b'
tRp1575
(I1
(I8
I1
tg1517
I00
S'\x00\x00@@\x00\xc0yD\x00\x00\xa0@\x00\xc0yD\x00\x00\x80@\x00\x00\xc0@\x00\x00\xa0@\x00\x00@@'
S'\x00\x00\x00\x00\x00\x00\x00\x00'
Ntbsg1522
g1512
(g1513
g1514
g1515
S'b'
tRp1576
(I1
(I8
I1
tg1517
I00
S'\x00\x00\x00\x00\x00\x00\x80?\x00\x00\x00@\x00\x00@@\x00\x00\x80@\x00\x00\xa0@\x00\x00\xc0@\x00\x00\xe0@'
S'\x00\x00\x00\x00\x00\x00\x00\x00'
NtbstRp1577
(dp1578
g1527
(dp1579
g24
I00
sg1511
I01
sg26
I01
sg27
I01
sg25
I01
sg1522
I01
ssg1529
g1565
sg1530
(lp1580
g1511
ag1522
ag24
ag25
ag26
ag27
asg1532
(lp1581
I8
aI1
asbsg1534
S'sequential'
p1582
sg1536
g1518
(g1514
(I0
tS'b'
tRp1583
(I1
(I8
I1
tg64
I00
S'\x00\x00\x00\x00\x01\x00\x00\x00\x02\x00\x00\x00\x03\x00\x00\x00\x04\x00\x00\x00\x05\x00\x00\x00\x06\x00\x00\x00\x07\x00\x00\x00'
tbsg1538
I01
sg1539
I1
sg1540
I-1
sg1541
(lp1584
g1
(cpsychopy.data
TrialType
p1585
g1509
(dp1586
g54
g72
sg55
Vr
stRp1587
ag1
(g1585
g1509
(dp1588
g54
g72
sg55
Vr
stRp1589
ag1
(g1585
g1509
(dp1590
g54
g107
sg55
Vo
stRp1591
ag1
(g1585
g1509
(dp1592
g54
g117
sg55
Vb
stRp1593
ag1
(g1585
g1509
(dp1594
g54
g117
sg55
Vb
stRp1595
ag1
(g1585
g1509
(dp1596
g54
g117
sg55
Vb
stRp1597
ag1
(g1585
g1509
(dp1598
g54
g107
sg55
Vo
stRp1599
ag1
(g1585
g1509
(dp1600
g54
g107
sg55
Vo
stRp1601
asg1543
Nsg1544
g171
sg1545
I8
sg1546
I0
sg1547
I8
sbag1
(g1498
g3
NtRp1602
(dp1603
g1501
Nsg1502
(lp1604
sg1504
I354561360
sg11
g1568
sg6
I-1
sg1506
I1
sg33
I01
sg34
g35
sg1507
g1
(g1508
g1509
(dp1605
g27
g1512
(g1513
g1514
g1515
S'b'
tRp1606
(I1
(I8
I1
tg1517
I00
S'\x00\x00\x00\x00\x00\x00\x00\x00\x00\x00\x00\x00\x00\x00\x00\x00\x00\x00\x00\x00\x00\x00\x00\x00\x00\x00\x00\x00\x00\x00\x00\x00'
S'\x01\x00\x01\x00\x01\x00\x01\x00'
Ntbsg25
g1512
(g1513
g1514
g1515
S'b'
tRp1607
(I1
(I8
I1
tg1517
I00
S'\x10\x1er@\xff\xbe\xdb?\x88B$@\x82\x7f\xd7?\xfb\xdf\xbd?(\xd7\xdd?\xb3\xc6\x0c@\x90\xf4\xce?'
S'\x00\x00\x00\x00\x00\x00\x00\x00'
Ntbsg24
g1518
(g1514
(I0
tS'b'
tRp1608
(I1
(I8
I1
tg1520
I00
(lp1609
S'f'
aS'a'
aS'f'
aS'a'
aS'f'
aS'f'
aS'f'
aS'a'
atbsg1511
g1512
(g1513
g1514
g1515
S'b'
tRp1610
(I1
(I8
I1
tg1517
I00
S'\x00\x00\x80?\x00\x00\x80?\x00\x00\x80?\x00\x00\x80?\x00\x00\x80?\x00\x00\x80?\x00\x00\x80?\x00\x00\x80?'
S'\x00\x00\x00\x00\x00\x00\x00\x00'
Ntbsg26
g1512
(g1513
g1514
g1515
S'b'
tRp1611
(I1
(I8
I1
tg1517
I00
S'\x00\xc0yD\x00\x00\x80@\x00\xc0yD\x00\x00\x80@\x00\x00\xa0@\x00\x00\xc0@\x00\xc0yD\x00\x00\x80@'
S'\x00\x00\x00\x00\x00\x00\x00\x00'
Ntbsg1522
g1512
(g1513
g1514
g1515
S'b'
tRp1612
(I1
(I8
I1
tg1517
I00
S'\x00\x00\x00\x00\x00\x00\x80?\x00\x00\x00@\x00\x00@@\x00\x00\x80@\x00\x00\xa0@\x00\x00\xc0@\x00\x00\xe0@'
S'\x00\x00\x00\x00\x00\x00\x00\x00'
NtbstRp1613
(dp1614
g1527
(dp1615
g24
I00
sg1511
I01
sg26
I01
sg27
I01
sg25
I01
sg1522
I01
ssg1529
g1602
sg1530
(lp1616
g1511
ag1522
ag24
ag25
ag26
ag27
asg1532
(lp1617
I8
aI1
asbsg1534
g1582
sg1536
g1518
(g1514
(I0
tS'b'
tRp1618
(I1
(I8
I1
tg64
I00
S'\x00\x00\x00\x00\x01\x00\x00\x00\x02\x00\x00\x00\x03\x00\x00\x00\x04\x00\x00\x00\x05\x00\x00\x00\x06\x00\x00\x00\x07\x00\x00\x00'
tbsg1538
I01
sg1539
I1
sg1540
I-1
sg1541
(lp1619
g1
(g1585
g1509
(dp1620
g189
g190
sg196
Vr
stRp1621
ag1
(g1585
g1509
(dp1622
g189
g206
sg196
Vb
stRp1623
ag1
(g1585
g1509
(dp1624
g189
g190
sg196
Vr
stRp1625
ag1
(g1585
g1509
(dp1626
g189
g235
sg196
Vo
stRp1627
ag1
(g1585
g1509
(dp1628
g189
g206
sg196
Vb
stRp1629
ag1
(g1585
g1509
(dp1630
g189
g206
sg196
Vb
stRp1631
ag1
(g1585
g1509
(dp1632
g189
g235
sg196
Vo
stRp1633
ag1
(g1585
g1509
(dp1634
g189
g190
sg196
Vr
stRp1635
asg1543
Nsg1544
g289
sg1545
I8
sg1546
I0
sg1547
I8
sbag1
(g1498
g3
NtRp1636
(dp1637
g1501
Nsg1502
(lp1638
sg1504
I354561360
sg11
g1568
sg6
I-1
sg1506
I1
sg33
I01
sg34
g35
sg1507
g1
(g1508
g1509
(dp1639
g27
g1512
(g1513
g1514
g1515
S'b'
tRp1640
(I1
(I8
I1
tg1517
I00
S'\x00\x00\x00\x00\x00\x00\x00\x00\x00\x00\x00\x00\x00\x00\x00\x00\x00\x00\x00\x00\x00\x00\x00\x00\x00\x00\x00\x00\x00\x00\x00\x00'
S'\x01\x00\x01\x00\x01\x00\x01\x00'
Ntbsg25
g1512
(g1513
g1514
g1515
S'b'
tRp1641
(I1
(I8
I1
tg1517
I00
S'\xfcoG@\xfb\xf7\xee?\x17R\x05@X\xd4M@\xff\xdf\xdf?\xe8(\xe2?\xfb\xf3\xdd?\xe6\xe9\xee?'
S'\x00\x00\x00\x00\x00\x00\x00\x00'
Ntbsg24
g1518
(g1514
(I0
tS'b'
tRp1642
(I1
(I8
I1
tg1520
I00
(lp1643
S'f'
aS'f'
aS'f'
aS'a'
aS'f'
aS'a'
aS'f'
aS'f'
atbsg1511
g1512
(g1513
g1514
g1515
S'b'
tRp1644
(I1
(I8
I1
tg1517
I00
S'\x00\x00\x80?\x00\x00\x80?\x00\x00\x80?\x00\x00\x80?\x00\x00\x80?\x00\x00\x80?\x00\x00\x80?\x00\x00\x80?'
S'\x00\x00\x00\x00\x00\x00\x00\x00'
Ntbsg26
g1512
(g1513
g1514
g1515
S'b'
tRp1645
(I1
(I8
I1
tg1517
I00
S'\x00\x00\xa0@\x00\x00@@\x00\xc0yD\x00\x00@@\x00\x00\xc0@\x00\x00\x80@\x00\xc0yD\x00\x00@@'
S'\x00\x00\x00\x00\x00\x00\x00\x00'
Ntbsg1522
g1512
(g1513
g1514
g1515
S'b'
tRp1646
(I1
(I8
I1
tg1517
I00
S'\x00\x00\x00\x00\x00\x00\x80?\x00\x00\x00@\x00\x00@@\x00\x00\x80@\x00\x00\xa0@\x00\x00\xc0@\x00\x00\xe0@'
S'\x00\x00\x00\x00\x00\x00\x00\x00'
NtbstRp1647
(dp1648
g1527
(dp1649
g24
I00
sg1511
I01
sg26
I01
sg27
I01
sg25
I01
sg1522
I01
ssg1529
g1636
sg1530
(lp1650
g1511
ag1522
ag24
ag25
ag26
ag27
asg1532
(lp1651
I8
aI1
asbsg1534
g1582
sg1536
g1518
(g1514
(I0
tS'b'
tRp1652
(I1
(I8
I1
tg64
I00
S'\x00\x00\x00\x00\x01\x00\x00\x00\x02\x00\x00\x00\x03\x00\x00\x00\x04\x00\x00\x00\x05\x00\x00\x00\x06\x00\x00\x00\x07\x00\x00\x00'
tbsg1538
I01
sg1539
I1
sg1540
I-1
sg1541
(lp1653
g1
(g1585
g1509
(dp1654
g307
g308
sg314
Vo
stRp1655
ag1
(g1585
g1509
(dp1656
g307
g308
sg314
Vo
stRp1657
ag1
(g1585
g1509
(dp1658
g307
g343
sg314
Vr
stRp1659
ag1
(g1585
g1509
(dp1660
g307
g353
sg314
Vb
stRp1661
ag1
(g1585
g1509
(dp1662
g307
g308
sg314
Vo
stRp1663
ag1
(g1585
g1509
(dp1664
g307
g353
sg314
Vb
stRp1665
ag1
(g1585
g1509
(dp1666
g307
g343
sg314
Vr
stRp1667
ag1
(g1585
g1509
(dp1668
g307
g343
sg314
Vr
stRp1669
asg1543
Nsg1544
g407
sg1545
I8
sg1546
I0
sg1547
I8
sbag1
(g1498
g3
NtRp1670
(dp1671
g1501
Nsg1502
(lp1672
sg1504
I354561360
sg11
g1551
sg6
I-1
sg1506
I3
sg33
I01
sg34
g35
sg1507
g1
(g1508
g1509
(dp1673
g1511
g1512
(g1513
g1514
g1515
S'b'
tRp1674
(I1
(I1
I3
tg1517
I00
S'\x00\x00\x80?\x00\x00\x80?\x00\x00\x80?'
S'\x00\x00\x00'
Ntbsg28
g1512
(g1513
g1514
g1515
S'b'
tRp1675
(I1
(I1
I3
tg1517
I00
S'\x00\x00\x00\x00B\xaa\x93@\xfaH\x8d@'
S'\x01\x00\x00'
Ntbsg1522
g1512
(g1513
g1514
g1515
S'b'
tRp1676
(I1
(I1
I3
tg1517
I00
S'\x00\x00\x00\x00\x00\x00\x80?\x00\x00\x00@'
S'\x00\x00\x00'
Ntbsg23
g1518
(g1514
(I0
tS'b'
tRp1677
(I1
(I1
I3
tg1520
I00
(lp1678
NaS'd'
aS'd'
atbstRp1679
(dp1680
g1527
(dp1681
g1511
I01
sg28
I01
sg1522
I01
sg23
I00
ssg1529
g1670
sg1530
(lp1682
g1511
ag1522
ag23
ag28
asg1532
(lp1683
I1
aI3
asbsg1534
g1535
sg1536
g1518
(g1514
(I0
tS'b'
tRp1684
(I1
(I1
I3
tg64
I01
S'\x00\x00\x00\x00\x00\x00\x00\x00\x00\x00\x00\x00'
tbsg1538
I01
sg1539
I3
sg1540
I-1
sg1541
(lp1685
Nasg1543
Nsg1544
g655
sg1545
I3
sg1546
I0
sg1547
I3
sbag1
(g1498
g3
NtRp1686
(dp1687
g1501
Nsg1502
(lp1688
sg1504
I354561360
sg11
g1568
sg6
I-1
sg1506
I1
sg33
I01
sg34
g35
sg1507
g1
(g1508
g1509
(dp1689
g27
g1512
(g1513
g1514
g1515
S'b'
tRp1690
(I1
(I8
I1
tg1517
I00
S'\x00\x00\x00\x00\x00\x00\x00\x00\x00\x00\x00\x00\x00\x00\x00\x00\x00\x00\x00\x00\x00\x00\x00\x00\x00\x00\x00\x00\x00\x00\x00\x00'
S'\x01\x00\x01\x00\x01\x00\x01\x00'
Ntbsg25
g1512
(g1513
g1514
g1515
S'b'
tRp1691
(I1
(I8
I1
tg1517
I00
S'\x88\x18"@q\xa2\xea?\xcf$\xf3?\xb9\x1e\xd1?\xd6j\x07@d\xb3+@"\xd7^@\x82f\x1fA'
S'\x00\x00\x00\x00\x00\x00\x00\x00'
Ntbsg24
g1518
(g1514
(I0
tS'b'
tRp1692
(I1
(I8
I1
tg1520
I00
(lp1693
S'f'
aS'f'
aS'f'
aS'a'
aS'f'
aS'f'
aS'f'
aS'f'
atbsg1511
g1512
(g1513
g1514
g1515
S'b'
tRp1694
(I1
(I8
I1
tg1517
I00
S'\x00\x00\x80?\x00\x00\x80?\x00\x00\x80?\x00\x00\x80?\x00\x00\x80?\x00\x00\x80?\x00\x00\x80?\x00\x00\x80?'
S'\x00\x00\x00\x00\x00\x00\x00\x00'
Ntbsg26
g1512
(g1513
g1514
g1515
S'b'
tRp1695
(I1
(I8
I1
tg1517
I00
S'\x00\xc0yD\x00\x00\xc0@\x00\xc0yD\x00\x00\xa0@\x00\x00\xc0@\x00\x00\x80@\x00\x00@@\x00\x00\x80@'
S'\x00\x00\x00\x00\x00\x00\x00\x00'
Ntbsg1522
g1512
(g1513
g1514
g1515
S'b'
tRp1696
(I1
(I8
I1
tg1517
I00
S'\x00\x00\x00\x00\x00\x00\x80?\x00\x00\x00@\x00\x00@@\x00\x00\x80@\x00\x00\xa0@\x00\x00\xc0@\x00\x00\xe0@'
S'\x00\x00\x00\x00\x00\x00\x00\x00'
NtbstRp1697
(dp1698
g1527
(dp1699
g24
I00
sg1511
I01
sg26
I01
sg27
I01
sg25
I01
sg1522
I01
ssg1529
g1686
sg1530
(lp1700
g1511
ag1522
ag24
ag25
ag26
ag27
asg1532
(lp1701
I8
aI1
asbsg1534
g1582
sg1536
g1518
(g1514
(I0
tS'b'
tRp1702
(I1
(I8
I1
tg64
I00
S'\x00\x00\x00\x00\x01\x00\x00\x00\x02\x00\x00\x00\x03\x00\x00\x00\x04\x00\x00\x00\x05\x00\x00\x00\x06\x00\x00\x00\x07\x00\x00\x00'
tbsg1538
I01
sg1539
I1
sg1540
I-1
sg1541
(lp1703
g1
(g1585
g1509
(dp1704
g425
g426
sg433
Vb
stRp1705
ag1
(g1585
g1509
(dp1706
g425
g426
sg433
Vb
stRp1707
ag1
(g1585
g1509
(dp1708
g425
g462
sg433
Vr
stRp1709
ag1
(g1585
g1509
(dp1710
g425
g472
sg433
Vo
stRp1711
ag1
(g1585
g1509
(dp1712
g425
g462
sg433
Vr
stRp1713
ag1
(g1585
g1509
(dp1714
g425
g462
sg433
Vr
stRp1715
ag1
(g1585
g1509
(dp1716
g425
g472
sg433
Vo
stRp1717
ag1
(g1585
g1509
(dp1718
g425
g472
sg433
Vo
stRp1719
asg1543
Nsg1544
g526
sg1545
I8
sg1546
I0
sg1547
I8
sbag1
(g1498
g3
NtRp1720
(dp1721
g1501
Nsg1502
(lp1722
sg1504
I354561360
sg11
g1568
sg6
I-1
sg1506
I1
sg33
I01
sg34
g35
sg1507
g1
(g1508
g1509
(dp1723
g27
g1512
(g1513
g1514
g1515
S'b'
tRp1724
(I1
(I8
I1
tg1517
I00
S'\x00\x00\x00\x00\x00\x00\x00\x00\x00\x00\x00\x00\x00\x00\x00\x00\x00\x00\x00\x00\x00\x00\x00\x00\x00\x00\x00\x00\x00\x00\x00\x00'
S'\x01\x00\x01\x00\x01\x00\x01\x00'
Ntbsg25
g1512
(g1513
g1514
g1515
S'b'
tRp1725
(I1
(I8
I1
tg1517
I00
S'[\xb7\xec@\xc3}\xe8?G\x98:@\x15\xb6\x1b@\x9f\xb0+@jC\xc4?\x92\x05\x11@\xa7iG@'
S'\x00\x00\x00\x00\x00\x00\x00\x00'
Ntbsg24
g1518
(g1514
(I0
tS'b'
tRp1726
(I1
(I8
I1
tg1520
I00
(lp1727
S'f'
aS'a'
aS'f'
aS'f'
aS'f'
aS'a'
aS'f'
aS'a'
atbsg1511
g1512
(g1513
g1514
g1515
S'b'
tRp1728
(I1
(I8
I1
tg1517
I00
S'\x00\x00\x80?\x00\x00\x80?\x00\x00\x80?\x00\x00\x80?\x00\x00\x80?\x00\x00\x80?\x00\x00\x80?\x00\x00\x80?'
S'\x00\x00\x00\x00\x00\x00\x00\x00'
Ntbsg26
g1512
(g1513
g1514
g1515
S'b'
tRp1729
(I1
(I8
I1
tg1517
I00
S'\x00\xc0yD\x00\x00\xc0@\x00\x00@@\x00\x00\xa0@\x00\x00\xc0@\x00\x00\xa0@\x00\x00@@\x00\x00\xa0@'
S'\x00\x00\x00\x00\x00\x00\x00\x00'
Ntbsg1522
g1512
(g1513
g1514
g1515
S'b'
tRp1730
(I1
(I8
I1
tg1517
I00
S'\x00\x00\x00\x00\x00\x00\x80?\x00\x00\x00@\x00\x00@@\x00\x00\x80@\x00\x00\xa0@\x00\x00\xc0@\x00\x00\xe0@'
S'\x00\x00\x00\x00\x00\x00\x00\x00'
NtbstRp1731
(dp1732
g1527
(dp1733
g24
I00
sg1511
I01
sg26
I01
sg27
I01
sg25
I01
sg1522
I01
ssg1529
g1720
sg1530
(lp1734
g1511
ag1522
ag24
ag25
ag26
ag27
asg1532
(lp1735
I8
aI1
asbsg1534
g1582
sg1536
g1518
(g1514
(I0
tS'b'
tRp1736
(I1
(I8
I1
tg64
I00
S'\x00\x00\x00\x00\x01\x00\x00\x00\x02\x00\x00\x00\x03\x00\x00\x00\x04\x00\x00\x00\x05\x00\x00\x00\x06\x00\x00\x00\x07\x00\x00\x00'
tbsg1538
I01
sg1539
I1
sg1540
I-1
sg1541
(lp1737
g1
(g1585
g1509
(dp1738
g544
g545
sg551
Vo
stRp1739
ag1
(g1585
g1509
(dp1740
g544
g561
sg551
Vb
stRp1741
ag1
(g1585
g1509
(dp1742
g544
g581
sg551
Vo
stRp1743
ag1
(g1585
g1509
(dp1744
g544
g581
sg551
Vo
stRp1745
ag1
(g1585
g1509
(dp1746
g544
g545
sg551
Vr
stRp1747
ag1
(g1585
g1509
(dp1748
g544
g561
sg551
Vb
stRp1749
ag1
(g1585
g1509
(dp1750
g544
g561
sg551
Vb
stRp1751
ag1
(g1585
g1509
(dp1752
g544
g545
sg551
Vr
stRp1753
asg1543
Nsg1544
g644
sg1545
I8
sg1546
I0
sg1547
I8
sbag1
(g1498
g3
NtRp1754
(dp1755
g1501
Nsg1502
(lp1756
sg1504
I354561360
sg11
g1568
sg6
I-1
sg1506
I1
sg33
I01
sg34
g35
sg1507
g1
(g1508
g1509
(dp1757
g27
g1512
(g1513
g1514
g1515
S'b'
tRp1758
(I1
(I8
I1
tg1517
I00
S'\x00\x00\x00\x00\x00\x00\x00\x00\x00\x00\x00\x00\x00\x00\x00\x00\x00\x00\x00\x00\x00\x00\x00\x00\x00\x00\x00\x00\x00\x00\x00\x00'
S'\x01\x00\x01\x00\x01\x00\x01\x00'
Ntbsg25
g1512
(g1513
g1514
g1515
S'b'
tRp1759
(I1
(I8
I1
tg1517
I00
S'\xe1VF@E\x1a"@L\x83\xf9?\xca\x7f\xd7?N$\x02@\x8cb\xe6?Wo7@~\x88\x08@'
S'\x00\x00\x00\x00\x00\x00\x00\x00'
Ntbsg24
g1518
(g1514
(I0
tS'b'
tRp1760
(I1
(I8
I1
tg1520
I00
(lp1761
S'f'
aS'a'
aS'f'
aS'a'
aS'f'
aS'f'
aS'f'
aS'f'
atbsg1511
g1512
(g1513
g1514
g1515
S'b'
tRp1762
(I1
(I8
I1
tg1517
I00
S'\x00\x00\x80?\x00\x00\x80?\x00\x00\x80?\x00\x00\x80?\x00\x00\x80?\x00\x00\x80?\x00\x00\x80?\x00\x00\x80?'
S'\x00\x00\x00\x00\x00\x00\x00\x00'
Ntbsg26
g1512
(g1513
g1514
g1515
S'b'
tRp1763
(I1
(I8
I1
tg1517
I00
S'\x00\x00\xa0@\x00\x00\x80@\x00\x00\xa0@\x00\x00\x80@\x00\xc0yD\x00\x00\xc0@\x00\xc0yD\x00\x00\xc0@'
S'\x00\x00\x00\x00\x00\x00\x00\x00'
Ntbsg1522
g1512
(g1513
g1514
g1515
S'b'
tRp1764
(I1
(I8
I1
tg1517
I00
S'\x00\x00\x00\x00\x00\x00\x80?\x00\x00\x00@\x00\x00@@\x00\x00\x80@\x00\x00\xa0@\x00\x00\xc0@\x00\x00\xe0@'
S'\x00\x00\x00\x00\x00\x00\x00\x00'
NtbstRp1765
(dp1766
g1527
(dp1767
g24
I00
sg1511
I01
sg26
I01
sg27
I01
sg25
I01
sg1522
I01
ssg1529
g1754
sg1530
(lp1768
g1511
ag1522
ag24
ag25
ag26
ag27
asg1532
(lp1769
I8
aI1
asbsg1534
g1582
sg1536
g1518
(g1514
(I0
tS'b'
tRp1770
(I1
(I8
I1
tg64
I00
S'\x00\x00\x00\x00\x01\x00\x00\x00\x02\x00\x00\x00\x03\x00\x00\x00\x04\x00\x00\x00\x05\x00\x00\x00\x06\x00\x00\x00\x07\x00\x00\x00'
tbsg1538
I01
sg1539
I1
sg1540
I-1
sg1541
(lp1771
g1
(g1585
g1509
(dp1772
g662
g663
sg669
Vr
stRp1773
ag1
(g1585
g1509
(dp1774
g662
g679
sg669
Vo
stRp1775
ag1
(g1585
g1509
(dp1776
g662
g699
sg669
Vb
stRp1777
ag1
(g1585
g1509
(dp1778
g662
g679
sg669
Vo
stRp1779
ag1
(g1585
g1509
(dp1780
g662
g663
sg669
Vr
stRp1781
ag1
(g1585
g1509
(dp1782
g662
g663
sg669
Vr
stRp1783
ag1
(g1585
g1509
(dp1784
g662
g699
sg669
Vb
stRp1785
ag1
(g1585
g1509
(dp1786
g662
g699
sg669
Vb
stRp1787
asg1543
Nsg1544
g762
sg1545
I8
sg1546
I0
sg1547
I8
sbag1
(g1498
g3
NtRp1788
(dp1789
g1501
Nsg1502
(lp1790
sg1504
I354561360
sg11
S'trials_2'
p1791
sg6
I-1
sg1506
I1
sg33
I01
sg34
g35
sg1507
g1
(g1508
g1509
(dp1792
g27
g1512
(g1513
g1514
g1515
S'b'
tRp1793
(I1
(I120
I1
tg1517
I00
S'\x00\x00\x00\x00\x00\x00\x00\x00\x00\x00\x00\x00\x00\x00\x00\x00\x00\x00\x00\x00\x00\x00\x00\x00\x00\x00\x00\x00\x00\x00\x00\x00\x00\x00\x00\x00\x00\x00\x00\x00\x00\x00\x00\x00\x00\x00\x00\x00\x00\x00\x00\x00\x00\x00\x00\x00\x00\x00\x00\x00\x00\x00\x00\x00\x00\x00\x00\x00\x00\x00\x00\x00\x00\x00\x00\x00\x00\x00\x00\x00\x00\x00\x00\x00\x00\x00\x00\x00\x00\x00\x00\x00\x00\x00\x00\x00\x00\x00\x00\x00\x00\x00\x00\x00\x00\x00\x00\x00\x00\x00\x00\x00\x00\x00\x00\x00\x00\x00\x00\x00\x00\x00\x00\x00\x00\x00\x00\x00\x00\x00\x00\x00\x00\x00\x00\x00\x00\x00\x00\x00\x00\x00\x00\x00\x00\x00\x00\x00\x00\x00\x00\x00\x00\x00\x00\x00\x00\x00\x00\x00\x00\x00\x00\x00\x00\x00\x00\x00\x00\x00\x00\x00\x00\x00\x00\x00\x00\x00\x00\x00\x00\x00\x00\x00\x00\x00\x00\x00\x00\x00\x00\x00\x00\x00\x00\x00\x00\x00\x00\x00\x00\x00\x00\x00\x00\x00\x00\x00\x00\x00\x00\x00\x00\x00\x00\x00\x00\x00\x00\x00\x00\x00\x00\x00\x00\x00\x00\x00\x00\x00\x00\x00\x00\x00\x00\x00\x00\x00\x00\x00\x00\x00\x00\x00\x00\x00\x00\x00\x00\x00\x00\x00\x00\x00\x00\x00\x00\x00\x00\x00\x00\x00\x00\x00\x00\x00\x00\x00\x00\x00\x00\x00\x00\x00\x00\x00\x00\x00\x00\x00\x00\x00\x00\x00\x00\x00\x00\x00\x00\x00\x00\x00\x00\x00\x00\x00\x00\x00\x00\x00\x00\x00\x00\x00\x00\x00\x00\x00\x00\x00\x00\x00\x00\x00\x00\x00\x00\x00\x00\x00\x00\x00\x00\x00\x00\x00\x00\x00\x00\x00\x00\x00\x00\x00\x00\x00\x00\x00\x00\x00\x00\x00\x00\x00\x00\x00\x00\x00\x00\x00\x00\x00\x00\x00\x00\x00\x00\x00\x00\x00\x00\x00\x00\x00\x00\x00\x00\x00\x00\x00\x00\x00\x00\x00\x00\x00\x00\x00\x00\x00\x00\x00\x00\x00\x00\x00\x00\x00\x00\x00\x00\x00\x00\x00\x00\x00\x00\x00\x00\x00\x00\x00\x00\x00\x00\x00\x00\x00\x00\x00\x00\x00\x00\x00\x00\x00\x00\x00\x00\x00\x00\x00\x00\x00\x00\x00\x00\x00\x00\x00\x00\x00\x00\x00\x00\x00\x00\x00\x00\x00\x00\x00\x00\x00\x00\x00\x00\x00\x00\x00\x00\x00\x00\x00\x00\x00\x00\x00\x00\x00\x00\x00\x00\x00\x00\x00\x00\x00\x00\x00\x00\x00\x00\x00\x00\x00\x00\x00\x00\x00'
S'\x01\x00\x01\x00\x01\x00\x01\x00\x01\x00\x01\x00\x01\x00\x01\x00\x01\x00\x01\x00\x01\x00\x01\x00\x01\x00\x01\x00\x01\x00\x01\x00\x01\x00\x01\x00\x01\x00\x01\x00\x01\x00\x01\x00\x01\x00\x01\x00\x01\x00\x01\x00\x01\x00\x01\x00\x01\x00\x01\x00\x01\x00\x01\x00\x01\x00\x01\x00\x01\x00\x01\x00\x01\x00\x01\x00\x01\x00\x01\x00\x01\x00\x01\x00\x01\x00\x01\x00\x01\x00\x01\x00\x01\x00\x01\x00\x01\x00\x01\x00\x01\x00\x01\x00\x01\x00\x01\x00\x01\x00\x01\x00\x01\x00\x01\x00\x01\x00\x01\x00'
Ntbsg31
g1518
(g1514
(I0
tS'b'
tRp1794
(I1
(I120
I1
tg1520
I00
(lp1795
S'f'
aS'a'
aS'f'
aS'a'
aS'f'
aS'a'
aS'f'
aS'f'
aS'f'
aS'f'
aS'f'
aS'a'
aS'f'
aS'a'
aS'f'
aS'f'
aS'f'
aS'a'
aS'f'
aS'a'
aS'f'
aS'f'
aS'f'
aS'f'
aS'f'
aS'a'
aS'f'
aS'f'
aS'f'
aS'f'
aS'f'
aS'a'
aS'f'
aS'a'
aS'f'
aS'f'
aS'f'
aS'a'
aS'f'
aS'f'
aS'f'
aS'f'
aS'f'
aS'a'
aS'f'
aS'a'
aS'f'
aS'f'
aS'f'
aS'f'
aS'f'
aS'a'
aS'f'
aS'f'
aS'f'
aS'a'
aS'f'
aS'a'
aS'f'
aS'f'
aS'f'
aS'a'
aS'f'
aS'f'
aS'f'
aS'f'
aS'f'
aS'a'
aS'f'
aS'a'
aS'f'
aS'f'
aS'f'
aS'f'
aS'f'
aS'a'
aS'f'
aS'f'
aS'f'
aS'f'
aS'f'
aS'a'
aS'f'
aS'a'
aS'f'
aS'f'
aS'f'
aS'f'
aS'f'
aS'a'
aS'f'
aS'f'
aS'f'
aS'f'
aS'f'
aS'a'
aS'f'
aS'f'
aS'f'
aS'a'
aS'f'
aS'a'
aS'f'
aS'f'
aS'f'
aS'f'
aS'f'
aS'a'
aS'f'
aS'a'
aS'f'
aS'f'
aS'f'
aS'a'
aS'f'
aS'a'
aS'f'
aS'f'
aS'f'
aS'a'
atbsg26
g1512
(g1513
g1514
g1515
S'b'
tRp1796
(I1
(I120
I1
tg1517
I00
S'\x00\x00\xc0@\x00\x00\xa0@\x00\x00\x80@\x00\x00\xc0@\x00\x00\x80@\x00\x00\xa0@\x00\x00@@\x00\x00\xc0@\x00\x00\xa0@\x00\x00@@\x00\x00\xc0@\x00\x00\xa0@\x00\xc0yD\x00\x00\xc0@\x00\x00@@\x00\x00\x80@\x00\x00\xa0@\x00\xc0yD\x00\x00@@\x00\x00\xa0@\x00\x00\x80@\x00\x00@@\x00\xc0yD\x00\x00\xa0@\x00\x00\x80@\x00\x00\xa0@\x00\x00\x80@\x00\x00@@\x00\x00\xa0@\x00\x00\x80@\x00\x00\xc0@\x00\xc0yD\x00\x00\xc0@\x00\x00\xa0@\x00\xc0yD\x00\x00\xa0@\x00\x00\x80@\x00\xc0yD\x00\x00\x80@\x00\xc0yD\x00\x00\xc0@\x00\xc0yD\x00\x00@@\x00\x00\xc0@\x00\x00\xa0@\x00\xc0yD\x00\x00@@\x00\x00\xc0@\x00\x00\x80@\x00\x00\xc0@\x00\x00\x80@\x00\xc0yD\x00\x00\xa0@\x00\x00\xc0@\x00\x00@@\x00\xc0yD\x00\x00\xa0@\x00\xc0yD\x00\x00\xa0@\x00\x00@@\x00\x00\xa0@\x00\xc0yD\x00\x00\x80@\x00\xc0yD\x00\x00\x80@\x00\x00\xc0@\x00\xc0yD\x00\x00\x80@\x00\xc0yD\x00\x00@@\x00\x00\xc0@\x00\x00@@\x00\x00\x80@\x00\x00@@\x00\x00\xa0@\x00\xc0yD\x00\x00\xc0@\x00\x00\x80@\x00\xc0yD\x00\x00\xa0@\x00\x00\x80@\x00\x00\xc0@\x00\xc0yD\x00\x00\xa0@\x00\xc0yD\x00\x00@@\x00\xc0yD\x00\x00\xc0@\x00\xc0yD\x00\x00\x80@\x00\xc0yD\x00\x00\xa0@\x00\xc0yD\x00\x00\xc0@\x00\x00\x80@\x00\xc0yD\x00\x00\x80@\x00\xc0yD\x00\x00\x80@\x00\x00\xa0@\x00\x00\x80@\x00\x00@@\x00\x00\xa0@\x00\x00\x80@\x00\xc0yD\x00\x00\xa0@\x00\x00\x80@\x00\x00\xa0@\x00\x00\x80@\x00\x00\xc0@\x00\xc0yD\x00\x00\xc0@\x00\x00@@\x00\x00\x80@\x00\x00\xa0@\x00\x00@@\x00\xc0yD\x00\x00@@\x00\x00\x80@\x00\x00@@'
S'\x00\x00\x00\x00\x00\x00\x00\x00\x00\x00\x00\x00\x00\x00\x00\x00\x00\x00\x00\x00\x00\x00\x00\x00\x00\x00\x00\x00\x00\x00\x00\x00\x00\x00\x00\x00\x00\x00\x00\x00\x00\x00\x00\x00\x00\x00\x00\x00\x00\x00\x00\x00\x00\x00\x00\x00\x00\x00\x00\x00\x00\x00\x00\x00\x00\x00\x00\x00\x00\x00\x00\x00\x00\x00\x00\x00\x00\x00\x00\x00\x00\x00\x00\x00\x00\x00\x00\x00\x00\x00\x00\x00\x00\x00\x00\x00\x00\x00\x00\x00\x00\x00\x00\x00\x00\x00\x00\x00\x00\x00\x00\x00\x00\x00\x00\x00\x00\x00\x00\x00'
Ntbsg1511
g1512
(g1513
g1514
g1515
S'b'
tRp1797
(I1
(I120
I1
tg1517
I00
S'\x00\x00\x80?\x00\x00\x80?\x00\x00\x80?\x00\x00\x80?\x00\x00\x80?\x00\x00\x80?\x00\x00\x80?\x00\x00\x80?\x00\x00\x80?\x00\x00\x80?\x00\x00\x80?\x00\x00\x80?\x00\x00\x80?\x00\x00\x80?\x00\x00\x80?\x00\x00\x80?\x00\x00\x80?\x00\x00\x80?\x00\x00\x80?\x00\x00\x80?\x00\x00\x80?\x00\x00\x80?\x00\x00\x80?\x00\x00\x80?\x00\x00\x80?\x00\x00\x80?\x00\x00\x80?\x00\x00\x80?\x00\x00\x80?\x00\x00\x80?\x00\x00\x80?\x00\x00\x80?\x00\x00\x80?\x00\x00\x80?\x00\x00\x80?\x00\x00\x80?\x00\x00\x80?\x00\x00\x80?\x00\x00\x80?\x00\x00\x80?\x00\x00\x80?\x00\x00\x80?\x00\x00\x80?\x00\x00\x80?\x00\x00\x80?\x00\x00\x80?\x00\x00\x80?\x00\x00\x80?\x00\x00\x80?\x00\x00\x80?\x00\x00\x80?\x00\x00\x80?\x00\x00\x80?\x00\x00\x80?\x00\x00\x80?\x00\x00\x80?\x00\x00\x80?\x00\x00\x80?\x00\x00\x80?\x00\x00\x80?\x00\x00\x80?\x00\x00\x80?\x00\x00\x80?\x00\x00\x80?\x00\x00\x80?\x00\x00\x80?\x00\x00\x80?\x00\x00\x80?\x00\x00\x80?\x00\x00\x80?\x00\x00\x80?\x00\x00\x80?\x00\x00\x80?\x00\x00\x80?\x00\x00\x80?\x00\x00\x80?\x00\x00\x80?\x00\x00\x80?\x00\x00\x80?\x00\x00\x80?\x00\x00\x80?\x00\x00\x80?\x00\x00\x80?\x00\x00\x80?\x00\x00\x80?\x00\x00\x80?\x00\x00\x80?\x00\x00\x80?\x00\x00\x80?\x00\x00\x80?\x00\x00\x80?\x00\x00\x80?\x00\x00\x80?\x00\x00\x80?\x00\x00\x80?\x00\x00\x80?\x00\x00\x80?\x00\x00\x80?\x00\x00\x80?\x00\x00\x80?\x00\x00\x80?\x00\x00\x80?\x00\x00\x80?\x00\x00\x80?\x00\x00\x80?\x00\x00\x80?\x00\x00\x80?\x00\x00\x80?\x00\x00\x80?\x00\x00\x80?\x00\x00\x80?\x00\x00\x80?\x00\x00\x80?\x00\x00\x80?\x00\x00\x80?\x00\x00\x80?\x00\x00\x80?\x00\x00\x80?\x00\x00\x80?\x00\x00\x80?'
S'\x00\x00\x00\x00\x00\x00\x00\x00\x00\x00\x00\x00\x00\x00\x00\x00\x00\x00\x00\x00\x00\x00\x00\x00\x00\x00\x00\x00\x00\x00\x00\x00\x00\x00\x00\x00\x00\x00\x00\x00\x00\x00\x00\x00\x00\x00\x00\x00\x00\x00\x00\x00\x00\x00\x00\x00\x00\x00\x00\x00\x00\x00\x00\x00\x00\x00\x00\x00\x00\x00\x00\x00\x00\x00\x00\x00\x00\x00\x00\x00\x00\x00\x00\x00\x00\x00\x00\x00\x00\x00\x00\x00\x00\x00\x00\x00\x00\x00\x00\x00\x00\x00\x00\x00\x00\x00\x00\x00\x00\x00\x00\x00\x00\x00\x00\x00\x00\x00\x00\x00'
Ntbsg1522
g1512
(g1513
g1514
g1515
S'b'
tRp1798
(I1
(I120
I1
tg1517
I00
S'\x00\x00\x00\x00\x00\x00\x80?\x00\x00\x00@\x00\x00@@\x00\x00\x80@\x00\x00\xa0@\x00\x00\xc0@\x00\x00\xe0@\x00\x00\x00A\x00\x00\x10A\x00\x00 A\x00\x000A\x00\x00@A\x00\x00PA\x00\x00`A\x00\x00pA\x00\x00\x80A\x00\x00\x88A\x00\x00\x90A\x00\x00\x98A\x00\x00\xa0A\x00\x00\xa8A\x00\x00\xb0A\x00\x00\xb8A\x00\x00\xc0A\x00\x00\xc8A\x00\x00\xd0A\x00\x00\xd8A\x00\x00\xe0A\x00\x00\xe8A\x00\x00\xf0A\x00\x00\xf8A\x00\x00\x00B\x00\x00\x04B\x00\x00\x08B\x00\x00\x0cB\x00\x00\x10B\x00\x00\x14B\x00\x00\x18B\x00\x00\x1cB\x00\x00 B\x00\x00$B\x00\x00(B\x00\x00,B\x00\x000B\x00\x004B\x00\x008B\x00\x00<B\x00\x00@B\x00\x00DB\x00\x00HB\x00\x00LB\x00\x00PB\x00\x00TB\x00\x00XB\x00\x00\\B\x00\x00`B\x00\x00dB\x00\x00hB\x00\x00lB\x00\x00pB\x00\x00tB\x00\x00xB\x00\x00|B\x00\x00\x80B\x00\x00\x82B\x00\x00\x84B\x00\x00\x86B\x00\x00\x88B\x00\x00\x8aB\x00\x00\x8cB\x00\x00\x8eB\x00\x00\x90B\x00\x00\x92B\x00\x00\x94B\x00\x00\x96B\x00\x00\x98B\x00\x00\x9aB\x00\x00\x9cB\x00\x00\x9eB\x00\x00\xa0B\x00\x00\xa2B\x00\x00\xa4B\x00\x00\xa6B\x00\x00\xa8B\x00\x00\xaaB\x00\x00\xacB\x00\x00\xaeB\x00\x00\xb0B\x00\x00\xb2B\x00\x00\xb4B\x00\x00\xb6B\x00\x00\xb8B\x00\x00\xbaB\x00\x00\xbcB\x00\x00\xbeB\x00\x00\xc0B\x00\x00\xc2B\x00\x00\xc4B\x00\x00\xc6B\x00\x00\xc8B\x00\x00\xcaB\x00\x00\xccB\x00\x00\xceB\x00\x00\xd0B\x00\x00\xd2B\x00\x00\xd4B\x00\x00\xd6B\x00\x00\xd8B\x00\x00\xdaB\x00\x00\xdcB\x00\x00\xdeB\x00\x00\xe0B\x00\x00\xe2B\x00\x00\xe4B\x00\x00\xe6B\x00\x00\xe8B\x00\x00\xeaB\x00\x00\xecB\x00\x00\xeeB'
S'\x00\x00\x00\x00\x00\x00\x00\x00\x00\x00\x00\x00\x00\x00\x00\x00\x00\x00\x00\x00\x00\x00\x00\x00\x00\x00\x00\x00\x00\x00\x00\x00\x00\x00\x00\x00\x00\x00\x00\x00\x00\x00\x00\x00\x00\x00\x00\x00\x00\x00\x00\x00\x00\x00\x00\x00\x00\x00\x00\x00\x00\x00\x00\x00\x00\x00\x00\x00\x00\x00\x00\x00\x00\x00\x00\x00\x00\x00\x00\x00\x00\x00\x00\x00\x00\x00\x00\x00\x00\x00\x00\x00\x00\x00\x00\x00\x00\x00\x00\x00\x00\x00\x00\x00\x00\x00\x00\x00\x00\x00\x00\x00\x00\x00\x00\x00\x00\x00\x00\x00'
Ntbsg32
g1512
(g1513
g1514
g1515
S'b'
tRp1799
(I1
(I120
I1
tg1517
I00
S'\xc9y\xa8@\xdd>\xe4?2K\x05@N\xe4\x1e@\x1dV\x06@\xd1\x12B@\x9c\xce-@US\x1eA\x0f\x9aZ@\xb9\xbb\xdb?\xae\xc9\\@\xe9k\xd5?\xc5\xaf*@p\x10\x11@^\xa3\n@\n\x9c\xf9?\xa3(\xd1?(\x7f\xf7?;6\xf1?\xbdr\xd5?\xe9\xafk@\xc2x7@%~\xf7?y\x12\xe0?\xb8\x9f9@\xec\x13\xc0?\x13v\x07@\x9a\xd5\xcc?l[\x15@{v\xc6?\xeee\xa6?Q\xaa\xd9?\xcf^\xd5?\xc0\xb1\xea?\xb1\\\xe4?\x0bb\x16@L\xab\xe8?\x7f\x01\xef?sE\x14@\xe0\xe0\xcc?e\xc0\xac@\x988#@\xcd\x18\xd1?\xb1\xae\xb9?\x91#\x02@\xfc\xb4\xbb?fo(@\xb1\x9c\xe8?\xd24\x02@+\x97\xa8?}\xd4\xfb?u\xc0\xdb?\xec}\x17@\xec\xb0\xca?\xf9\xd5\xbb?\x13\x1b\xc0?\xefb&@\xe5\xb0*@[\xdd=@/i6@\xa0\xc3\xa4@\'h\xd5?t\x7fX@\x05\xdb\xec?0\x1c\x12@\x17X\x05@\xcef\xf5?\xb3G\xd3?1\xee\r@\xf9$"@\xf0d\x05@\xec\xb0\x1b@\xb4\x8b8@\xb3;\xe2?\xa2u\x07@\x83\x91\xb7?%:\xd3?J\xd1\xdb?\xb9\xa9\xc8?\r\xd1\xcc?\xea\x000@u_\xc4?t\xab\xf9?\xc7\x8f\xc6?}F\xe2?\xa6N\xb3?c\xf1\xfd?\x95d\xa4?\xf7x\xf5?%\xc3\xaa?is\xc6?\xbc\r\xe0?\nKD@\xe6\xb5\xaa?\xd4\xec\xdd?==\x03@A\x94\xf7?tq\x16@)\xd2\x9b?\xeb\x89\x18@%\r\x81@IV\x05@\r\xa2\xf9?[X\xd3?\x1a\xe4=@\xa2\x85\xa6?B\x89\xf7?U\x03\x10@%m\xd7?3\xbe\xca?t\xa0\x19@2@\xc4?3\xa9\xf9?x\xfd\xae?\x1aWf@jE\xf3?\x14\xfe\xce?/q\x95?\xee6\x13@\xca\xa7\xb9?'
S'\x00\x00\x00\x00\x00\x00\x00\x00\x00\x00\x00\x00\x00\x00\x00\x00\x00\x00\x00\x00\x00\x00\x00\x00\x00\x00\x00\x00\x00\x00\x00\x00\x00\x00\x00\x00\x00\x00\x00\x00\x00\x00\x00\x00\x00\x00\x00\x00\x00\x00\x00\x00\x00\x00\x00\x00\x00\x00\x00\x00\x00\x00\x00\x00\x00\x00\x00\x00\x00\x00\x00\x00\x00\x00\x00\x00\x00\x00\x00\x00\x00\x00\x00\x00\x00\x00\x00\x00\x00\x00\x00\x00\x00\x00\x00\x00\x00\x00\x00\x00\x00\x00\x00\x00\x00\x00\x00\x00\x00\x00\x00\x00\x00\x00\x00\x00\x00\x00\x00\x00'
NtbstRp1800
(dp1801
g1527
(dp1802
g1511
I01
sg27
I01
sg31
I00
sg26
I01
sg1522
I01
sg32
I01
ssg1529
g1788
sg1530
(lp1803
g1511
ag1522
ag31
ag32
ag26
ag27
asg1532
(lp1804
I120
aI1
asbsg1534
g1582
sg1536
g1518
(g1514
(I0
tS'b'
tRp1805
(I1
(I120
I1
tg64
I00
S'\x00\x00\x00\x00\x01\x00\x00\x00\x02\x00\x00\x00\x03\x00\x00\x00\x04\x00\x00\x00\x05\x00\x00\x00\x06\x00\x00\x00\x07\x00\x00\x00\x08\x00\x00\x00\t\x00\x00\x00\n\x00\x00\x00\x0b\x00\x00\x00\x0c\x00\x00\x00\r\x00\x00\x00\x0e\x00\x00\x00\x0f\x00\x00\x00\x10\x00\x00\x00\x11\x00\x00\x00\x12\x00\x00\x00\x13\x00\x00\x00\x14\x00\x00\x00\x15\x00\x00\x00\x16\x00\x00\x00\x17\x00\x00\x00\x18\x00\x00\x00\x19\x00\x00\x00\x1a\x00\x00\x00\x1b\x00\x00\x00\x1c\x00\x00\x00\x1d\x00\x00\x00\x1e\x00\x00\x00\x1f\x00\x00\x00 \x00\x00\x00!\x00\x00\x00"\x00\x00\x00#\x00\x00\x00$\x00\x00\x00%\x00\x00\x00&\x00\x00\x00\'\x00\x00\x00(\x00\x00\x00)\x00\x00\x00*\x00\x00\x00+\x00\x00\x00,\x00\x00\x00-\x00\x00\x00.\x00\x00\x00/\x00\x00\x000\x00\x00\x001\x00\x00\x002\x00\x00\x003\x00\x00\x004\x00\x00\x005\x00\x00\x006\x00\x00\x007\x00\x00\x008\x00\x00\x009\x00\x00\x00:\x00\x00\x00;\x00\x00\x00<\x00\x00\x00=\x00\x00\x00>\x00\x00\x00?\x00\x00\x00@\x00\x00\x00A\x00\x00\x00B\x00\x00\x00C\x00\x00\x00D\x00\x00\x00E\x00\x00\x00F\x00\x00\x00G\x00\x00\x00H\x00\x00\x00I\x00\x00\x00J\x00\x00\x00K\x00\x00\x00L\x00\x00\x00M\x00\x00\x00N\x00\x00\x00O\x00\x00\x00P\x00\x00\x00Q\x00\x00\x00R\x00\x00\x00S\x00\x00\x00T\x00\x00\x00U\x00\x00\x00V\x00\x00\x00W\x00\x00\x00X\x00\x00\x00Y\x00\x00\x00Z\x00\x00\x00[\x00\x00\x00\\\x00\x00\x00]\x00\x00\x00^\x00\x00\x00_\x00\x00\x00`\x00\x00\x00a\x00\x00\x00b\x00\x00\x00c\x00\x00\x00d\x00\x00\x00e\x00\x00\x00f\x00\x00\x00g\x00\x00\x00h\x00\x00\x00i\x00\x00\x00j\x00\x00\x00k\x00\x00\x00l\x00\x00\x00m\x00\x00\x00n\x00\x00\x00o\x00\x00\x00p\x00\x00\x00q\x00\x00\x00r\x00\x00\x00s\x00\x00\x00t\x00\x00\x00u\x00\x00\x00v\x00\x00\x00w\x00\x00\x00'
tbsg1538
I01
sg1539
I1
sg1540
I-1
sg1541
(lp1806
g1
(g1585
g1509
(dp1807
g778
Vb
sg774
g775
stRp1808
ag1
(g1585
g1509
(dp1809
g778
Vr
sg774
g783
stRp1810
ag1
(g1585
g1509
(dp1811
g778
Vo
sg774
g790
stRp1812
ag1
(g1585
g1509
(dp1813
g778
Vb
sg774
g775
stRp1814
ag1
(g1585
g1509
(dp1815
g778
Vb
sg774
g775
stRp1816
ag1
(g1585
g1509
(dp1817
g778
Vr
sg774
g783
stRp1818
ag1
(g1585
g1509
(dp1819
g778
Vb
sg774
g775
stRp1820
ag1
(g1585
g1509
(dp1821
g778
Vb
sg774
g775
stRp1822
ag1
(g1585
g1509
(dp1823
g778
Vo
sg774
g790
stRp1824
ag1
(g1585
g1509
(dp1825
g778
Vo
sg774
g790
stRp1826
ag1
(g1585
g1509
(dp1827
g778
Vr
sg774
g783
stRp1828
ag1
(g1585
g1509
(dp1829
g778
Vb
sg774
g775
stRp1830
ag1
(g1585
g1509
(dp1831
g778
Vo
sg774
g790
stRp1832
ag1
(g1585
g1509
(dp1833
g778
Vr
sg774
g783
stRp1834
ag1
(g1585
g1509
(dp1835
g778
Vr
sg774
g783
stRp1836
ag1
(g1585
g1509
(dp1837
g778
Vr
sg774
g783
stRp1838
ag1
(g1585
g1509
(dp1839
g778
Vo
sg774
g790
stRp1840
ag1
(g1585
g1509
(dp1841
g778
Vr
sg774
g783
stRp1842
ag1
(g1585
g1509
(dp1843
g778
Vb
sg774
g775
stRp1844
ag1
(g1585
g1509
(dp1845
g778
Vo
sg774
g790
stRp1846
ag1
(g1585
g1509
(dp1847
g778
Vb
sg774
g775
stRp1848
ag1
(g1585
g1509
(dp1849
g778
Vb
sg774
g775
stRp1850
ag1
(g1585
g1509
(dp1851
g778
Vr
sg774
g783
stRp1852
ag1
(g1585
g1509
(dp1853
g778
Vr
sg774
g783
stRp1854
ag1
(g1585
g1509
(dp1855
g778
Vr
sg774
g783
stRp1856
ag1
(g1585
g1509
(dp1857
g778
Vo
sg774
g790
stRp1858
ag1
(g1585
g1509
(dp1859
g778
Vb
sg774
g775
stRp1860
ag1
(g1585
g1509
(dp1861
g778
Vb
sg774
g775
stRp1862
ag1
(g1585
g1509
(dp1863
g778
Vr
sg774
g783
stRp1864
ag1
(g1585
g1509
(dp1865
g778
Vr
sg774
g783
stRp1866
ag1
(g1585
g1509
(dp1867
g778
Vo
sg774
g790
stRp1868
ag1
(g1585
g1509
(dp1869
g778
Vr
sg774
g783
stRp1870
ag1
(g1585
g1509
(dp1871
g778
Vb
sg774
g775
stRp1872
ag1
(g1585
g1509
(dp1873
g778
Vr
sg774
g783
stRp1874
ag1
(g1585
g1509
(dp1875
g778
Vo
sg774
g790
stRp1876
ag1
(g1585
g1509
(dp1877
g778
Vo
sg774
g790
stRp1878
ag1
(g1585
g1509
(dp1879
g778
Vo
sg774
g790
stRp1880
ag1
(g1585
g1509
(dp1881
g778
Vr
sg774
g783
stRp1882
ag1
(g1585
g1509
(dp1883
g778
Vr
sg774
g783
stRp1884
ag1
(g1585
g1509
(dp1885
g778
Vr
sg774
g783
stRp1886
ag1
(g1585
g1509
(dp1887
g778
Vb
sg774
g775
stRp1888
ag1
(g1585
g1509
(dp1889
g778
Vb
sg774
g775
stRp1890
ag1
(g1585
g1509
(dp1891
g778
Vo
sg774
g790
stRp1892
ag1
(g1585
g1509
(dp1893
g778
Vr
sg774
g783
stRp1894
ag1
(g1585
g1509
(dp1895
g778
Vo
sg774
g790
stRp1896
ag1
(g1585
g1509
(dp1897
g778
Vb
sg774
g775
stRp1898
ag1
(g1585
g1509
(dp1899
g778
Vr
sg774
g783
stRp1900
ag1
(g1585
g1509
(dp1901
g778
Vr
sg774
g783
stRp1902
ag1
(g1585
g1509
(dp1903
g778
Vo
sg774
g790
stRp1904
ag1
(g1585
g1509
(dp1905
g778
Vo
sg774
g790
stRp1906
ag1
(g1585
g1509
(dp1907
g778
Vr
sg774
g783
stRp1908
ag1
(g1585
g1509
(dp1909
g778
Vo
sg774
g790
stRp1910
ag1
(g1585
g1509
(dp1911
g778
Vb
sg774
g775
stRp1912
ag1
(g1585
g1509
(dp1913
g778
Vb
sg774
g775
stRp1914
ag1
(g1585
g1509
(dp1915
g778
Vo
sg774
g790
stRp1916
ag1
(g1585
g1509
(dp1917
g778
Vr
sg774
g783
stRp1918
ag1
(g1585
g1509
(dp1919
g778
Vo
sg774
g790
stRp1920
ag1
(g1585
g1509
(dp1921
g778
Vb
sg774
g775
stRp1922
ag1
(g1585
g1509
(dp1923
g778
Vr
sg774
g783
stRp1924
ag1
(g1585
g1509
(dp1925
g778
Vr
sg774
g783
stRp1926
ag1
(g1585
g1509
(dp1927
g778
Vo
sg774
g790
stRp1928
ag1
(g1585
g1509
(dp1929
g778
Vb
sg774
g775
stRp1930
ag1
(g1585
g1509
(dp1931
g778
Vr
sg774
g783
stRp1932
ag1
(g1585
g1509
(dp1933
g778
Vr
sg774
g783
stRp1934
ag1
(g1585
g1509
(dp1935
g778
Vo
sg774
g790
stRp1936
ag1
(g1585
g1509
(dp1937
g778
Vo
sg774
g790
stRp1938
ag1
(g1585
g1509
(dp1939
g778
Vr
sg774
g783
stRp1940
ag1
(g1585
g1509
(dp1941
g778
Vo
sg774
g790
stRp1942
ag1
(g1585
g1509
(dp1943
g778
Vr
sg774
g783
stRp1944
ag1
(g1585
g1509
(dp1945
g778
Vo
sg774
g790
stRp1946
ag1
(g1585
g1509
(dp1947
g778
Vo
sg774
g790
stRp1948
ag1
(g1585
g1509
(dp1949
g778
Vo
sg774
g790
stRp1950
ag1
(g1585
g1509
(dp1951
g778
Vb
sg774
g775
stRp1952
ag1
(g1585
g1509
(dp1953
g778
Vb
sg774
g775
stRp1954
ag1
(g1585
g1509
(dp1955
g778
Vb
sg774
g775
stRp1956
ag1
(g1585
g1509
(dp1957
g778
Vo
sg774
g790
stRp1958
ag1
(g1585
g1509
(dp1959
g778
Vb
sg774
g775
stRp1960
ag1
(g1585
g1509
(dp1961
g778
Vb
sg774
g775
stRp1962
ag1
(g1585
g1509
(dp1963
g778
Vr
sg774
g783
stRp1964
ag1
(g1585
g1509
(dp1965
g778
Vr
sg774
g783
stRp1966
ag1
(g1585
g1509
(dp1967
g778
Vr
sg774
g783
stRp1968
ag1
(g1585
g1509
(dp1969
g778
Vo
sg774
g790
stRp1970
ag1
(g1585
g1509
(dp1971
g778
Vr
sg774
g783
stRp1972
ag1
(g1585
g1509
(dp1973
g778
Vb
sg774
g775
stRp1974
ag1
(g1585
g1509
(dp1975
g778
Vb
sg774
g775
stRp1976
ag1
(g1585
g1509
(dp1977
g778
Vb
sg774
g775
stRp1978
ag1
(g1585
g1509
(dp1979
g778
Vo
sg774
g790
stRp1980
ag1
(g1585
g1509
(dp1981
g778
Vo
sg774
g790
stRp1982
ag1
(g1585
g1509
(dp1983
g778
Vb
sg774
g775
stRp1984
ag1
(g1585
g1509
(dp1985
g778
Vr
sg774
g783
stRp1986
ag1
(g1585
g1509
(dp1987
g778
Vo
sg774
g790
stRp1988
ag1
(g1585
g1509
(dp1989
g778
Vo
sg774
g790
stRp1990
ag1
(g1585
g1509
(dp1991
g778
Vb
sg774
g775
stRp1992
ag1
(g1585
g1509
(dp1993
g778
Vb
sg774
g775
stRp1994
ag1
(g1585
g1509
(dp1995
g778
Vr
sg774
g783
stRp1996
ag1
(g1585
g1509
(dp1997
g778
Vo
sg774
g790
stRp1998
ag1
(g1585
g1509
(dp1999
g778
Vo
sg774
g790
stRp2000
ag1
(g1585
g1509
(dp2001
g778
Vo
sg774
g790
stRp2002
ag1
(g1585
g1509
(dp2003
g778
Vr
sg774
g783
stRp2004
ag1
(g1585
g1509
(dp2005
g778
Vo
sg774
g790
stRp2006
ag1
(g1585
g1509
(dp2007
g778
Vb
sg774
g775
stRp2008
ag1
(g1585
g1509
(dp2009
g778
Vo
sg774
g790
stRp2010
ag1
(g1585
g1509
(dp2011
g778
Vo
sg774
g790
stRp2012
ag1
(g1585
g1509
(dp2013
g778
Vo
sg774
g790
stRp2014
ag1
(g1585
g1509
(dp2015
g778
Vb
sg774
g775
stRp2016
ag1
(g1585
g1509
(dp2017
g778
Vb
sg774
g775
stRp2018
ag1
(g1585
g1509
(dp2019
g778
Vo
sg774
g790
stRp2020
ag1
(g1585
g1509
(dp2021
g778
Vr
sg774
g783
stRp2022
ag1
(g1585
g1509
(dp2023
g778
Vr
sg774
g783
stRp2024
ag1
(g1585
g1509
(dp2025
g778
Vb
sg774
g775
stRp2026
ag1
(g1585
g1509
(dp2027
g778
Vb
sg774
g775
stRp2028
ag1
(g1585
g1509
(dp2029
g778
Vb
sg774
g775
stRp2030
ag1
(g1585
g1509
(dp2031
g778
Vr
sg774
g783
stRp2032
ag1
(g1585
g1509
(dp2033
g778
Vo
sg774
g790
stRp2034
ag1
(g1585
g1509
(dp2035
g778
Vo
sg774
g790
stRp2036
ag1
(g1585
g1509
(dp2037
g778
Vb
sg774
g775
stRp2038
ag1
(g1585
g1509
(dp2039
g778
Vb
sg774
g775
stRp2040
ag1
(g1585
g1509
(dp2041
g778
Vb
sg774
g775
stRp2042
ag1
(g1585
g1509
(dp2043
g778
Vr
sg774
g783
stRp2044
ag1
(g1585
g1509
(dp2045
g778
Vb
sg774
g775
stRp2046
asg1543
Nsg1544
g1494
sg1545
I120
sg1546
I0
sg1547
I120
sbasS'savePickle'
p2047
I00
sb.