ccopy_reg
_reconstructor
p1
(cpsychopy.data
ExperimentHandler
p2
c__builtin__
object
p3
NtRp4
(dp5
S'originPath'
p6
VC:\u005cUsers\u005cstweis\u005cDropbox\u005cPenn Post Doc\u005cArrows_VVA\u005cArrows_VVA_Direction.psyexp
p7
sS'dataFileName'
p8
VC:\u005cUsers\u005cstweis\u005cDropbox\u005cPenn Post Doc\u005cArrows_VVA\u005cdata_Arrows_VVA_Color\u005c1234_2018_May_08_1329
p9
sS'runtimeInfo'
p10
NsS'name'
p11
S'Arrows_VVA_Direction'
p12
sS'dataNames'
p13
(lp14
S'key_resp_7.keys'
p15
aS'key_resp_7.rt'
p16
aS'key_resp_6.keys'
p17
aS'key_resp_6.rt'
p18
aS'key_resp_11.keys'
p19
aS'key_resp_11.rt'
p20
aS'key_resp_13.keys'
p21
aS'key_resp_13.rt'
p22
aS'color_response.keys'
p23
aS'color_response.rt'
p24
asS'autoLog'
p25
I01
sS'extraInfo'
p26
(dp27
S'date'
p28
V2018_May_08_1329
p29
sS'frameRate'
p30
cnumpy.core.multiarray
scalar
p31
(cnumpy
dtype
p32
(S'f8'
I0
I1
tRp33
(I3
S'<'
NNNI-1
I-1
I0
tbS'\xd7V\xbcc\xf2\xfdM@'
tRp34
sS'expName'
p35
g12
sVparticipant
p36
V1234
p37
sVScr or Whi
p38
VWhi
p39
ssS'loopsUnfinished'
p40
(lp41
sS'saveWideText'
p42
I00
sS'thisEntry'
p43
(dp44
sS'version'
p45
S''
sS'_paramNamesSoFar'
p46
(lp47
S'Direction'
p48
aS'Random_within_format'
p49
aS'Background'
p50
aS'Format'
p51
aS'Stimulus_Practice'
p52
aS'Number'
p53
aS'Random_format_order'
p54
aS'Stimulus'
p55
aS'direction'
p56
aS'number'
p57
aS'format'
p58
asS'entries'
p59
(lp60
(dp61
g35
g12
sg36
g37
sg15
S'space'
p62
sg28
g29
sg16
F0.76791124779265374
sg30
g34
sg38
g39
sa(dp63
S'repeat_spatial_practice.thisN'
p64
I0
sg35
g12
sg49
g31
(g33
S'\xc0\x142\x86yf\xbe?'
tRp65
sg19
S'f'
sg52
Vahead_schema_2_WHI.jpg
p66
sg17
S'space'
p67
sg30
g34
sS'trials_3.thisRepN'
p68
I0
sS'repeat_spatial_practice.thisIndex'
p69
g31
(g32
(S'i4'
I0
I1
tRp70
(I3
S'<'
NNNI-1
I-1
I0
tbS'\x00\x00\x00\x00'
tRp71
sg20
F0.48507035186048597
sg28
g29
sS'trials_3.thisIndex'
p72
g31
(g70
S'\x00\x00\x00\x00'
tRp73
sS'trials_3.thisTrialN'
p74
I0
sg54
g31
(g33
S'\x10`J[\xa1\x1b\xd7?'
tRp75
sg48
Vahead
p76
sg36
g37
sg51
Vschema
p77
sS'repeat_spatial_practice.thisTrialN'
p78
I0
sS'trials_3.thisN'
p79
I0
sg53
g31
(g32
(S'i8'
I0
I1
tRp80
(I3
S'<'
NNNI-1
I-1
I0
tbS'\x02\x00\x00\x00\x00\x00\x00\x00'
tRp81
sS'repeat_spatial_practice.thisRepN'
p82
I0
sg50
V_WHI
p83
sg38
g39
sg18
F0.58647106878925115
sa(dp84
S'repeat_spatial_practice.thisN'
p85
I0
sg35
g12
sg49
g31
(g33
S'@\x87\x84t\xc1\xb0\xc7?'
tRp86
sg19
S'j'
sg52
Vright_schema_1_WHI.jpg
p87
sg30
g34
sS'trials_3.thisRepN'
p88
I0
sS'repeat_spatial_practice.thisIndex'
p89
g71
sg20
F0.28667300182860345
sg28
g29
sS'trials_3.thisIndex'
p90
g31
(g70
S'\x01\x00\x00\x00'
tRp91
sS'trials_3.thisTrialN'
p92
I1
sg54
g31
(g33
S'\x10`J[\xa1\x1b\xd7?'
tRp93
sg48
Vright
p94
sg36
g37
sg51
g77
sS'repeat_spatial_practice.thisTrialN'
p95
I0
sS'trials_3.thisN'
p96
I1
sg53
g31
(g80
S'\x01\x00\x00\x00\x00\x00\x00\x00'
tRp97
sS'repeat_spatial_practice.thisRepN'
p98
I0
sg50
g83
sg38
g39
sa(dp99
S'repeat_spatial_practice.thisN'
p100
I0
sg35
g12
sg49
g31
(g33
S'H}a(\xe6,\xd0?'
tRp101
sg19
S'f'
sg52
Vright_schema_3_WHI.jpg
p102
sg30
g34
sS'trials_3.thisRepN'
p103
I0
sS'repeat_spatial_practice.thisIndex'
p104
g71
sg20
F0.05085688439430669
sg28
g29
sS'trials_3.thisIndex'
p105
g31
(g70
S'\x02\x00\x00\x00'
tRp106
sS'trials_3.thisTrialN'
p107
I2
sg54
g31
(g33
S'\x10`J[\xa1\x1b\xd7?'
tRp108
sg48
g94
sg36
g37
sg51
g77
sS'repeat_spatial_practice.thisTrialN'
p109
I0
sS'trials_3.thisN'
p110
I2
sg53
g31
(g80
S'\x03\x00\x00\x00\x00\x00\x00\x00'
tRp111
sS'repeat_spatial_practice.thisRepN'
p112
I0
sg50
g83
sg38
g39
sa(dp113
S'repeat_spatial_practice.thisN'
p114
I0
sg35
g12
sg49
g31
(g33
S'pXD!\xdb\x9b\xe2?'
tRp115
sg19
S'j'
sg52
Vahead_schema_3_WHI.jpg
p116
sg30
g34
sS'trials_3.thisRepN'
p117
I0
sS'repeat_spatial_practice.thisIndex'
p118
g71
sg20
F0.05447892373194918
sg28
g29
sS'trials_3.thisIndex'
p119
g31
(g70
S'\x03\x00\x00\x00'
tRp120
sS'trials_3.thisTrialN'
p121
I3
sg54
g31
(g33
S'\x10`J[\xa1\x1b\xd7?'
tRp122
sg48
g76
sg36
g37
sg51
g77
sS'repeat_spatial_practice.thisTrialN'
p123
I0
sS'trials_3.thisN'
p124
I3
sg53
g31
(g80
S'\x03\x00\x00\x00\x00\x00\x00\x00'
tRp125
sS'repeat_spatial_practice.thisRepN'
p126
I0
sg50
g83
sg38
g39
sa(dp127
S'repeat_spatial_practice.thisN'
p128
I0
sg35
g12
sg49
g31
(g33
S'\xf8,\xccB\xd7\xe9\xe3?'
tRp129
sg19
S'f'
sg52
Vahead_schema_1_WHI.jpg
p130
sg30
g34
sS'trials_3.thisRepN'
p131
I0
sS'repeat_spatial_practice.thisIndex'
p132
g71
sg20
F0.017072444315999746
sg28
g29
sS'trials_3.thisIndex'
p133
g31
(g70
S'\x04\x00\x00\x00'
tRp134
sS'trials_3.thisTrialN'
p135
I4
sg54
g31
(g33
S'\x10`J[\xa1\x1b\xd7?'
tRp136
sg48
g76
sg36
g37
sg51
g77
sS'repeat_spatial_practice.thisTrialN'
p137
I0
sS'trials_3.thisN'
p138
I4
sg53
g31
(g80
S'\x01\x00\x00\x00\x00\x00\x00\x00'
tRp139
sS'repeat_spatial_practice.thisRepN'
p140
I0
sg50
g83
sg38
g39
sa(dp141
S'repeat_spatial_practice.thisN'
p142
I0
sg35
g12
sg49
g31
(g33
S'\xb0\x86\x11\x8a\xd94\xe4?'
tRp143
sg19
S'j'
sg52
Vleft_schema_3_WHI.jpg
p144
sg30
g34
sS'trials_3.thisRepN'
p145
I0
sS'repeat_spatial_practice.thisIndex'
p146
g71
sg20
F0.051007266330998391
sg28
g29
sS'trials_3.thisIndex'
p147
g31
(g70
S'\x05\x00\x00\x00'
tRp148
sS'trials_3.thisTrialN'
p149
I5
sg54
g31
(g33
S'\x10`J[\xa1\x1b\xd7?'
tRp150
sg48
Vleft
p151
sg36
g37
sg51
g77
sS'repeat_spatial_practice.thisTrialN'
p152
I0
sS'trials_3.thisN'
p153
I5
sg53
g31
(g80
S'\x03\x00\x00\x00\x00\x00\x00\x00'
tRp154
sS'repeat_spatial_practice.thisRepN'
p155
I0
sg50
g83
sg38
g39
sa(dp156
S'repeat_spatial_practice.thisN'
p157
I0
sg35
g12
sg49
g31
(g33
S'\xfc\xe6\xadQ\x18D\xe7?'
tRp158
sg19
S'f'
sg52
Vleft_schema_1_WHI.jpg
p159
sg30
g34
sS'trials_3.thisRepN'
p160
I0
sS'repeat_spatial_practice.thisIndex'
p161
g71
sg20
F0.034276253310963511
sg28
g29
sS'trials_3.thisIndex'
p162
g31
(g70
S'\x06\x00\x00\x00'
tRp163
sS'trials_3.thisTrialN'
p164
I6
sg54
g31
(g33
S'\x10`J[\xa1\x1b\xd7?'
tRp165
sg48
g151
sg36
g37
sg51
g77
sS'repeat_spatial_practice.thisTrialN'
p166
I0
sS'trials_3.thisN'
p167
I6
sg53
g31
(g80
S'\x01\x00\x00\x00\x00\x00\x00\x00'
tRp168
sS'repeat_spatial_practice.thisRepN'
p169
I0
sg50
g83
sg38
g39
sa(dp170
S'repeat_spatial_practice.thisN'
p171
I0
sg35
g12
sg49
g31
(g33
S'$\xb2\xae\xcbXM\xea?'
tRp172
sg19
S'j'
sg52
Vright_schema_2_WHI.jpg
p173
sg30
g34
sS'trials_3.thisRepN'
p174
I0
sS'repeat_spatial_practice.thisIndex'
p175
g71
sg20
F0.050566067977342755
sg28
g29
sS'trials_3.thisIndex'
p176
g31
(g70
S'\x07\x00\x00\x00'
tRp177
sS'trials_3.thisTrialN'
p178
I7
sg54
g31
(g33
S'\x10`J[\xa1\x1b\xd7?'
tRp179
sg48
g94
sg36
g37
sg51
g77
sS'repeat_spatial_practice.thisTrialN'
p180
I0
sS'trials_3.thisN'
p181
I7
sg53
g31
(g80
S'\x02\x00\x00\x00\x00\x00\x00\x00'
tRp182
sS'repeat_spatial_practice.thisRepN'
p183
I0
sg50
g83
sg38
g39
sa(dp184
S'repeat_spatial_practice.thisN'
p185
I0
sg35
g12
sg49
g31
(g33
S'\x92\xa1\xaa\x9f\xee\xb7\xec?'
tRp186
sg19
S'f'
sg52
Vleft_schema_2_WHI.jpg
p187
sg30
g34
sS'trials_3.thisRepN'
p188
I0
sS'repeat_spatial_practice.thisIndex'
p189
g71
sg20
F0.050972157681826502
sg28
g29
sS'trials_3.thisIndex'
p190
g31
(g70
S'\x08\x00\x00\x00'
tRp191
sS'trials_3.thisTrialN'
p192
I8
sg54
g31
(g33
S'\x10`J[\xa1\x1b\xd7?'
tRp193
sg48
g151
sg36
g37
sg51
g77
sS'repeat_spatial_practice.thisTrialN'
p194
I0
sS'trials_3.thisN'
p195
I8
sg53
g31
(g80
S'\x02\x00\x00\x00\x00\x00\x00\x00'
tRp196
sS'repeat_spatial_practice.thisRepN'
p197
I0
sg50
g83
sg38
g39
sa(dp198
S'repeat_spatial_practice.thisN'
p199
I0
sg35
g12
sg49
g31
(g33
S'\x00\xab\xc8,Z\xfe\x9a?'
tRp200
sg19
S'j'
sg52
Vahead_image_1_WHI.jpg
p201
sg30
g34
sS'trials_3.thisRepN'
p202
I0
sS'repeat_spatial_practice.thisIndex'
p203
g71
sg20
F0.034050387854222208
sg28
g29
sS'trials_3.thisIndex'
p204
g31
(g70
S'\t\x00\x00\x00'
tRp205
sS'trials_3.thisTrialN'
p206
I9
sg54
g31
(g33
S'\xf0\xe8\x1c\xc9\x14v\xdd?'
tRp207
sg48
g76
sg36
g37
sg51
Vimage
p208
sS'repeat_spatial_practice.thisTrialN'
p209
I0
sS'trials_3.thisN'
p210
I9
sg53
g31
(g80
S'\x01\x00\x00\x00\x00\x00\x00\x00'
tRp211
sS'repeat_spatial_practice.thisRepN'
p212
I0
sg50
g83
sg38
g39
sa(dp213
S'repeat_spatial_practice.thisN'
p214
I0
sg35
g12
sg49
g31
(g33
S'\x00\xcfh\xbak\x07\xa3?'
tRp215
sg19
S'f'
sg52
Vahead_image_2_WHI.jpg
p216
sg30
g34
sS'trials_3.thisRepN'
p217
I0
sS'repeat_spatial_practice.thisIndex'
p218
g71
sg20
F0.017216389649547637
sg28
g29
sS'trials_3.thisIndex'
p219
g31
(g70
S'\n\x00\x00\x00'
tRp220
sS'trials_3.thisTrialN'
p221
I10
sg54
g31
(g33
S'\xf0\xe8\x1c\xc9\x14v\xdd?'
tRp222
sg48
g76
sg36
g37
sg51
g208
sS'repeat_spatial_practice.thisTrialN'
p223
I0
sS'trials_3.thisN'
p224
I10
sg53
g31
(g80
S'\x02\x00\x00\x00\x00\x00\x00\x00'
tRp225
sS'repeat_spatial_practice.thisRepN'
p226
I0
sg50
g83
sg38
g39
sa(dp227
S'repeat_spatial_practice.thisN'
p228
I0
sg35
g12
sg49
g31
(g33
S' \xcf\x14\\\xa0T\xc9?'
tRp229
sg19
S'j'
sg52
Vleft_image_3_WHI.jpg
p230
sg30
g34
sS'trials_3.thisRepN'
p231
I0
sS'repeat_spatial_practice.thisIndex'
p232
g71
sg20
F0.067912066937424242
sg28
g29
sS'trials_3.thisIndex'
p233
g31
(g70
S'\x0b\x00\x00\x00'
tRp234
sS'trials_3.thisTrialN'
p235
I11
sg54
g31
(g33
S'\xf0\xe8\x1c\xc9\x14v\xdd?'
tRp236
sg48
g151
sg36
g37
sg51
g208
sS'repeat_spatial_practice.thisTrialN'
p237
I0
sS'trials_3.thisN'
p238
I11
sg53
g31
(g80
S'\x03\x00\x00\x00\x00\x00\x00\x00'
tRp239
sS'repeat_spatial_practice.thisRepN'
p240
I0
sg50
g83
sg38
g39
sa(dp241
S'repeat_spatial_practice.thisN'
p242
I0
sg35
g12
sg49
g31
(g33
S'\xa8\xb8\x95p\xb4\x10\xe3?'
tRp243
sg19
S'j'
sg52
Vleft_image_1_WHI.jpg
p244
sg30
g34
sS'trials_3.thisRepN'
p245
I0
sS'repeat_spatial_practice.thisIndex'
p246
g71
sg20
F0.067910896672401577
sg28
g29
sS'trials_3.thisIndex'
p247
g31
(g70
S'\x0c\x00\x00\x00'
tRp248
sS'trials_3.thisTrialN'
p249
I12
sg54
g31
(g33
S'\xf0\xe8\x1c\xc9\x14v\xdd?'
tRp250
sg48
g151
sg36
g37
sg51
g208
sS'repeat_spatial_practice.thisTrialN'
p251
I0
sS'trials_3.thisN'
p252
I12
sg53
g31
(g80
S'\x01\x00\x00\x00\x00\x00\x00\x00'
tRp253
sS'repeat_spatial_practice.thisRepN'
p254
I0
sg50
g83
sg38
g39
sa(dp255
S'repeat_spatial_practice.thisN'
p256
I0
sg35
g12
sg49
g31
(g33
S'\xc0\xab%\xd1^\xe7\xe7?'
tRp257
sg19
S'j'
sg52
Vright_image_3_WHI.jpg
p258
sg30
g34
sS'trials_3.thisRepN'
p259
I0
sS'repeat_spatial_practice.thisIndex'
p260
g71
sg20
F0.084846709913108498
sg28
g29
sS'trials_3.thisIndex'
p261
g31
(g70
S'\r\x00\x00\x00'
tRp262
sS'trials_3.thisTrialN'
p263
I13
sg54
g31
(g33
S'\xf0\xe8\x1c\xc9\x14v\xdd?'
tRp264
sg48
g94
sg36
g37
sg51
g208
sS'repeat_spatial_practice.thisTrialN'
p265
I0
sS'trials_3.thisN'
p266
I13
sg53
g31
(g80
S'\x03\x00\x00\x00\x00\x00\x00\x00'
tRp267
sS'repeat_spatial_practice.thisRepN'
p268
I0
sg50
g83
sg38
g39
sa(dp269
S'repeat_spatial_practice.thisN'
p270
I0
sg35
g12
sg49
g31
(g33
S',\xd2[\x03\x97)\xe8?'
tRp271
sg19
S'j'
sg52
Vright_image_1_WHI.jpg
p272
sg30
g34
sS'trials_3.thisRepN'
p273
I0
sS'repeat_spatial_practice.thisIndex'
p274
g71
sg20
F0.084109428862575442
sg28
g29
sS'trials_3.thisIndex'
p275
g31
(g70
S'\x0e\x00\x00\x00'
tRp276
sS'trials_3.thisTrialN'
p277
I14
sg54
g31
(g33
S'\xf0\xe8\x1c\xc9\x14v\xdd?'
tRp278
sg48
g94
sg36
g37
sg51
g208
sS'repeat_spatial_practice.thisTrialN'
p279
I0
sS'trials_3.thisN'
p280
I14
sg53
g31
(g80
S'\x01\x00\x00\x00\x00\x00\x00\x00'
tRp281
sS'repeat_spatial_practice.thisRepN'
p282
I0
sg50
g83
sg38
g39
sa(dp283
S'repeat_spatial_practice.thisN'
p284
I0
sg35
g12
sg49
g31
(g33
S'\xba\xbah\xf3\x16u\xe8?'
tRp285
sg19
S'j'
sg52
Vahead_image_3_WHI.jpg
p286
sg30
g34
sS'trials_3.thisRepN'
p287
I0
sS'repeat_spatial_practice.thisIndex'
p288
g71
sg20
F0.10063564160373062
sg28
g29
sS'trials_3.thisIndex'
p289
g31
(g70
S'\x0f\x00\x00\x00'
tRp290
sS'trials_3.thisTrialN'
p291
I15
sg54
g31
(g33
S'\xf0\xe8\x1c\xc9\x14v\xdd?'
tRp292
sg48
g76
sg36
g37
sg51
g208
sS'repeat_spatial_practice.thisTrialN'
p293
I0
sS'trials_3.thisN'
p294
I15
sg53
g31
(g80
S'\x03\x00\x00\x00\x00\x00\x00\x00'
tRp295
sS'repeat_spatial_practice.thisRepN'
p296
I0
sg50
g83
sg38
g39
sa(dp297
S'repeat_spatial_practice.thisN'
p298
I0
sg35
g12
sg49
g31
(g33
S'\xa2e\x05\x97\xa7r\xeb?'
tRp299
sg19
S'j'
sg52
Vright_image_2_WHI.jpg
p300
sg30
g34
sS'trials_3.thisRepN'
p301
I0
sS'repeat_spatial_practice.thisIndex'
p302
g71
sg20
F0.10070556623395532
sg28
g29
sS'trials_3.thisIndex'
p303
g31
(g70
S'\x10\x00\x00\x00'
tRp304
sS'trials_3.thisTrialN'
p305
I16
sg54
g31
(g33
S'\xf0\xe8\x1c\xc9\x14v\xdd?'
tRp306
sg48
g94
sg36
g37
sg51
g208
sS'repeat_spatial_practice.thisTrialN'
p307
I0
sS'trials_3.thisN'
p308
I16
sg53
g31
(g80
S'\x02\x00\x00\x00\x00\x00\x00\x00'
tRp309
sS'repeat_spatial_practice.thisRepN'
p310
I0
sg50
g83
sg38
g39
sa(dp311
S'repeat_spatial_practice.thisN'
p312
I0
sg35
g12
sg49
g31
(g33
S'^\xb9^\x00\xf9!\xef?'
tRp313
sg19
S'f'
sg52
Vleft_image_2_WHI.jpg
p314
sg30
g34
sS'trials_3.thisRepN'
p315
I0
sS'repeat_spatial_practice.thisIndex'
p316
g71
sg20
F0.016965070448350161
sg28
g29
sS'trials_3.thisIndex'
p317
g31
(g70
S'\x11\x00\x00\x00'
tRp318
sS'trials_3.thisTrialN'
p319
I17
sg54
g31
(g33
S'\xf0\xe8\x1c\xc9\x14v\xdd?'
tRp320
sg48
g151
sg36
g37
sg51
g208
sS'repeat_spatial_practice.thisTrialN'
p321
I0
sS'trials_3.thisN'
p322
I17
sg53
g31
(g80
S'\x02\x00\x00\x00\x00\x00\x00\x00'
tRp323
sS'repeat_spatial_practice.thisRepN'
p324
I0
sg50
g83
sg38
g39
sa(dp325
S'repeat_spatial_practice.thisN'
p326
I0
sg35
g12
sg49
g31
(g33
S'\x00F?G\xd3\x8a\x9a?'
tRp327
sg19
S'j'
sg52
Vleft_word_1_WHI.jpg
p328
sg30
g34
sS'trials_3.thisRepN'
p329
I0
sS'repeat_spatial_practice.thisIndex'
p330
g71
sg20
F0.051143897348083556
sg28
g29
sS'trials_3.thisIndex'
p331
g31
(g70
S'\x12\x00\x00\x00'
tRp332
sS'trials_3.thisTrialN'
p333
I18
sg54
g31
(g33
S'xQ\xd3\x1b\x12E\xe2?'
tRp334
sg48
g151
sg36
g37
sg51
Vword
p335
sS'repeat_spatial_practice.thisTrialN'
p336
I0
sS'trials_3.thisN'
p337
I18
sg53
g31
(g80
S'\x01\x00\x00\x00\x00\x00\x00\x00'
tRp338
sS'repeat_spatial_practice.thisRepN'
p339
I0
sg50
g83
sg38
g39
sa(dp340
S'repeat_spatial_practice.thisN'
p341
I0
sg35
g12
sg49
g31
(g33
S'\xd0\xc49~\xb4}\xbb?'
tRp342
sg19
S'f'
sg52
Vright_word_3_WHI.jpg
p343
sg30
g34
sS'trials_3.thisRepN'
p344
I0
sS'repeat_spatial_practice.thisIndex'
p345
g71
sg20
F0.050602346891537309
sg28
g29
sS'trials_3.thisIndex'
p346
g31
(g70
S'\x13\x00\x00\x00'
tRp347
sS'trials_3.thisTrialN'
p348
I19
sg54
g31
(g33
S'xQ\xd3\x1b\x12E\xe2?'
tRp349
sg48
g94
sg36
g37
sg51
g335
sS'repeat_spatial_practice.thisTrialN'
p350
I0
sS'trials_3.thisN'
p351
I19
sg53
g31
(g80
S'\x03\x00\x00\x00\x00\x00\x00\x00'
tRp352
sS'repeat_spatial_practice.thisRepN'
p353
I0
sg50
g83
sg38
g39
sa(dp354
S'repeat_spatial_practice.thisN'
p355
I0
sg35
g12
sg49
g31
(g33
S'\x88\x90\xd0\x90\xc2j\xc6?'
tRp356
sg19
S'j'
sg52
Vleft_word_3_WHI.jpg
p357
sg30
g34
sS'trials_3.thisRepN'
p358
I0
sS'repeat_spatial_practice.thisIndex'
p359
g71
sg20
F0.068631208559963852
sg28
g29
sS'trials_3.thisIndex'
p360
g31
(g70
S'\x14\x00\x00\x00'
tRp361
sS'trials_3.thisTrialN'
p362
I20
sg54
g31
(g33
S'xQ\xd3\x1b\x12E\xe2?'
tRp363
sg48
g151
sg36
g37
sg51
g335
sS'repeat_spatial_practice.thisTrialN'
p364
I0
sS'trials_3.thisN'
p365
I20
sg53
g31
(g80
S'\x03\x00\x00\x00\x00\x00\x00\x00'
tRp366
sS'repeat_spatial_practice.thisRepN'
p367
I0
sg50
g83
sg38
g39
sa(dp368
S'repeat_spatial_practice.thisN'
p369
I0
sg35
g12
sg49
g31
(g33
S'@]\xac\xc5\xf5F\xc9?'
tRp370
sg19
S'f'
sg52
Vright_word_2_WHI.jpg
p371
sg30
g34
sS'trials_3.thisRepN'
p372
I0
sS'repeat_spatial_practice.thisIndex'
p373
g71
sg20
F0.034929566201753914
sg28
g29
sS'trials_3.thisIndex'
p374
g31
(g70
S'\x15\x00\x00\x00'
tRp375
sS'trials_3.thisTrialN'
p376
I21
sg54
g31
(g33
S'xQ\xd3\x1b\x12E\xe2?'
tRp377
sg48
g94
sg36
g37
sg51
g335
sS'repeat_spatial_practice.thisTrialN'
p378
I0
sS'trials_3.thisN'
p379
I21
sg53
g31
(g80
S'\x02\x00\x00\x00\x00\x00\x00\x00'
tRp380
sS'repeat_spatial_practice.thisRepN'
p381
I0
sg50
g83
sg38
g39
sa(dp382
S'repeat_spatial_practice.thisN'
p383
I0
sg35
g12
sg49
g31
(g33
S'\xa0\xbe\x81p\xce\xa0\xc9?'
tRp384
sg19
S'j'
sg52
Vahead_word_3_WHI.jpg
p385
sg30
g34
sS'trials_3.thisRepN'
p386
I0
sS'repeat_spatial_practice.thisIndex'
p387
g71
sg20
F0.052972471341490746
sg28
g29
sS'trials_3.thisIndex'
p388
g31
(g70
S'\x16\x00\x00\x00'
tRp389
sS'trials_3.thisTrialN'
p390
I22
sg54
g31
(g33
S'xQ\xd3\x1b\x12E\xe2?'
tRp391
sg48
g76
sg36
g37
sg51
g335
sS'repeat_spatial_practice.thisTrialN'
p392
I0
sS'trials_3.thisN'
p393
I22
sg53
g31
(g80
S'\x03\x00\x00\x00\x00\x00\x00\x00'
tRp394
sS'repeat_spatial_practice.thisRepN'
p395
I0
sg50
g83
sg38
g39
sa(dp396
S'repeat_spatial_practice.thisN'
p397
I0
sg35
g12
sg49
g31
(g33
S'\x00\xe02*\xe5+\xca?'
tRp398
sg19
S'f'
sg52
Vleft_word_2_WHI.jpg
p399
sg30
g34
sS'trials_3.thisRepN'
p400
I0
sS'repeat_spatial_practice.thisIndex'
p401
g71
sg20
F0.033687306276988238
sg28
g29
sS'trials_3.thisIndex'
p402
g31
(g70
S'\x17\x00\x00\x00'
tRp403
sS'trials_3.thisTrialN'
p404
I23
sg54
g31
(g33
S'xQ\xd3\x1b\x12E\xe2?'
tRp405
sg48
g151
sg36
g37
sg51
g335
sS'repeat_spatial_practice.thisTrialN'
p406
I0
sS'trials_3.thisN'
p407
I23
sg53
g31
(g80
S'\x02\x00\x00\x00\x00\x00\x00\x00'
tRp408
sS'repeat_spatial_practice.thisRepN'
p409
I0
sg50
g83
sg38
g39
sa(dp410
S'repeat_spatial_practice.thisN'
p411
I0
sg35
g12
sg49
g31
(g33
S'\x80\x82O^\xc1\x18\xcb?'
tRp412
sg19
S'j'
sg52
Vright_word_1_WHI.jpg
p413
sg30
g34
sS'trials_3.thisRepN'
p414
I0
sS'repeat_spatial_practice.thisIndex'
p415
g71
sg20
F0.051012532610911876
sg28
g29
sS'trials_3.thisIndex'
p416
g31
(g70
S'\x18\x00\x00\x00'
tRp417
sS'trials_3.thisTrialN'
p418
I24
sg54
g31
(g33
S'xQ\xd3\x1b\x12E\xe2?'
tRp419
sg48
g94
sg36
g37
sg51
g335
sS'repeat_spatial_practice.thisTrialN'
p420
I0
sS'trials_3.thisN'
p421
I24
sg53
g31
(g80
S'\x01\x00\x00\x00\x00\x00\x00\x00'
tRp422
sS'repeat_spatial_practice.thisRepN'
p423
I0
sg50
g83
sg38
g39
sa(dp424
S'repeat_spatial_practice.thisN'
p425
I0
sg35
g12
sg49
g31
(g33
S'P\x12\x8dnp\xc4\xd3?'
tRp426
sg19
S'f'
sg52
Vahead_word_2_WHI.jpg
p427
sg30
g34
sS'trials_3.thisRepN'
p428
I0
sS'repeat_spatial_practice.thisIndex'
p429
g71
sg20
F0.050393158046063036
sg28
g29
sS'trials_3.thisIndex'
p430
g31
(g70
S'\x19\x00\x00\x00'
tRp431
sS'trials_3.thisTrialN'
p432
I25
sg54
g31
(g33
S'xQ\xd3\x1b\x12E\xe2?'
tRp433
sg48
g76
sg36
g37
sg51
g335
sS'repeat_spatial_practice.thisTrialN'
p434
I0
sS'trials_3.thisN'
p435
I25
sg53
g31
(g80
S'\x02\x00\x00\x00\x00\x00\x00\x00'
tRp436
sS'repeat_spatial_practice.thisRepN'
p437
I0
sg50
g83
sg38
g39
sa(dp438
S'repeat_spatial_practice.thisN'
p439
I0
sg35
g12
sg49
g31
(g33
S'\x88n\x94yFe\xe8?'
tRp440
sg19
S'j'
sg52
Vahead_word_1_WHI.jpg
p441
sg30
g34
sS'trials_3.thisRepN'
p442
I0
sS'repeat_spatial_practice.thisIndex'
p443
g71
sg20
F0.068601366190705448
sg28
g29
sS'trials_3.thisIndex'
p444
g31
(g70
S'\x1a\x00\x00\x00'
tRp445
sS'trials_3.thisTrialN'
p446
I26
sg54
g31
(g33
S'xQ\xd3\x1b\x12E\xe2?'
tRp447
sg48
g76
sg36
g37
sg51
g335
sS'repeat_spatial_practice.thisTrialN'
p448
I0
sS'trials_3.thisN'
p449
I26
sg53
g31
(g80
S'\x01\x00\x00\x00\x00\x00\x00\x00'
tRp450
sS'repeat_spatial_practice.thisRepN'
p451
I0
sg50
g83
sg38
g39
sa(dp452
S'repeat_spatial_practice.thisN'
p453
I1
sg35
g12
sS'Random_within_format'
p454
g31
(g33
S'\xc0\x142\x86yf\xbe?'
tRp455
sg19
S'f'
sS'Stimulus_Practice'
p456
Vahead_schema_2_WHI.jpg
p457
sg17
S'space'
p458
sg30
g34
sS'trials_3.thisRepN'
p459
I0
sS'repeat_spatial_practice.thisIndex'
p460
g31
(g70
S'\x00\x00\x00\x00'
tRp461
sg20
F0.30153214017627761
sg28
g29
sS'trials_3.thisIndex'
p462
g31
(g70
S'\x00\x00\x00\x00'
tRp463
sS'trials_3.thisTrialN'
p464
I0
sS'Random_format_order'
p465
g31
(g33
S'\x10`J[\xa1\x1b\xd7?'
tRp466
sS'Direction'
p467
Vahead
p468
sg36
g37
sS'Format'
p469
Vschema
p470
sS'repeat_spatial_practice.thisTrialN'
p471
I0
sS'trials_3.thisN'
p472
I0
sS'Number'
p473
g31
(g80
S'\x02\x00\x00\x00\x00\x00\x00\x00'
tRp474
sS'repeat_spatial_practice.thisRepN'
p475
I1
sS'Background'
p476
V_WHI
p477
sg38
g39
sg18
F0.68419210967840627
sa(dp478
S'repeat_spatial_practice.thisN'
p479
I1
sg35
g12
sg454
g31
(g33
S'@\x87\x84t\xc1\xb0\xc7?'
tRp480
sg19
S'j'
sg456
Vright_schema_1_WHI.jpg
p481
sg30
g34
sS'trials_3.thisRepN'
p482
I0
sS'repeat_spatial_practice.thisIndex'
p483
g461
sg20
F0.034631435526534915
sg28
g29
sS'trials_3.thisIndex'
p484
g31
(g70
S'\x01\x00\x00\x00'
tRp485
sS'trials_3.thisTrialN'
p486
I1
sg465
g31
(g33
S'\x10`J[\xa1\x1b\xd7?'
tRp487
sg467
Vright
p488
sg36
g37
sg469
g470
sS'repeat_spatial_practice.thisTrialN'
p489
I0
sS'trials_3.thisN'
p490
I1
sg473
g31
(g80
S'\x01\x00\x00\x00\x00\x00\x00\x00'
tRp491
sS'repeat_spatial_practice.thisRepN'
p492
I1
sg476
g477
sg38
g39
sa(dp493
S'repeat_spatial_practice.thisN'
p494
I1
sg35
g12
sg454
g31
(g33
S'H}a(\xe6,\xd0?'
tRp495
sg19
S'f'
sg456
Vright_schema_3_WHI.jpg
p496
sg30
g34
sS'trials_3.thisRepN'
p497
I0
sS'repeat_spatial_practice.thisIndex'
p498
g461
sg20
F0.051251271215733141
sg28
g29
sS'trials_3.thisIndex'
p499
g31
(g70
S'\x02\x00\x00\x00'
tRp500
sS'trials_3.thisTrialN'
p501
I2
sg465
g31
(g33
S'\x10`J[\xa1\x1b\xd7?'
tRp502
sg467
g488
sg36
g37
sg469
g470
sS'repeat_spatial_practice.thisTrialN'
p503
I0
sS'trials_3.thisN'
p504
I2
sg473
g31
(g80
S'\x03\x00\x00\x00\x00\x00\x00\x00'
tRp505
sS'repeat_spatial_practice.thisRepN'
p506
I1
sg476
g477
sg38
g39
sa(dp507
S'repeat_spatial_practice.thisN'
p508
I1
sg35
g12
sg454
g31
(g33
S'pXD!\xdb\x9b\xe2?'
tRp509
sg19
S'j'
sg456
Vahead_schema_3_WHI.jpg
p510
sg30
g34
sS'trials_3.thisRepN'
p511
I0
sS'repeat_spatial_practice.thisIndex'
p512
g461
sg20
F0.033471095666754991
sg28
g29
sS'trials_3.thisIndex'
p513
g31
(g70
S'\x03\x00\x00\x00'
tRp514
sS'trials_3.thisTrialN'
p515
I3
sg465
g31
(g33
S'\x10`J[\xa1\x1b\xd7?'
tRp516
sg467
g468
sg36
g37
sg469
g470
sS'repeat_spatial_practice.thisTrialN'
p517
I0
sS'trials_3.thisN'
p518
I3
sg473
g31
(g80
S'\x03\x00\x00\x00\x00\x00\x00\x00'
tRp519
sS'repeat_spatial_practice.thisRepN'
p520
I1
sg476
g477
sg38
g39
sa(dp521
S'repeat_spatial_practice.thisN'
p522
I1
sg35
g12
sg454
g31
(g33
S'\xf8,\xccB\xd7\xe9\xe3?'
tRp523
sg19
S'f'
sg456
Vahead_schema_1_WHI.jpg
p524
sg30
g34
sS'trials_3.thisRepN'
p525
I0
sS'repeat_spatial_practice.thisIndex'
p526
g461
sg20
F0.033740554354153574
sg28
g29
sS'trials_3.thisIndex'
p527
g31
(g70
S'\x04\x00\x00\x00'
tRp528
sS'trials_3.thisTrialN'
p529
I4
sg465
g31
(g33
S'\x10`J[\xa1\x1b\xd7?'
tRp530
sg467
g468
sg36
g37
sg469
g470
sS'repeat_spatial_practice.thisTrialN'
p531
I0
sS'trials_3.thisN'
p532
I4
sg473
g31
(g80
S'\x01\x00\x00\x00\x00\x00\x00\x00'
tRp533
sS'repeat_spatial_practice.thisRepN'
p534
I1
sg476
g477
sg38
g39
sa(dp535
S'repeat_spatial_practice.thisN'
p536
I1
sg35
g12
sg454
g31
(g33
S'\xb0\x86\x11\x8a\xd94\xe4?'
tRp537
sg19
S'j'
sg456
Vleft_schema_3_WHI.jpg
p538
sg30
g34
sS'trials_3.thisRepN'
p539
I0
sS'repeat_spatial_practice.thisIndex'
p540
g461
sg20
F0.067328971286769956
sg28
g29
sS'trials_3.thisIndex'
p541
g31
(g70
S'\x05\x00\x00\x00'
tRp542
sS'trials_3.thisTrialN'
p543
I5
sg465
g31
(g33
S'\x10`J[\xa1\x1b\xd7?'
tRp544
sg467
Vleft
p545
sg36
g37
sg469
g470
sS'repeat_spatial_practice.thisTrialN'
p546
I0
sS'trials_3.thisN'
p547
I5
sg473
g31
(g80
S'\x03\x00\x00\x00\x00\x00\x00\x00'
tRp548
sS'repeat_spatial_practice.thisRepN'
p549
I1
sg476
g477
sg38
g39
sa(dp550
S'repeat_spatial_practice.thisN'
p551
I1
sg35
g12
sg454
g31
(g33
S'\xfc\xe6\xadQ\x18D\xe7?'
tRp552
sg19
S'f'
sg456
Vleft_schema_1_WHI.jpg
p553
sg30
g34
sS'trials_3.thisRepN'
p554
I0
sS'repeat_spatial_practice.thisIndex'
p555
g461
sg20
F0.051221136294770986
sg28
g29
sS'trials_3.thisIndex'
p556
g31
(g70
S'\x06\x00\x00\x00'
tRp557
sS'trials_3.thisTrialN'
p558
I6
sg465
g31
(g33
S'\x10`J[\xa1\x1b\xd7?'
tRp559
sg467
g545
sg36
g37
sg469
g470
sS'repeat_spatial_practice.thisTrialN'
p560
I0
sS'trials_3.thisN'
p561
I6
sg473
g31
(g80
S'\x01\x00\x00\x00\x00\x00\x00\x00'
tRp562
sS'repeat_spatial_practice.thisRepN'
p563
I1
sg476
g477
sg38
g39
sa(dp564
S'repeat_spatial_practice.thisN'
p565
I1
sg35
g12
sg454
g31
(g33
S'$\xb2\xae\xcbXM\xea?'
tRp566
sg19
S'j'
sg456
Vright_schema_2_WHI.jpg
p567
sg30
g34
sS'trials_3.thisRepN'
p568
I0
sS'repeat_spatial_practice.thisIndex'
p569
g461
sg20
F0.033459685393609107
sg28
g29
sS'trials_3.thisIndex'
p570
g31
(g70
S'\x07\x00\x00\x00'
tRp571
sS'trials_3.thisTrialN'
p572
I7
sg465
g31
(g33
S'\x10`J[\xa1\x1b\xd7?'
tRp573
sg467
g488
sg36
g37
sg469
g470
sS'repeat_spatial_practice.thisTrialN'
p574
I0
sS'trials_3.thisN'
p575
I7
sg473
g31
(g80
S'\x02\x00\x00\x00\x00\x00\x00\x00'
tRp576
sS'repeat_spatial_practice.thisRepN'
p577
I1
sg476
g477
sg38
g39
sa(dp578
S'repeat_spatial_practice.thisN'
p579
I1
sg35
g12
sg454
g31
(g33
S'\x92\xa1\xaa\x9f\xee\xb7\xec?'
tRp580
sg19
S'f'
sg456
Vleft_schema_2_WHI.jpg
p581
sg30
g34
sS'trials_3.thisRepN'
p582
I0
sS'repeat_spatial_practice.thisIndex'
p583
g461
sg20
F0.017247694835532457
sg28
g29
sS'trials_3.thisIndex'
p584
g31
(g70
S'\x08\x00\x00\x00'
tRp585
sS'trials_3.thisTrialN'
p586
I8
sg465
g31
(g33
S'\x10`J[\xa1\x1b\xd7?'
tRp587
sg467
g545
sg36
g37
sg469
g470
sS'repeat_spatial_practice.thisTrialN'
p588
I0
sS'trials_3.thisN'
p589
I8
sg473
g31
(g80
S'\x02\x00\x00\x00\x00\x00\x00\x00'
tRp590
sS'repeat_spatial_practice.thisRepN'
p591
I1
sg476
g477
sg38
g39
sa(dp592
S'repeat_spatial_practice.thisN'
p593
I1
sg35
g12
sg454
g31
(g33
S'\x00\xab\xc8,Z\xfe\x9a?'
tRp594
sg19
S'j'
sg456
Vahead_image_1_WHI.jpg
p595
sg30
g34
sS'trials_3.thisRepN'
p596
I0
sS'repeat_spatial_practice.thisIndex'
p597
g461
sg20
F0.050891700433567166
sg28
g29
sS'trials_3.thisIndex'
p598
g31
(g70
S'\t\x00\x00\x00'
tRp599
sS'trials_3.thisTrialN'
p600
I9
sg465
g31
(g33
S'\xf0\xe8\x1c\xc9\x14v\xdd?'
tRp601
sg467
g468
sg36
g37
sg469
Vimage
p602
sS'repeat_spatial_practice.thisTrialN'
p603
I0
sS'trials_3.thisN'
p604
I9
sg473
g31
(g80
S'\x01\x00\x00\x00\x00\x00\x00\x00'
tRp605
sS'repeat_spatial_practice.thisRepN'
p606
I1
sg476
g477
sg38
g39
sa(dp607
S'repeat_spatial_practice.thisN'
p608
I1
sg35
g12
sg454
g31
(g33
S'\x00\xcfh\xbak\x07\xa3?'
tRp609
sg19
S'j'
sg456
Vahead_image_2_WHI.jpg
p610
sg30
g34
sS'trials_3.thisRepN'
p611
I0
sS'repeat_spatial_practice.thisIndex'
p612
g461
sg20
F0.10145016154274344
sg28
g29
sS'trials_3.thisIndex'
p613
g31
(g70
S'\n\x00\x00\x00'
tRp614
sS'trials_3.thisTrialN'
p615
I10
sg465
g31
(g33
S'\xf0\xe8\x1c\xc9\x14v\xdd?'
tRp616
sg467
g468
sg36
g37
sg469
g602
sS'repeat_spatial_practice.thisTrialN'
p617
I0
sS'trials_3.thisN'
p618
I10
sg473
g31
(g80
S'\x02\x00\x00\x00\x00\x00\x00\x00'
tRp619
sS'repeat_spatial_practice.thisRepN'
p620
I1
sg476
g477
sg38
g39
sa(dp621
S'repeat_spatial_practice.thisN'
p622
I1
sg35
g12
sg454
g31
(g33
S' \xcf\x14\\\xa0T\xc9?'
tRp623
sg19
S'j'
sg456
Vleft_image_3_WHI.jpg
p624
sg30
g34
sS'trials_3.thisRepN'
p625
I0
sS'repeat_spatial_practice.thisIndex'
p626
g461
sg20
F0.08459480560850352
sg28
g29
sS'trials_3.thisIndex'
p627
g31
(g70
S'\x0b\x00\x00\x00'
tRp628
sS'trials_3.thisTrialN'
p629
I11
sg465
g31
(g33
S'\xf0\xe8\x1c\xc9\x14v\xdd?'
tRp630
sg467
g545
sg36
g37
sg469
g602
sS'repeat_spatial_practice.thisTrialN'
p631
I0
sS'trials_3.thisN'
p632
I11
sg473
g31
(g80
S'\x03\x00\x00\x00\x00\x00\x00\x00'
tRp633
sS'repeat_spatial_practice.thisRepN'
p634
I1
sg476
g477
sg38
g39
sa(dp635
S'repeat_spatial_practice.thisN'
p636
I1
sg35
g12
sg454
g31
(g33
S'\xa8\xb8\x95p\xb4\x10\xe3?'
tRp637
sg19
S'f'
sg456
Vleft_image_1_WHI.jpg
p638
sg30
g34
sS'trials_3.thisRepN'
p639
I0
sS'repeat_spatial_practice.thisIndex'
p640
g461
sg20
F0.00044734234688803554
sg28
g29
sS'trials_3.thisIndex'
p641
g31
(g70
S'\x0c\x00\x00\x00'
tRp642
sS'trials_3.thisTrialN'
p643
I12
sg465
g31
(g33
S'\xf0\xe8\x1c\xc9\x14v\xdd?'
tRp644
sg467
g545
sg36
g37
sg469
g602
sS'repeat_spatial_practice.thisTrialN'
p645
I0
sS'trials_3.thisN'
p646
I12
sg473
g31
(g80
S'\x01\x00\x00\x00\x00\x00\x00\x00'
tRp647
sS'repeat_spatial_practice.thisRepN'
p648
I1
sg476
g477
sg38
g39
sa(dp649
S'repeat_spatial_practice.thisN'
p650
I1
sg35
g12
sg454
g31
(g33
S'\xc0\xab%\xd1^\xe7\xe7?'
tRp651
sg19
S'j'
sg456
Vright_image_3_WHI.jpg
p652
sg30
g34
sS'trials_3.thisRepN'
p653
I0
sS'repeat_spatial_practice.thisIndex'
p654
g461
sg20
F0.067526457307394594
sg28
g29
sS'trials_3.thisIndex'
p655
g31
(g70
S'\r\x00\x00\x00'
tRp656
sS'trials_3.thisTrialN'
p657
I13
sg465
g31
(g33
S'\xf0\xe8\x1c\xc9\x14v\xdd?'
tRp658
sg467
g488
sg36
g37
sg469
g602
sS'repeat_spatial_practice.thisTrialN'
p659
I0
sS'trials_3.thisN'
p660
I13
sg473
g31
(g80
S'\x03\x00\x00\x00\x00\x00\x00\x00'
tRp661
sS'repeat_spatial_practice.thisRepN'
p662
I1
sg476
g477
sg38
g39
sa(dp663
S'repeat_spatial_practice.thisN'
p664
I1
sg35
g12
sg454
g31
(g33
S',\xd2[\x03\x97)\xe8?'
tRp665
sg19
S'f'
sg456
Vright_image_1_WHI.jpg
p666
sg30
g34
sS'trials_3.thisRepN'
p667
I0
sS'repeat_spatial_practice.thisIndex'
p668
g461
sg20
F0.017484678013715893
sg28
g29
sS'trials_3.thisIndex'
p669
g31
(g70
S'\x0e\x00\x00\x00'
tRp670
sS'trials_3.thisTrialN'
p671
I14
sg465
g31
(g33
S'\xf0\xe8\x1c\xc9\x14v\xdd?'
tRp672
sg467
g488
sg36
g37
sg469
g602
sS'repeat_spatial_practice.thisTrialN'
p673
I0
sS'trials_3.thisN'
p674
I14
sg473
g31
(g80
S'\x01\x00\x00\x00\x00\x00\x00\x00'
tRp675
sS'repeat_spatial_practice.thisRepN'
p676
I1
sg476
g477
sg38
g39
sa(dp677
S'repeat_spatial_practice.thisN'
p678
I1
sg35
g12
sg454
g31
(g33
S'\xba\xbah\xf3\x16u\xe8?'
tRp679
sg19
S'j'
sg456
Vahead_image_3_WHI.jpg
p680
sg30
g34
sS'trials_3.thisRepN'
p681
I0
sS'repeat_spatial_practice.thisIndex'
p682
g461
sg20
F0.067708729533478618
sg28
g29
sS'trials_3.thisIndex'
p683
g31
(g70
S'\x0f\x00\x00\x00'
tRp684
sS'trials_3.thisTrialN'
p685
I15
sg465
g31
(g33
S'\xf0\xe8\x1c\xc9\x14v\xdd?'
tRp686
sg467
g468
sg36
g37
sg469
g602
sS'repeat_spatial_practice.thisTrialN'
p687
I0
sS'trials_3.thisN'
p688
I15
sg473
g31
(g80
S'\x03\x00\x00\x00\x00\x00\x00\x00'
tRp689
sS'repeat_spatial_practice.thisRepN'
p690
I1
sg476
g477
sg38
g39
sa(dp691
S'repeat_spatial_practice.thisN'
p692
I1
sg35
g12
sg454
g31
(g33
S'\xa2e\x05\x97\xa7r\xeb?'
tRp693
sg19
S'f'
sg456
Vright_image_2_WHI.jpg
p694
sg30
g34
sS'trials_3.thisRepN'
p695
I0
sS'repeat_spatial_practice.thisIndex'
p696
g461
sg20
F0.034520843415521085
sg28
g29
sS'trials_3.thisIndex'
p697
g31
(g70
S'\x10\x00\x00\x00'
tRp698
sS'trials_3.thisTrialN'
p699
I16
sg465
g31
(g33
S'\xf0\xe8\x1c\xc9\x14v\xdd?'
tRp700
sg467
g488
sg36
g37
sg469
g602
sS'repeat_spatial_practice.thisTrialN'
p701
I0
sS'trials_3.thisN'
p702
I16
sg473
g31
(g80
S'\x02\x00\x00\x00\x00\x00\x00\x00'
tRp703
sS'repeat_spatial_practice.thisRepN'
p704
I1
sg476
g477
sg38
g39
sa(dp705
S'repeat_spatial_practice.thisN'
p706
I1
sg35
g12
sg454
g31
(g33
S'^\xb9^\x00\xf9!\xef?'
tRp707
sg19
S'j'
sg456
Vleft_image_2_WHI.jpg
p708
sg30
g34
sS'trials_3.thisRepN'
p709
I0
sS'repeat_spatial_practice.thisIndex'
p710
g461
sg20
F0.01698145450791344
sg28
g29
sS'trials_3.thisIndex'
p711
g31
(g70
S'\x11\x00\x00\x00'
tRp712
sS'trials_3.thisTrialN'
p713
I17
sg465
g31
(g33
S'\xf0\xe8\x1c\xc9\x14v\xdd?'
tRp714
sg467
g545
sg36
g37
sg469
g602
sS'repeat_spatial_practice.thisTrialN'
p715
I0
sS'trials_3.thisN'
p716
I17
sg473
g31
(g80
S'\x02\x00\x00\x00\x00\x00\x00\x00'
tRp717
sS'repeat_spatial_practice.thisRepN'
p718
I1
sg476
g477
sg38
g39
sa(dp719
S'repeat_spatial_practice.thisN'
p720
I1
sg35
g12
sg454
g31
(g33
S'\x00F?G\xd3\x8a\x9a?'
tRp721
sg19
S'f'
sg456
Vleft_word_1_WHI.jpg
p722
sg30
g34
sS'trials_3.thisRepN'
p723
I0
sS'repeat_spatial_practice.thisIndex'
p724
g461
sg20
F0.067445414897520095
sg28
g29
sS'trials_3.thisIndex'
p725
g31
(g70
S'\x12\x00\x00\x00'
tRp726
sS'trials_3.thisTrialN'
p727
I18
sg465
g31
(g33
S'xQ\xd3\x1b\x12E\xe2?'
tRp728
sg467
g545
sg36
g37
sg469
Vword
p729
sS'repeat_spatial_practice.thisTrialN'
p730
I0
sS'trials_3.thisN'
p731
I18
sg473
g31
(g80
S'\x01\x00\x00\x00\x00\x00\x00\x00'
tRp732
sS'repeat_spatial_practice.thisRepN'
p733
I1
sg476
g477
sg38
g39
sa(dp734
S'repeat_spatial_practice.thisN'
p735
I1
sg35
g12
sg454
g31
(g33
S'\xd0\xc49~\xb4}\xbb?'
tRp736
sg19
S'j'
sg456
Vright_word_3_WHI.jpg
p737
sg30
g34
sS'trials_3.thisRepN'
p738
I0
sS'repeat_spatial_practice.thisIndex'
p739
g461
sg20
F0.033701349690090865
sg28
g29
sS'trials_3.thisIndex'
p740
g31
(g70
S'\x13\x00\x00\x00'
tRp741
sS'trials_3.thisTrialN'
p742
I19
sg465
g31
(g33
S'xQ\xd3\x1b\x12E\xe2?'
tRp743
sg467
g488
sg36
g37
sg469
g729
sS'repeat_spatial_practice.thisTrialN'
p744
I0
sS'trials_3.thisN'
p745
I19
sg473
g31
(g80
S'\x03\x00\x00\x00\x00\x00\x00\x00'
tRp746
sS'repeat_spatial_practice.thisRepN'
p747
I1
sg476
g477
sg38
g39
sa(dp748
S'repeat_spatial_practice.thisN'
p749
I1
sg35
g12
sg454
g31
(g33
S'\x88\x90\xd0\x90\xc2j\xc6?'
tRp750
sg19
S'f'
sg456
Vleft_word_3_WHI.jpg
p751
sg30
g34
sS'trials_3.thisRepN'
p752
I0
sS'repeat_spatial_practice.thisIndex'
p753
g461
sg20
F0.050621949194464833
sg28
g29
sS'trials_3.thisIndex'
p754
g31
(g70
S'\x14\x00\x00\x00'
tRp755
sS'trials_3.thisTrialN'
p756
I20
sg465
g31
(g33
S'xQ\xd3\x1b\x12E\xe2?'
tRp757
sg467
g545
sg36
g37
sg469
g729
sS'repeat_spatial_practice.thisTrialN'
p758
I0
sS'trials_3.thisN'
p759
I20
sg473
g31
(g80
S'\x03\x00\x00\x00\x00\x00\x00\x00'
tRp760
sS'repeat_spatial_practice.thisRepN'
p761
I1
sg476
g477
sg38
g39
sa(dp762
S'repeat_spatial_practice.thisN'
p763
I1
sg35
g12
sg454
g31
(g33
S'@]\xac\xc5\xf5F\xc9?'
tRp764
sg19
S'j'
sg456
Vright_word_2_WHI.jpg
p765
sg30
g34
sS'trials_3.thisRepN'
p766
I0
sS'repeat_spatial_practice.thisIndex'
p767
g461
sg20
F0.051014288037549704
sg28
g29
sS'trials_3.thisIndex'
p768
g31
(g70
S'\x15\x00\x00\x00'
tRp769
sS'trials_3.thisTrialN'
p770
I21
sg465
g31
(g33
S'xQ\xd3\x1b\x12E\xe2?'
tRp771
sg467
g488
sg36
g37
sg469
g729
sS'repeat_spatial_practice.thisTrialN'
p772
I0
sS'trials_3.thisN'
p773
I21
sg473
g31
(g80
S'\x02\x00\x00\x00\x00\x00\x00\x00'
tRp774
sS'repeat_spatial_practice.thisRepN'
p775
I1
sg476
g477
sg38
g39
sa(dp776
S'repeat_spatial_practice.thisN'
p777
I1
sg35
g12
sg454
g31
(g33
S'\xa0\xbe\x81p\xce\xa0\xc9?'
tRp778
sg19
S'f'
sg456
Vahead_word_3_WHI.jpg
p779
sg30
g34
sS'trials_3.thisRepN'
p780
I0
sS'repeat_spatial_practice.thisIndex'
p781
g461
sg20
F0.05122406204463914
sg28
g29
sS'trials_3.thisIndex'
p782
g31
(g70
S'\x16\x00\x00\x00'
tRp783
sS'trials_3.thisTrialN'
p784
I22
sg465
g31
(g33
S'xQ\xd3\x1b\x12E\xe2?'
tRp785
sg467
g468
sg36
g37
sg469
g729
sS'repeat_spatial_practice.thisTrialN'
p786
I0
sS'trials_3.thisN'
p787
I22
sg473
g31
(g80
S'\x03\x00\x00\x00\x00\x00\x00\x00'
tRp788
sS'repeat_spatial_practice.thisRepN'
p789
I1
sg476
g477
sg38
g39
sa(dp790
S'repeat_spatial_practice.thisN'
p791
I1
sg35
g12
sg454
g31
(g33
S'\x00\xe02*\xe5+\xca?'
tRp792
sg19
S'j'
sg456
Vleft_word_2_WHI.jpg
p793
sg30
g34
sS'trials_3.thisRepN'
p794
I0
sS'repeat_spatial_practice.thisIndex'
p795
g461
sg20
F0.00078643305459991097
sg28
g29
sS'trials_3.thisIndex'
p796
g31
(g70
S'\x17\x00\x00\x00'
tRp797
sS'trials_3.thisTrialN'
p798
I23
sg465
g31
(g33
S'xQ\xd3\x1b\x12E\xe2?'
tRp799
sg467
g545
sg36
g37
sg469
g729
sS'repeat_spatial_practice.thisTrialN'
p800
I0
sS'trials_3.thisN'
p801
I23
sg473
g31
(g80
S'\x02\x00\x00\x00\x00\x00\x00\x00'
tRp802
sS'repeat_spatial_practice.thisRepN'
p803
I1
sg476
g477
sg38
g39
sa(dp804
S'repeat_spatial_practice.thisN'
p805
I1
sg35
g12
sg454
g31
(g33
S'\x80\x82O^\xc1\x18\xcb?'
tRp806
sg19
S'f'
sg456
Vright_word_1_WHI.jpg
p807
sg30
g34
sS'trials_3.thisRepN'
p808
I0
sS'repeat_spatial_practice.thisIndex'
p809
g461
sg20
F0.068206686817575246
sg28
g29
sS'trials_3.thisIndex'
p810
g31
(g70
S'\x18\x00\x00\x00'
tRp811
sS'trials_3.thisTrialN'
p812
I24
sg465
g31
(g33
S'xQ\xd3\x1b\x12E\xe2?'
tRp813
sg467
g488
sg36
g37
sg469
g729
sS'repeat_spatial_practice.thisTrialN'
p814
I0
sS'trials_3.thisN'
p815
I24
sg473
g31
(g80
S'\x01\x00\x00\x00\x00\x00\x00\x00'
tRp816
sS'repeat_spatial_practice.thisRepN'
p817
I1
sg476
g477
sg38
g39
sa(dp818
S'repeat_spatial_practice.thisN'
p819
I1
sg35
g12
sg454
g31
(g33
S'P\x12\x8dnp\xc4\xd3?'
tRp820
sg19
S'j'
sg456
Vahead_word_2_WHI.jpg
p821
sg30
g34
sS'trials_3.thisRepN'
p822
I0
sS'repeat_spatial_practice.thisIndex'
p823
g461
sg20
F0.00041252624941989779
sg28
g29
sS'trials_3.thisIndex'
p824
g31
(g70
S'\x19\x00\x00\x00'
tRp825
sS'trials_3.thisTrialN'
p826
I25
sg465
g31
(g33
S'xQ\xd3\x1b\x12E\xe2?'
tRp827
sg467
g468
sg36
g37
sg469
g729
sS'repeat_spatial_practice.thisTrialN'
p828
I0
sS'trials_3.thisN'
p829
I25
sg473
g31
(g80
S'\x02\x00\x00\x00\x00\x00\x00\x00'
tRp830
sS'repeat_spatial_practice.thisRepN'
p831
I1
sg476
g477
sg38
g39
sa(dp832
S'repeat_spatial_practice.thisN'
p833
I1
sg35
g12
sg454
g31
(g33
S'\x88n\x94yFe\xe8?'
tRp834
sg19
S'f'
sg456
Vahead_word_1_WHI.jpg
p835
sg30
g34
sS'trials_3.thisRepN'
p836
I0
sS'repeat_spatial_practice.thisIndex'
p837
g461
sg20
F0.053436782851349562
sg28
g29
sS'trials_3.thisIndex'
p838
g31
(g70
S'\x1a\x00\x00\x00'
tRp839
sS'trials_3.thisTrialN'
p840
I26
sg465
g31
(g33
S'xQ\xd3\x1b\x12E\xe2?'
tRp841
sg467
g468
sg36
g37
sg469
g729
sS'repeat_spatial_practice.thisTrialN'
p842
I0
sS'trials_3.thisN'
p843
I26
sg473
g31
(g80
S'\x01\x00\x00\x00\x00\x00\x00\x00'
tRp844
sS'repeat_spatial_practice.thisRepN'
p845
I1
sg476
g477
sg38
g39
sa(dp846
g35
g12
sg36
g37
sg21
S'space'
p847
sg28
g29
sg30
g34
sg22
F0.51788052771007642
sg38
g39
sa(dp848
g56
Vahead
p849
sg36
g37
sS'trials_2.thisRepN'
p850
I0
sS'trials_2.thisTrialN'
p851
I0
sg55
Vahead_schema_18_WHI.jpg
p852
sg58
Vschema
p853
sg30
g34
sg57
g31
(g80
S'\x12\x00\x00\x00\x00\x00\x00\x00'
tRp854
sg23
S'f'
sg35
g12
sS'trials_2.thisIndex'
p855
g31
(g70
S'\x00\x00\x00\x00'
tRp856
sg24
F0.3006918738828972
sg28
g29
sS'trials_2.thisN'
p857
I0
sg38
g39
sa(dp858
g56
Vleft
p859
sg36
g37
sS'trials_2.thisRepN'
p860
I0
sS'trials_2.thisTrialN'
p861
I1
sg55
Vleft_schema_16_WHI.jpg
p862
sg58
g853
sg30
g34
sg57
g31
(g80
S'\x10\x00\x00\x00\x00\x00\x00\x00'
tRp863
sg23
S'j'
sg35
g12
sS'trials_2.thisIndex'
p864
g31
(g70
S'\x01\x00\x00\x00'
tRp865
sg24
F0.10134717624168843
sg28
g29
sS'trials_2.thisN'
p866
I1
sg38
g39
sa(dp867
g56
g849
sg36
g37
sS'trials_2.thisRepN'
p868
I0
sS'trials_2.thisTrialN'
p869
I2
sg55
Vahead_schema_5_WHI.jpg
p870
sg58
g853
sg30
g34
sg57
g31
(g80
S'\x05\x00\x00\x00\x00\x00\x00\x00'
tRp871
sg23
S'f'
sg35
g12
sS'trials_2.thisIndex'
p872
g31
(g70
S'\x02\x00\x00\x00'
tRp873
sg24
F0.034332719689700752
sg28
g29
sS'trials_2.thisN'
p874
I2
sg38
g39
sa(dp875
g56
g859
sg36
g37
sS'trials_2.thisRepN'
p876
I0
sS'trials_2.thisTrialN'
p877
I3
sg55
Vleft_schema_11_WHI.jpg
p878
sg58
g853
sg30
g34
sg57
g31
(g80
S'\x0b\x00\x00\x00\x00\x00\x00\x00'
tRp879
sg23
S'j'
sg35
g12
sS'trials_2.thisIndex'
p880
g31
(g70
S'\x03\x00\x00\x00'
tRp881
sg24
F0.016881980001926422
sg28
g29
sS'trials_2.thisN'
p882
I3
sg38
g39
sa(dp883
g56
g849
sg36
g37
sS'trials_2.thisRepN'
p884
I0
sS'trials_2.thisTrialN'
p885
I4
sg55
Vahead_schema_21_WHI.jpg
p886
sg58
g853
sg30
g34
sg57
g31
(g80
S'\x15\x00\x00\x00\x00\x00\x00\x00'
tRp887
sg23
S'f'
sg35
g12
sS'trials_2.thisIndex'
p888
g31
(g70
S'\x04\x00\x00\x00'
tRp889
sg24
F0.084095092897769064
sg28
g29
sS'trials_2.thisN'
p890
I4
sg38
g39
sa(dp891
g56
Vright
p892
sg36
g37
sS'trials_2.thisRepN'
p893
I0
sS'trials_2.thisTrialN'
p894
I5
sg55
Vright_schema_19_WHI.jpg
p895
sg58
g853
sg30
g34
sg57
g31
(g80
S'\x13\x00\x00\x00\x00\x00\x00\x00'
tRp896
sg23
S'j'
sg35
g12
sS'trials_2.thisIndex'
p897
g31
(g70
S'\x05\x00\x00\x00'
tRp898
sg24
F0.01719620218500495
sg28
g29
sS'trials_2.thisN'
p899
I5
sg38
g39
sa(dp900
g56
g892
sg36
g37
sS'trials_2.thisRepN'
p901
I0
sS'trials_2.thisTrialN'
p902
I6
sg55
Vright_schema_13_WHI.jpg
p903
sg58
g853
sg30
g34
sg57
g31
(g80
S'\r\x00\x00\x00\x00\x00\x00\x00'
tRp904
sg23
S'f'
sg35
g12
sS'trials_2.thisIndex'
p905
g31
(g70
S'\x06\x00\x00\x00'
tRp906
sg24
F0.0679094337974675
sg28
g29
sS'trials_2.thisN'
p907
I6
sg38
g39
sa(dp908
g56
g859
sg36
g37
sS'trials_2.thisRepN'
p909
I0
sS'trials_2.thisTrialN'
p910
I7
sg55
Vleft_schema_3_WHI.jpg
p911
sg58
g853
sg30
g34
sg57
g31
(g80
S'\x03\x00\x00\x00\x00\x00\x00\x00'
tRp912
sg23
S'j'
sg35
g12
sS'trials_2.thisIndex'
p913
g31
(g70
S'\x07\x00\x00\x00'
tRp914
sg24
F0.017105504928622395
sg28
g29
sS'trials_2.thisN'
p915
I7
sg38
g39
sa(dp916
g56
g892
sg36
g37
sS'trials_2.thisRepN'
p917
I0
sS'trials_2.thisTrialN'
p918
I8
sg55
Vright_schema_10_WHI.jpg
p919
sg58
g853
sg30
g34
sg57
g31
(g80
S'\n\x00\x00\x00\x00\x00\x00\x00'
tRp920
sg23
S'f'
sg35
g12
sS'trials_2.thisIndex'
p921
g31
(g70
S'\x08\x00\x00\x00'
tRp922
sg24
F0.071286883030552417
sg28
g29
sS'trials_2.thisN'
p923
I8
sg38
g39
sa(dp924
g56
g859
sg36
g37
sS'trials_2.thisRepN'
p925
I0
sS'trials_2.thisTrialN'
p926
I9
sg55
Vleft_schema_4_WHI.jpg
p927
sg58
g853
sg30
g34
sg57
g31
(g80
S'\x04\x00\x00\x00\x00\x00\x00\x00'
tRp928
sg23
S'j'
sg35
g12
sS'trials_2.thisIndex'
p929
g31
(g70
S'\t\x00\x00\x00'
tRp930
sg24
F0.017037043115124106
sg28
g29
sS'trials_2.thisN'
p931
I9
sg38
g39
sa(dp932
g56
g892
sg36
g37
sS'trials_2.thisRepN'
p933
I0
sS'trials_2.thisTrialN'
p934
I10
sg55
Vright_schema_16_WHI.jpg
p935
sg58
g853
sg30
g34
sg57
g31
(g80
S'\x10\x00\x00\x00\x00\x00\x00\x00'
tRp936
sg23
S'f'
sg35
g12
sS'trials_2.thisIndex'
p937
g31
(g70
S'\n\x00\x00\x00'
tRp938
sg24
F0.067592578532639891
sg28
g29
sS'trials_2.thisN'
p939
I10
sg38
g39
sa(dp940
g56
g849
sg36
g37
sS'trials_2.thisRepN'
p941
I0
sS'trials_2.thisTrialN'
p942
I11
sg55
Vahead_schema_16_WHI.jpg
p943
sg58
g853
sg30
g34
sg57
g31
(g80
S'\x10\x00\x00\x00\x00\x00\x00\x00'
tRp944
sg23
S'j'
sg35
g12
sS'trials_2.thisIndex'
p945
g31
(g70
S'\x0b\x00\x00\x00'
tRp946
sg24
F0.050354245991911739
sg28
g29
sS'trials_2.thisN'
p947
I11
sg38
g39
sa(dp948
g56
g849
sg36
g37
sS'trials_2.thisRepN'
p949
I0
sS'trials_2.thisTrialN'
p950
I12
sg55
Vahead_schema_11_WHI.jpg
p951
sg58
g853
sg30
g34
sg57
g31
(g80
S'\x0b\x00\x00\x00\x00\x00\x00\x00'
tRp952
sg23
S'f'
sg35
g12
sS'trials_2.thisIndex'
p953
g31
(g70
S'\x0c\x00\x00\x00'
tRp954
sg24
F0.033787658379878849
sg28
g29
sS'trials_2.thisN'
p955
I12
sg38
g39
sa(dp956
g56
g859
sg36
g37
sS'trials_2.thisRepN'
p957
I0
sS'trials_2.thisTrialN'
p958
I13
sg55
Vleft_schema_19_WHI.jpg
p959
sg58
g853
sg30
g34
sg57
g31
(g80
S'\x13\x00\x00\x00\x00\x00\x00\x00'
tRp960
sg23
S'j'
sg35
g12
sS'trials_2.thisIndex'
p961
g31
(g70
S'\r\x00\x00\x00'
tRp962
sg24
F0.066931658773683012
sg28
g29
sS'trials_2.thisN'
p963
I13
sg38
g39
sa(dp964
g56
g859
sg36
g37
sS'trials_2.thisRepN'
p965
I0
sS'trials_2.thisTrialN'
p966
I14
sg55
Vleft_schema_17_WHI.jpg
p967
sg58
g853
sg30
g34
sg57
g31
(g80
S'\x11\x00\x00\x00\x00\x00\x00\x00'
tRp968
sg23
S'f'
sg35
g12
sS'trials_2.thisIndex'
p969
g31
(g70
S'\x0e\x00\x00\x00'
tRp970
sg24
F0.050434995791874826
sg28
g29
sS'trials_2.thisN'
p971
I14
sg38
g39
sa(dp972
g56
g892
sg36
g37
sS'trials_2.thisRepN'
p973
I0
sS'trials_2.thisTrialN'
p974
I15
sg55
Vright_schema_15_WHI.jpg
p975
sg58
g853
sg30
g34
sg57
g31
(g80
S'\x0f\x00\x00\x00\x00\x00\x00\x00'
tRp976
sg23
S'j'
sg35
g12
sS'trials_2.thisIndex'
p977
g31
(g70
S'\x0f\x00\x00\x00'
tRp978
sg24
F0.050620193767827004
sg28
g29
sS'trials_2.thisN'
p979
I15
sg38
g39
sa(dp980
g56
g859
sg36
g37
sS'trials_2.thisRepN'
p981
I0
sS'trials_2.thisTrialN'
p982
I16
sg55
Vleft_schema_18_WHI.jpg
p983
sg58
g853
sg30
g34
sg57
g31
(g80
S'\x12\x00\x00\x00\x00\x00\x00\x00'
tRp984
sg23
S'f'
sg35
g12
sS'trials_2.thisIndex'
p985
g31
(g70
S'\x10\x00\x00\x00'
tRp986
sg24
F0.051227280346211046
sg28
g29
sS'trials_2.thisN'
p987
I16
sg38
g39
sa(dp988
g56
g892
sg36
g37
sS'trials_2.thisRepN'
p989
I0
sS'trials_2.thisTrialN'
p990
I17
sg55
Vright_schema_4_WHI.jpg
p991
sg58
g853
sg30
g34
sg57
g31
(g80
S'\x04\x00\x00\x00\x00\x00\x00\x00'
tRp992
sg23
S'j'
sg35
g12
sS'trials_2.thisIndex'
p993
g31
(g70
S'\x11\x00\x00\x00'
tRp994
sg24
F0.016952489851973951
sg28
g29
sS'trials_2.thisN'
p995
I17
sg38
g39
sa(dp996
g56
g849
sg36
g37
sS'trials_2.thisRepN'
p997
I0
sS'trials_2.thisTrialN'
p998
I18
sg55
Vahead_schema_14_WHI.jpg
p999
sg58
g853
sg30
g34
sg57
g31
(g80
S'\x0e\x00\x00\x00\x00\x00\x00\x00'
tRp1000
sg23
S'f'
sg35
g12
sS'trials_2.thisIndex'
p1001
g31
(g70
S'\x12\x00\x00\x00'
tRp1002
sg24
F0.067511536122765392
sg28
g29
sS'trials_2.thisN'
p1003
I18
sg38
g39
sa(dp1004
g56
g892
sg36
g37
sS'trials_2.thisRepN'
p1005
I0
sS'trials_2.thisTrialN'
p1006
I19
sg55
Vright_schema_21_WHI.jpg
p1007
sg58
g853
sg30
g34
sg57
g31
(g80
S'\x15\x00\x00\x00\x00\x00\x00\x00'
tRp1008
sg23
S'j'
sg35
g12
sS'trials_2.thisIndex'
p1009
g31
(g70
S'\x13\x00\x00\x00'
tRp1010
sg24
F0.035034892149269581
sg28
g29
sS'trials_2.thisN'
p1011
I19
sg38
g39
sa(dp1012
g56
g849
sg36
g37
sS'trials_2.thisRepN'
p1013
I0
sS'trials_2.thisTrialN'
p1014
I20
sg55
Vahead_schema_20_WHI.jpg
p1015
sg58
g853
sg30
g34
sg57
g31
(g80
S'\x14\x00\x00\x00\x00\x00\x00\x00'
tRp1016
sg23
S'f'
sg35
g12
sS'trials_2.thisIndex'
p1017
g31
(g70
S'\x14\x00\x00\x00'
tRp1018
sg24
F0.068257594248279929
sg28
g29
sS'trials_2.thisN'
p1019
I20
sg38
g39
sa(dp1020
g56
g892
sg36
g37
sS'trials_2.thisRepN'
p1021
I0
sS'trials_2.thisTrialN'
p1022
I21
sg55
Vright_image_10_WHI.jpg
p1023
sg58
Vimage
p1024
sg30
g34
sg57
g31
(g80
S'\n\x00\x00\x00\x00\x00\x00\x00'
tRp1025
sg23
S'j'
sg35
g12
sS'trials_2.thisIndex'
p1026
g31
(g70
S'\x15\x00\x00\x00'
tRp1027
sg24
F0.017051671689841896
sg28
g29
sS'trials_2.thisN'
p1028
I21
sg38
g39
sa(dp1029
g56
g892
sg36
g37
sS'trials_2.thisRepN'
p1030
I0
sS'trials_2.thisTrialN'
p1031
I22
sg55
Vright_image_1_WHI.jpg
p1032
sg58
g1024
sg30
g34
sg57
g31
(g80
S'\x01\x00\x00\x00\x00\x00\x00\x00'
tRp1033
sg23
S'f'
sg35
g12
sS'trials_2.thisIndex'
p1034
g31
(g70
S'\x16\x00\x00\x00'
tRp1035
sg24
F0.01731118286261335
sg28
g29
sS'trials_2.thisN'
p1036
I22
sg38
g39
sa(dp1037
g56
g849
sg36
g37
sS'trials_2.thisRepN'
p1038
I0
sS'trials_2.thisTrialN'
p1039
I23
sg55
Vahead_image_21_WHI.jpg
p1040
sg58
g1024
sg30
g34
sg57
g31
(g80
S'\x15\x00\x00\x00\x00\x00\x00\x00'
tRp1041
sg23
S'j'
sg35
g12
sS'trials_2.thisIndex'
p1042
g31
(g70
S'\x17\x00\x00\x00'
tRp1043
sg24
F0.051258878083899617
sg28
g29
sS'trials_2.thisN'
p1044
I23
sg38
g39
sa(dp1045
g56
g892
sg36
g37
sS'trials_2.thisRepN'
p1046
I0
sS'trials_2.thisTrialN'
p1047
I24
sg55
Vright_image_13_WHI.jpg
p1048
sg58
g1024
sg30
g34
sg57
g31
(g80
S'\r\x00\x00\x00\x00\x00\x00\x00'
tRp1049
sg23
S'f'
sg35
g12
sS'trials_2.thisIndex'
p1050
g31
(g70
S'\x18\x00\x00\x00'
tRp1051
sg24
F0.00093740015290677547
sg28
g29
sS'trials_2.thisN'
p1052
I24
sg38
g39
sa(dp1053
g56
g859
sg36
g37
sS'trials_2.thisRepN'
p1054
I0
sS'trials_2.thisTrialN'
p1055
I25
sg55
Vleft_image_19_WHI.jpg
p1056
sg58
g1024
sg30
g34
sg57
g31
(g80
S'\x13\x00\x00\x00\x00\x00\x00\x00'
tRp1057
sg23
S'j'
sg35
g12
sS'trials_2.thisIndex'
p1058
g31
(g70
S'\x19\x00\x00\x00'
tRp1059
sg24
F0.067888368619605899
sg28
g29
sS'trials_2.thisN'
p1060
I25
sg38
g39
sa(dp1061
g56
g892
sg36
g37
sS'trials_2.thisRepN'
p1062
I0
sS'trials_2.thisTrialN'
p1063
I26
sg55
Vright_image_17_WHI.jpg
p1064
sg58
g1024
sg30
g34
sg57
g31
(g80
S'\x11\x00\x00\x00\x00\x00\x00\x00'
tRp1065
sg23
S'f'
sg35
g12
sS'trials_2.thisIndex'
p1066
g31
(g70
S'\x1a\x00\x00\x00'
tRp1067
sg24
F0.017601414176169783
sg28
g29
sS'trials_2.thisN'
p1068
I26
sg38
g39
sa(dp1069
g56
g859
sg36
g37
sS'trials_2.thisRepN'
p1070
I0
sS'trials_2.thisTrialN'
p1071
I27
sg55
Vleft_image_16_WHI.jpg
p1072
sg58
g1024
sg30
g34
sg57
g31
(g80
S'\x10\x00\x00\x00\x00\x00\x00\x00'
tRp1073
sg23
S'j'
sg35
g12
sS'trials_2.thisIndex'
p1074
g31
(g70
S'\x1b\x00\x00\x00'
tRp1075
sg24
F0.00023961637634783983
sg28
g29
sS'trials_2.thisN'
p1076
I27
sg38
g39
sa(dp1077
g56
g892
sg36
g37
sS'trials_2.thisRepN'
p1078
I0
sS'trials_2.thisTrialN'
p1079
I28
sg55
Vright_image_12_WHI.jpg
p1080
sg58
g1024
sg30
g34
sg57
g31
(g80
S'\x0c\x00\x00\x00\x00\x00\x00\x00'
tRp1081
sg23
S'f'
sg35
g12
sS'trials_2.thisIndex'
p1082
g31
(g70
S'\x1c\x00\x00\x00'
tRp1083
sg24
F0.084122302068863064
sg28
g29
sS'trials_2.thisN'
p1084
I28
sg38
g39
sa(dp1085
g56
g859
sg36
g37
sS'trials_2.thisRepN'
p1086
I0
sS'trials_2.thisTrialN'
p1087
I29
sg55
Vleft_image_5_WHI.jpg
p1088
sg58
g1024
sg30
g34
sg57
g31
(g80
S'\x05\x00\x00\x00\x00\x00\x00\x00'
tRp1089
sg23
S'j'
sg35
g12
sS'trials_2.thisIndex'
p1090
g31
(g70
S'\x1d\x00\x00\x00'
tRp1091
sg24
F0.033725048007909209
sg28
g29
sS'trials_2.thisN'
p1092
I29
sg38
g39
sa(dp1093
g56
g859
sg36
g37
sS'trials_2.thisRepN'
p1094
I0
sS'trials_2.thisTrialN'
p1095
I30
sg55
Vleft_image_20_WHI.jpg
p1096
sg58
g1024
sg30
g34
sg57
g31
(g80
S'\x14\x00\x00\x00\x00\x00\x00\x00'
tRp1097
sg23
S'f'
sg35
g12
sS'trials_2.thisIndex'
p1098
g31
(g70
S'\x1e\x00\x00\x00'
tRp1099
sg24
F0.03406735701719299
sg28
g29
sS'trials_2.thisN'
p1100
I30
sg38
g39
sa(dp1101
g56
g859
sg36
g37
sS'trials_2.thisRepN'
p1102
I0
sS'trials_2.thisTrialN'
p1103
I31
sg55
Vleft_image_9_WHI.jpg
p1104
sg58
g1024
sg30
g34
sg57
g31
(g80
S'\t\x00\x00\x00\x00\x00\x00\x00'
tRp1105
sg23
S'j'
sg35
g12
sS'trials_2.thisIndex'
p1106
g31
(g70
S'\x1f\x00\x00\x00'
tRp1107
sg24
F0.050963965710252523
sg28
g29
sS'trials_2.thisN'
p1108
I31
sg38
g39
sa(dp1109
g56
g849
sg36
g37
sS'trials_2.thisRepN'
p1110
I0
sS'trials_2.thisTrialN'
p1111
I32
sg55
Vahead_image_7_WHI.jpg
p1112
sg58
g1024
sg30
g34
sg57
g31
(g80
S'\x07\x00\x00\x00\x00\x00\x00\x00'
tRp1113
sg23
S'f'
sg35
g12
sS'trials_2.thisIndex'
p1114
g31
(g70
S' \x00\x00\x00'
tRp1115
sg24
F0.016942834947258234
sg28
g29
sS'trials_2.thisN'
p1116
I32
sg38
g39
sa(dp1117
g56
g849
sg36
g37
sS'trials_2.thisRepN'
p1118
I0
sS'trials_2.thisTrialN'
p1119
I33
sg55
Vahead_image_12_WHI.jpg
p1120
sg58
g1024
sg30
g34
sg57
g31
(g80
S'\x0c\x00\x00\x00\x00\x00\x00\x00'
tRp1121
sg23
S'j'
sg35
g12
sS'trials_2.thisIndex'
p1122
g31
(g70
S'!\x00\x00\x00'
tRp1123
sg24
F0.067943372123409063
sg28
g29
sS'trials_2.thisN'
p1124
I33
sg38
g39
sa(dp1125
g56
g849
sg36
g37
sS'trials_2.thisRepN'
p1126
I0
sS'trials_2.thisTrialN'
p1127
I34
sg55
Vahead_image_9_WHI.jpg
p1128
sg58
g1024
sg30
g34
sg57
g31
(g80
S'\t\x00\x00\x00\x00\x00\x00\x00'
tRp1129
sg23
S'f'
sg35
g12
sS'trials_2.thisIndex'
p1130
g31
(g70
S'"\x00\x00\x00'
tRp1131
sg24
F0.00044646463356912136
sg28
g29
sS'trials_2.thisN'
p1132
I34
sg38
g39
sa(dp1133
g56
g849
sg36
g37
sS'trials_2.thisRepN'
p1134
I0
sS'trials_2.thisTrialN'
p1135
I35
sg55
Vahead_image_2_WHI.jpg
p1136
sg58
g1024
sg30
g34
sg57
g31
(g80
S'\x02\x00\x00\x00\x00\x00\x00\x00'
tRp1137
sg23
S'j'
sg35
g12
sS'trials_2.thisIndex'
p1138
g31
(g70
S'#\x00\x00\x00'
tRp1139
sg24
F0.067725698696449399
sg28
g29
sS'trials_2.thisN'
p1140
I35
sg38
g39
sa(dp1141
g56
g849
sg36
g37
sS'trials_2.thisRepN'
p1142
I0
sS'trials_2.thisTrialN'
p1143
I36
sg55
Vahead_image_3_WHI.jpg
p1144
sg58
g1024
sg30
g34
sg57
g31
(g80
S'\x03\x00\x00\x00\x00\x00\x00\x00'
tRp1145
sg23
S'f'
sg35
g12
sS'trials_2.thisIndex'
p1146
g31
(g70
S'$\x00\x00\x00'
tRp1147
sg24
F0.016977651044726372
sg28
g29
sS'trials_2.thisN'
p1148
I36
sg38
g39
sa(dp1149
g56
g849
sg36
g37
sS'trials_2.thisRepN'
p1150
I0
sS'trials_2.thisTrialN'
p1151
I37
sg55
Vahead_image_11_WHI.jpg
p1152
sg58
g1024
sg30
g34
sg57
g31
(g80
S'\x0b\x00\x00\x00\x00\x00\x00\x00'
tRp1153
sg23
S'j'
sg35
g12
sS'trials_2.thisIndex'
p1154
g31
(g70
S'%\x00\x00\x00'
tRp1155
sg24
F0.051068413828033954
sg28
g29
sS'trials_2.thisN'
p1156
I37
sg38
g39
sa(dp1157
g56
g892
sg36
g37
sS'trials_2.thisRepN'
p1158
I0
sS'trials_2.thisTrialN'
p1159
I38
sg55
Vright_image_7_WHI.jpg
p1160
sg58
g1024
sg30
g34
sg57
g31
(g80
S'\x07\x00\x00\x00\x00\x00\x00\x00'
tRp1161
sg23
S'f'
sg35
g12
sS'trials_2.thisIndex'
p1162
g31
(g70
S'&\x00\x00\x00'
tRp1163
sg24
F0.017893986019771546
sg28
g29
sS'trials_2.thisN'
p1164
I38
sg38
g39
sa(dp1165
g56
g892
sg36
g37
sS'trials_2.thisRepN'
p1166
I0
sS'trials_2.thisTrialN'
p1167
I39
sg55
Vright_image_21_WHI.jpg
p1168
sg58
g1024
sg30
g34
sg57
g31
(g80
S'\x15\x00\x00\x00\x00\x00\x00\x00'
tRp1169
sg23
S'j'
sg35
g12
sS'trials_2.thisIndex'
p1170
g31
(g70
S"'\x00\x00\x00"
tRp1171
sg24
F0.016858281684108078
sg28
g29
sS'trials_2.thisN'
p1172
I39
sg38
g39
sa(dp1173
g56
g859
sg36
g37
sS'trials_2.thisRepN'
p1174
I0
sS'trials_2.thisTrialN'
p1175
I40
sg55
Vleft_image_17_WHI.jpg
p1176
sg58
g1024
sg30
g34
sg57
g31
(g80
S'\x11\x00\x00\x00\x00\x00\x00\x00'
tRp1177
sg23
S'f'
sg35
g12
sS'trials_2.thisIndex'
p1178
g31
(g70
S'(\x00\x00\x00'
tRp1179
sg24
F0.068873457959853113
sg28
g29
sS'trials_2.thisN'
p1180
I40
sg38
g39
sa(dp1181
g56
g859
sg36
g37
sS'trials_2.thisRepN'
p1182
I0
sS'trials_2.thisTrialN'
p1183
I41
sg55
Vleft_image_14_WHI.jpg
p1184
sg58
g1024
sg30
g34
sg57
g31
(g80
S'\x0e\x00\x00\x00\x00\x00\x00\x00'
tRp1185
sg23
S'j'
sg35
g12
sS'trials_2.thisIndex'
p1186
g31
(g70
S')\x00\x00\x00'
tRp1187
sg24
F0.00023259461158886552
sg28
g29
sS'trials_2.thisN'
p1188
I41
sg38
g39
sa(dp1189
g56
g849
sg36
g37
sS'trials_2.thisRepN'
p1190
I0
sS'trials_2.thisTrialN'
p1191
I42
sg55
Vahead_word_14_WHI.jpg
p1192
sg58
Vword
p1193
sg30
g34
sg57
g31
(g80
S'\x0e\x00\x00\x00\x00\x00\x00\x00'
tRp1194
sg23
S'f'
sg35
g12
sS'trials_2.thisIndex'
p1195
g31
(g70
S'*\x00\x00\x00'
tRp1196
sg24
F0.051154137356206775
sg28
g29
sS'trials_2.thisN'
p1197
I42
sg38
g39
sa(dp1198
g56
g859
sg36
g37
sS'trials_2.thisRepN'
p1199
I0
sS'trials_2.thisTrialN'
p1200
I43
sg55
Vleft_word_18_WHI.jpg
p1201
sg58
g1193
sg30
g34
sg57
g31
(g80
S'\x12\x00\x00\x00\x00\x00\x00\x00'
tRp1202
sg23
S'j'
sg35
g12
sS'trials_2.thisIndex'
p1203
g31
(g70
S'+\x00\x00\x00'
tRp1204
sg24
F0.05246661463752389
sg28
g29
sS'trials_2.thisN'
p1205
I43
sg38
g39
sa(dp1206
g56
g849
sg36
g37
sS'trials_2.thisRepN'
p1207
I0
sS'trials_2.thisTrialN'
p1208
I44
sg55
Vahead_word_12_WHI.jpg
p1209
sg58
g1193
sg30
g34
sg57
g31
(g80
S'\x0c\x00\x00\x00\x00\x00\x00\x00'
tRp1210
sg23
S'f'
sg35
g12
sS'trials_2.thisIndex'
p1211
g31
(g70
S',\x00\x00\x00'
tRp1212
sg24
F0.033729729184415191
sg28
g29
sS'trials_2.thisN'
p1213
I44
sg38
g39
sa(dp1214
g56
g859
sg36
g37
sS'trials_2.thisRepN'
p1215
I0
sS'trials_2.thisTrialN'
p1216
I45
sg55
Vleft_word_2_WHI.jpg
p1217
sg58
g1193
sg30
g34
sg57
g31
(g80
S'\x02\x00\x00\x00\x00\x00\x00\x00'
tRp1218
sg23
S'j'
sg35
g12
sS'trials_2.thisIndex'
p1219
g31
(g70
S'-\x00\x00\x00'
tRp1220
sg24
F0.067846238263882697
sg28
g29
sS'trials_2.thisN'
p1221
I45
sg38
g39
sa(dp1222
g56
g892
sg36
g37
sS'trials_2.thisRepN'
p1223
I0
sS'trials_2.thisTrialN'
p1224
I46
sg55
Vright_word_8_WHI.jpg
p1225
sg58
g1193
sg30
g34
sg57
g31
(g80
S'\x08\x00\x00\x00\x00\x00\x00\x00'
tRp1226
sg23
S'f'
sg35
g12
sS'trials_2.thisIndex'
p1227
g31
(g70
S'.\x00\x00\x00'
tRp1228
sg24
F0.03365658619441092
sg28
g29
sS'trials_2.thisN'
p1229
I46
sg38
g39
sa(dp1230
g56
g849
sg36
g37
sS'trials_2.thisRepN'
p1231
I0
sS'trials_2.thisTrialN'
p1232
I47
sg55
Vahead_word_1_WHI.jpg
p1233
sg58
g1193
sg30
g34
sg57
g31
(g80
S'\x01\x00\x00\x00\x00\x00\x00\x00'
tRp1234
sg23
S'j'
sg35
g12
sS'trials_2.thisIndex'
p1235
g31
(g70
S'/\x00\x00\x00'
tRp1236
sg24
F0.06802821799647063
sg28
g29
sS'trials_2.thisN'
p1237
I47
sg38
g39
sa(dp1238
g56
g859
sg36
g37
sS'trials_2.thisRepN'
p1239
I0
sS'trials_2.thisTrialN'
p1240
I48
sg55
Vleft_word_21_WHI.jpg
p1241
sg58
g1193
sg30
g34
sg57
g31
(g80
S'\x15\x00\x00\x00\x00\x00\x00\x00'
tRp1242
sg23
S'f'
sg35
g12
sS'trials_2.thisIndex'
p1243
g31
(g70
S'0\x00\x00\x00'
tRp1244
sg24
F0.033858168229926378
sg28
g29
sS'trials_2.thisN'
p1245
I48
sg38
g39
sa(dp1246
g56
g849
sg36
g37
sS'trials_2.thisRepN'
p1247
I0
sS'trials_2.thisTrialN'
p1248
I49
sg55
Vahead_word_17_WHI.jpg
p1249
sg58
g1193
sg30
g34
sg57
g31
(g80
S'\x11\x00\x00\x00\x00\x00\x00\x00'
tRp1250
sg23
S'j'
sg35
g12
sS'trials_2.thisIndex'
p1251
g31
(g70
S'1\x00\x00\x00'
tRp1252
sg24
F0.051815349725075066
sg28
g29
sS'trials_2.thisN'
p1253
I49
sg38
g39
sa(dp1254
g56
g892
sg36
g37
sS'trials_2.thisRepN'
p1255
I0
sS'trials_2.thisTrialN'
p1256
I50
sg55
Vright_word_11_WHI.jpg
p1257
sg58
g1193
sg30
g34
sg57
g31
(g80
S'\x0b\x00\x00\x00\x00\x00\x00\x00'
tRp1258
sg23
S'f'
sg35
g12
sS'trials_2.thisIndex'
p1259
g31
(g70
S'2\x00\x00\x00'
tRp1260
sg24
F0.03442400210769847
sg28
g29
sS'trials_2.thisN'
p1261
I50
sg38
g39
sa(dp1262
g56
g892
sg36
g37
sS'trials_2.thisRepN'
p1263
I0
sS'trials_2.thisTrialN'
p1264
I51
sg55
Vright_word_10_WHI.jpg
p1265
sg58
g1193
sg30
g34
sg57
g31
(g80
S'\n\x00\x00\x00\x00\x00\x00\x00'
tRp1266
sg23
S'j'
sg35
g12
sS'trials_2.thisIndex'
p1267
g31
(g70
S'3\x00\x00\x00'
tRp1268
sg24
F0.033621770096942782
sg28
g29
sS'trials_2.thisN'
p1269
I51
sg38
g39
sa(dp1270
g56
g859
sg36
g37
sS'trials_2.thisRepN'
p1271
I0
sS'trials_2.thisTrialN'
p1272
I52
sg55
Vleft_word_14_WHI.jpg
p1273
sg58
g1193
sg30
g34
sg57
g31
(g80
S'\x0e\x00\x00\x00\x00\x00\x00\x00'
tRp1274
sg23
S'f'
sg35
g12
sS'trials_2.thisIndex'
p1275
g31
(g70
S'4\x00\x00\x00'
tRp1276
sg24
F0.05330922151915729
sg28
g29
sS'trials_2.thisN'
p1277
I52
sg38
g39
sa(dp1278
g56
g849
sg36
g37
sS'trials_2.thisRepN'
p1279
I0
sS'trials_2.thisTrialN'
p1280
I53
sg55
Vahead_word_20_WHI.jpg
p1281
sg58
g1193
sg30
g34
sg57
g31
(g80
S'\x14\x00\x00\x00\x00\x00\x00\x00'
tRp1282
sg23
S'j'
sg35
g12
sS'trials_2.thisIndex'
p1283
g31
(g70
S'5\x00\x00\x00'
tRp1284
sg24
F0.050536518217995763
sg28
g29
sS'trials_2.thisN'
p1285
I53
sg38
g39
sa(dp1286
g56
g892
sg36
g37
sS'trials_2.thisRepN'
p1287
I0
sS'trials_2.thisTrialN'
p1288
I54
sg55
Vright_word_13_WHI.jpg
p1289
sg58
g1193
sg30
g34
sg57
g31
(g80
S'\r\x00\x00\x00\x00\x00\x00\x00'
tRp1290
sg23
S'f'
sg35
g12
sS'trials_2.thisIndex'
p1291
g31
(g70
S'6\x00\x00\x00'
tRp1292
sg24
F0.016883442876860499
sg28
g29
sS'trials_2.thisN'
p1293
I54
sg38
g39
sa(dp1294
g56
g892
sg36
g37
sS'trials_2.thisRepN'
p1295
I0
sS'trials_2.thisTrialN'
p1296
I55
sg55
Vright_word_21_WHI.jpg
p1297
sg58
g1193
sg30
g34
sg57
g31
(g80
S'\x15\x00\x00\x00\x00\x00\x00\x00'
tRp1298
sg23
S'j'
sg35
g12
sS'trials_2.thisIndex'
p1299
g31
(g70
S'7\x00\x00\x00'
tRp1300
sg24
F0.067966485337819904
sg28
g29
sS'trials_2.thisN'
p1301
I55
sg38
g39
sa(dp1302
g56
g849
sg36
g37
sS'trials_2.thisRepN'
p1303
I0
sS'trials_2.thisTrialN'
p1304
I56
sg55
Vahead_word_4_WHI.jpg
p1305
sg58
g1193
sg30
g34
sg57
g31
(g80
S'\x04\x00\x00\x00\x00\x00\x00\x00'
tRp1306
sg23
S'f'
sg35
g12
sS'trials_2.thisIndex'
p1307
g31
(g70
S'8\x00\x00\x00'
tRp1308
sg24
F0.033772737253457308
sg28
g29
sS'trials_2.thisN'
p1309
I56
sg38
g39
sa(dp1310
g56
g849
sg36
g37
sS'trials_2.thisRepN'
p1311
I0
sS'trials_2.thisTrialN'
p1312
I57
sg55
Vahead_word_8_WHI.jpg
p1313
sg58
g1193
sg30
g34
sg57
g31
(g80
S'\x08\x00\x00\x00\x00\x00\x00\x00'
tRp1314
sg23
S'j'
sg35
g12
sS'trials_2.thisIndex'
p1315
g31
(g70
S'9\x00\x00\x00'
tRp1316
sg24
F0.067728624388109893
sg28
g29
sS'trials_2.thisN'
p1317
I57
sg38
g39
sa(dp1318
g56
g859
sg36
g37
sS'trials_2.thisRepN'
p1319
I0
sS'trials_2.thisTrialN'
p1320
I58
sg55
Vleft_word_9_WHI.jpg
p1321
sg58
g1193
sg30
g34
sg57
g31
(g80
S'\t\x00\x00\x00\x00\x00\x00\x00'
tRp1322
sg23
S'f'
sg35
g12
sS'trials_2.thisIndex'
p1323
g31
(g70
S':\x00\x00\x00'
tRp1324
sg24
F0.03439679293660447
sg28
g29
sS'trials_2.thisN'
p1325
I58
sg38
g39
sa(dp1326
g56
g892
sg36
g37
sS'trials_2.thisRepN'
p1327
I0
sS'trials_2.thisTrialN'
p1328
I59
sg55
Vright_word_16_WHI.jpg
p1329
sg58
g1193
sg30
g34
sg57
g31
(g80
S'\x10\x00\x00\x00\x00\x00\x00\x00'
tRp1330
sg23
S'j'
sg35
g12
sS'trials_2.thisIndex'
p1331
g31
(g70
S';\x00\x00\x00'
tRp1332
sg24
F0.051190123718697578
sg28
g29
sS'trials_2.thisN'
p1333
I59
sg38
g39
sa(dp1334
g56
g892
sg36
g37
sS'trials_2.thisRepN'
p1335
I0
sS'trials_2.thisTrialN'
p1336
I60
sg55
Vright_word_15_WHI.jpg
p1337
sg58
g1193
sg30
g34
sg57
g31
(g80
S'\x0f\x00\x00\x00\x00\x00\x00\x00'
tRp1338
sg23
S'f'
sg35
g12
sS'trials_2.thisIndex'
p1339
g31
(g70
S'<\x00\x00\x00'
tRp1340
sg24
F0.016973847639746964
sg28
g29
sS'trials_2.thisN'
p1341
I60
sg38
g39
sa(dp1342
g56
g859
sg36
g37
sS'trials_2.thisRepN'
p1343
I0
sS'trials_2.thisTrialN'
p1344
I61
sg55
Vleft_word_7_WHI.jpg
p1345
sg58
g1193
sg30
g34
sg57
g31
(g80
S'\x07\x00\x00\x00\x00\x00\x00\x00'
tRp1346
sg23
S'j'
sg35
g12
sS'trials_2.thisIndex'
p1347
g31
(g70
S'=\x00\x00\x00'
tRp1348
sg24
F0.068329274421557784
sg28
g29
sS'trials_2.thisN'
p1349
I61
sg38
g39
sa(dp1350
g56
g859
sg36
g37
sS'trials_2.thisRepN'
p1351
I0
sS'trials_2.thisTrialN'
p1352
I62
sg55
Vleft_word_12_WHI.jpg
p1353
sg58
g1193
sg30
g34
sg57
g31
(g80
S'\x0c\x00\x00\x00\x00\x00\x00\x00'
tRp1354
sg23
S'f'
sg35
g12
sS'trials_2.thisIndex'
p1355
g31
(g70
S'>\x00\x00\x00'
tRp1356
sg24
F0.016860329720657319
sg28
g29
sS'trials_2.thisN'
p1357
I62
sg38
g39
sa(dp1358
g56
g849
sg36
g37
sS'trials_2.thisRepN'
p1359
I0
sS'trials_2.thisTrialN'
p1360
I63
sg55
Vahead_image_10_WHI.jpg
p1361
sg58
g1024
sg30
g34
sg57
g31
(g80
S'\n\x00\x00\x00\x00\x00\x00\x00'
tRp1362
sg23
S'j'
sg35
g12
sS'trials_2.thisIndex'
p1363
g31
(g70
S'?\x00\x00\x00'
tRp1364
sg24
F0.051454023516271263
sg28
g29
sS'trials_2.thisN'
p1365
I63
sg38
g39
sa(dp1366
g56
g849
sg36
g37
sS'trials_2.thisRepN'
p1367
I0
sS'trials_2.thisTrialN'
p1368
I64
sg55
Vahead_image_18_WHI.jpg
p1369
sg58
g1024
sg30
g34
sg57
g31
(g80
S'\x12\x00\x00\x00\x00\x00\x00\x00'
tRp1370
sg23
S'f'
sg35
g12
sS'trials_2.thisIndex'
p1371
g31
(g70
S'@\x00\x00\x00'
tRp1372
sg24
F0.00035225646570324898
sg28
g29
sS'trials_2.thisN'
p1373
I64
sg38
g39
sa(dp1374
g56
g849
sg36
g37
sS'trials_2.thisRepN'
p1375
I0
sS'trials_2.thisTrialN'
p1376
I65
sg55
Vahead_image_19_WHI.jpg
p1377
sg58
g1024
sg30
g34
sg57
g31
(g80
S'\x13\x00\x00\x00\x00\x00\x00\x00'
tRp1378
sg23
S'j'
sg35
g12
sS'trials_2.thisIndex'
p1379
g31
(g70
S'A\x00\x00\x00'
tRp1380
sg24
F0.067726576409768313
sg28
g29
sS'trials_2.thisN'
p1381
I65
sg38
g39
sa(dp1382
g56
g859
sg36
g37
sS'trials_2.thisRepN'
p1383
I0
sS'trials_2.thisTrialN'
p1384
I66
sg55
Vleft_image_1_WHI.jpg
p1385
sg58
g1024
sg30
g34
sg57
g31
(g80
S'\x01\x00\x00\x00\x00\x00\x00\x00'
tRp1386
sg23
S'j'
sg35
g12
sS'trials_2.thisIndex'
p1387
g31
(g70
S'B\x00\x00\x00'
tRp1388
sg24
F0.10146947129396722
sg28
g29
sS'trials_2.thisN'
p1389
I66
sg38
g39
sa(dp1390
g56
g859
sg36
g37
sS'trials_2.thisRepN'
p1391
I0
sS'trials_2.thisTrialN'
p1392
I67
sg55
Vleft_image_10_WHI.jpg
p1393
sg58
g1024
sg30
g34
sg57
g31
(g80
S'\n\x00\x00\x00\x00\x00\x00\x00'
tRp1394
sg23
S'f'
sg35
g12
sS'trials_2.thisIndex'
p1395
g31
(g70
S'C\x00\x00\x00'
tRp1396
sg24
F0.00042832514736801386
sg28
g29
sS'trials_2.thisN'
p1397
I67
sg38
g39
sa(dp1398
g56
g892
sg36
g37
sS'trials_2.thisRepN'
p1399
I0
sS'trials_2.thisTrialN'
p1400
I68
sg55
Vright_image_9_WHI.jpg
p1401
sg58
g1024
sg30
g34
sg57
g31
(g80
S'\t\x00\x00\x00\x00\x00\x00\x00'
tRp1402
sg23
S'j'
sg35
g12
sS'trials_2.thisIndex'
p1403
g31
(g70
S'D\x00\x00\x00'
tRp1404
sg24
F0.068241502856835723
sg28
g29
sS'trials_2.thisN'
p1405
I68
sg38
g39
sa(dp1406
g56
g849
sg36
g37
sS'trials_2.thisRepN'
p1407
I0
sS'trials_2.thisTrialN'
p1408
I69
sg55
Vahead_image_4_WHI.jpg
p1409
sg58
g1024
sg30
g34
sg57
g31
(g80
S'\x04\x00\x00\x00\x00\x00\x00\x00'
tRp1410
sg23
S'j'
sg35
g12
sS'trials_2.thisIndex'
p1411
g31
(g70
S'E\x00\x00\x00'
tRp1412
sg24
F0.10103441699175164
sg28
g29
sS'trials_2.thisN'
p1413
I69
sg38
g39
sa(dp1414
g56
g859
sg36
g37
sS'trials_2.thisRepN'
p1415
I0
sS'trials_2.thisTrialN'
p1416
I70
sg55
Vleft_image_13_WHI.jpg
p1417
sg58
g1024
sg30
g34
sg57
g31
(g80
S'\r\x00\x00\x00\x00\x00\x00\x00'
tRp1418
sg23
S'f'
sg35
g12
sS'trials_2.thisIndex'
p1419
g31
(g70
S'F\x00\x00\x00'
tRp1420
sg24
F0.01724827999714762
sg28
g29
sS'trials_2.thisN'
p1421
I70
sg38
g39
sa(dp1422
g56
g892
sg36
g37
sS'trials_2.thisRepN'
p1423
I0
sS'trials_2.thisTrialN'
p1424
I71
sg55
Vright_image_20_WHI.jpg
p1425
sg58
g1024
sg30
g34
sg57
g31
(g80
S'\x14\x00\x00\x00\x00\x00\x00\x00'
tRp1426
sg23
S'j'
sg35
g12
sS'trials_2.thisIndex'
p1427
g31
(g70
S'G\x00\x00\x00'
tRp1428
sg24
F0.017126277496572584
sg28
g29
sS'trials_2.thisN'
p1429
I71
sg38
g39
sa(dp1430
g56
g849
sg36
g37
sS'trials_2.thisRepN'
p1431
I0
sS'trials_2.thisTrialN'
p1432
I72
sg55
Vahead_image_14_WHI.jpg
p1433
sg58
g1024
sg30
g34
sg57
g31
(g80
S'\x0e\x00\x00\x00\x00\x00\x00\x00'
tRp1434
sg23
S'f'
sg35
g12
sS'trials_2.thisIndex'
p1435
g31
(g70
S'H\x00\x00\x00'
tRp1436
sg24
F0.017995215835981071
sg28
g29
sS'trials_2.thisN'
p1437
I72
sg38
g39
sa(dp1438
g56
g859
sg36
g37
sS'trials_2.thisRepN'
p1439
I0
sS'trials_2.thisTrialN'
p1440
I73
sg55
Vleft_image_2_WHI.jpg
p1441
sg58
g1024
sg30
g34
sg57
g31
(g80
S'\x02\x00\x00\x00\x00\x00\x00\x00'
tRp1442
sg23
S'j'
sg35
g12
sS'trials_2.thisIndex'
p1443
g31
(g70
S'I\x00\x00\x00'
tRp1444
sg24
F0.06797614018432796
sg28
g29
sS'trials_2.thisN'
p1445
I73
sg38
g39
sa(dp1446
g56
g849
sg36
g37
sS'trials_2.thisRepN'
p1447
I0
sS'trials_2.thisTrialN'
p1448
I74
sg55
Vahead_image_5_WHI.jpg
p1449
sg58
g1024
sg30
g34
sg57
g31
(g80
S'\x05\x00\x00\x00\x00\x00\x00\x00'
tRp1450
sg23
S'j'
sg35
g12
sS'trials_2.thisIndex'
p1451
g31
(g70
S'J\x00\x00\x00'
tRp1452
sg24
F0.13490662863478065
sg28
g29
sS'trials_2.thisN'
p1453
I74
sg38
g39
sa(dp1454
g56
g859
sg36
g37
sS'trials_2.thisRepN'
p1455
I0
sS'trials_2.thisTrialN'
p1456
I75
sg55
Vleft_image_21_WHI.jpg
p1457
sg58
g1024
sg30
g34
sg57
g31
(g80
S'\x15\x00\x00\x00\x00\x00\x00\x00'
tRp1458
sg23
S'j'
sg35
g12
sS'trials_2.thisIndex'
p1459
g31
(g70
S'K\x00\x00\x00'
tRp1460
sg24
F0.10174097795970738
sg28
g29
sS'trials_2.thisN'
p1461
I75
sg38
g39
sa(dp1462
g56
g892
sg36
g37
sS'trials_2.thisRepN'
p1463
I0
sS'trials_2.thisTrialN'
p1464
I76
sg55
Vright_image_5_WHI.jpg
p1465
sg58
g1024
sg30
g34
sg57
g31
(g80
S'\x05\x00\x00\x00\x00\x00\x00\x00'
tRp1466
sg23
S'j'
sg35
g12
sS'trials_2.thisIndex'
p1467
g31
(g70
S'L\x00\x00\x00'
tRp1468
sg24
F0.11820604308741167
sg28
g29
sS'trials_2.thisN'
p1469
I76
sg38
g39
sa(dp1470
g56
g892
sg36
g37
sS'trials_2.thisRepN'
p1471
I0
sS'trials_2.thisTrialN'
p1472
I77
sg55
Vright_image_2_WHI.jpg
p1473
sg58
g1024
sg30
g34
sg57
g31
(g80
S'\x02\x00\x00\x00\x00\x00\x00\x00'
tRp1474
sg23
S'f'
sg35
g12
sS'trials_2.thisIndex'
p1475
g31
(g70
S'M\x00\x00\x00'
tRp1476
sg24
F0.00042481429409235716
sg28
g29
sS'trials_2.thisN'
p1477
I77
sg38
g39
sa(dp1478
g56
g892
sg36
g37
sS'trials_2.thisRepN'
p1479
I0
sS'trials_2.thisTrialN'
p1480
I78
sg55
Vright_image_11_WHI.jpg
p1481
sg58
g1024
sg30
g34
sg57
g31
(g80
S'\x0b\x00\x00\x00\x00\x00\x00\x00'
tRp1482
sg23
S'j'
sg35
g12
sS'trials_2.thisIndex'
p1483
g31
(g70
S'N\x00\x00\x00'
tRp1484
sg24
F0.068137639842461795
sg28
g29
sS'trials_2.thisN'
p1485
I78
sg38
g39
sa(dp1486
g56
g849
sg36
g37
sS'trials_2.thisRepN'
p1487
I0
sS'trials_2.thisTrialN'
p1488
I79
sg55
Vahead_image_8_WHI.jpg
p1489
sg58
g1024
sg30
g34
sg57
g31
(g80
S'\x08\x00\x00\x00\x00\x00\x00\x00'
tRp1490
sg23
S'j'
sg35
g12
sS'trials_2.thisIndex'
p1491
g31
(g70
S'O\x00\x00\x00'
tRp1492
sg24
F0.11788392154267058
sg28
g29
sS'trials_2.thisN'
p1493
I79
sg38
g39
sa(dp1494
g56
g892
sg36
g37
sS'trials_2.thisRepN'
p1495
I0
sS'trials_2.thisTrialN'
p1496
I80
sg55
Vright_image_18_WHI.jpg
p1497
sg58
g1024
sg30
g34
sg57
g31
(g80
S'\x12\x00\x00\x00\x00\x00\x00\x00'
tRp1498
sg23
S'f'
sg35
g12
sS'trials_2.thisIndex'
p1499
g31
(g70
S'P\x00\x00\x00'
tRp1500
sg24
F0.0003516713622957468
sg28
g29
sS'trials_2.thisN'
p1501
I80
sg38
g39
sa(dp1502
g56
g892
sg36
g37
sS'trials_2.thisRepN'
p1503
I0
sS'trials_2.thisTrialN'
p1504
I81
sg55
Vright_image_16_WHI.jpg
p1505
sg58
g1024
sg30
g34
sg57
g31
(g80
S'\x10\x00\x00\x00\x00\x00\x00\x00'
tRp1506
sg23
S'j'
sg35
g12
sS'trials_2.thisIndex'
p1507
g31
(g70
S'Q\x00\x00\x00'
tRp1508
sg24
F0.067878713773097843
sg28
g29
sS'trials_2.thisN'
p1509
I81
sg38
g39
sa(dp1510
g56
g859
sg36
g37
sS'trials_2.thisRepN'
p1511
I0
sS'trials_2.thisTrialN'
p1512
I82
sg55
Vleft_image_11_WHI.jpg
p1513
sg58
g1024
sg30
g34
sg57
g31
(g80
S'\x0b\x00\x00\x00\x00\x00\x00\x00'
tRp1514
sg23
S'j'
sg35
g12
sS'trials_2.thisIndex'
p1515
g31
(g70
S'R\x00\x00\x00'
tRp1516
sg24
F0.10187877930002287
sg28
g29
sS'trials_2.thisN'
p1517
I82
sg38
g39
sa(dp1518
g56
g859
sg36
g37
sS'trials_2.thisRepN'
p1519
I0
sS'trials_2.thisTrialN'
p1520
I83
sg55
Vleft_image_3_WHI.jpg
p1521
sg58
g1024
sg30
g34
sg57
g31
(g80
S'\x03\x00\x00\x00\x00\x00\x00\x00'
tRp1522
sg23
S'f'
sg35
g12
sS'trials_2.thisIndex'
p1523
g31
(g70
S'S\x00\x00\x00'
tRp1524
sg24
F0.00029900844674557447
sg28
g29
sS'trials_2.thisN'
p1525
I83
sg38
g39
sa(dp1526
g56
g859
sg36
g37
sS'trials_2.thisRepN'
p1527
I0
sS'trials_2.thisTrialN'
p1528
I84
sg55
Vleft_word_5_WHI.jpg
p1529
sg58
g1193
sg30
g34
sg57
g31
(g80
S'\x05\x00\x00\x00\x00\x00\x00\x00'
tRp1530
sg23
S'j'
sg35
g12
sS'trials_2.thisIndex'
p1531
g31
(g70
S'T\x00\x00\x00'
tRp1532
sg24
F0.067507732659578323
sg28
g29
sS'trials_2.thisN'
p1533
I84
sg38
g39
sa(dp1534
g56
g859
sg36
g37
sS'trials_2.thisRepN'
p1535
I0
sS'trials_2.thisTrialN'
p1536
I85
sg55
Vleft_word_1_WHI.jpg
p1537
sg58
g1193
sg30
g34
sg57
g31
(g80
S'\x01\x00\x00\x00\x00\x00\x00\x00'
tRp1538
sg23
S'f'
sg35
g12
sS'trials_2.thisIndex'
p1539
g31
(g70
S'U\x00\x00\x00'
tRp1540
sg24
F0.033576714107766747
sg28
g29
sS'trials_2.thisN'
p1541
I85
sg38
g39
sa(dp1542
g56
g849
sg36
g37
sS'trials_2.thisRepN'
p1543
I0
sS'trials_2.thisTrialN'
p1544
I86
sg55
Vahead_word_10_WHI.jpg
p1545
sg58
g1193
sg30
g34
sg57
g31
(g80
S'\n\x00\x00\x00\x00\x00\x00\x00'
tRp1546
sg23
S'j'
sg35
g12
sS'trials_2.thisIndex'
p1547
g31
(g70
S'V\x00\x00\x00'
tRp1548
sg24
F0.068295043485704809
sg28
g29
sS'trials_2.thisN'
p1549
I86
sg38
g39
sa(dp1550
g56
g859
sg36
g37
sS'trials_2.thisRepN'
p1551
I0
sS'trials_2.thisTrialN'
p1552
I87
sg55
Vleft_word_3_WHI.jpg
p1553
sg58
g1193
sg30
g34
sg57
g31
(g80
S'\x03\x00\x00\x00\x00\x00\x00\x00'
tRp1554
sg23
S'f'
sg35
g12
sS'trials_2.thisIndex'
p1555
g31
(g70
S'W\x00\x00\x00'
tRp1556
sg24
F0.01761340961093083
sg28
g29
sS'trials_2.thisN'
p1557
I87
sg38
g39
sa(dp1558
g56
g892
sg36
g37
sS'trials_2.thisRepN'
p1559
I0
sS'trials_2.thisTrialN'
p1560
I88
sg55
Vright_word_7_WHI.jpg
p1561
sg58
g1193
sg30
g34
sg57
g31
(g80
S'\x07\x00\x00\x00\x00\x00\x00\x00'
tRp1562
sg23
S'j'
sg35
g12
sS'trials_2.thisIndex'
p1563
g31
(g70
S'X\x00\x00\x00'
tRp1564
sg24
F0.067213697999250144
sg28
g29
sS'trials_2.thisN'
p1565
I88
sg38
g39
sa(dp1566
g56
g859
sg36
g37
sS'trials_2.thisRepN'
p1567
I0
sS'trials_2.thisTrialN'
p1568
I89
sg55
Vleft_word_20_WHI.jpg
p1569
sg58
g1193
sg30
g34
sg57
g31
(g80
S'\x14\x00\x00\x00\x00\x00\x00\x00'
tRp1570
sg23
S'f'
sg35
g12
sS'trials_2.thisIndex'
p1571
g31
(g70
S'Y\x00\x00\x00'
tRp1572
sg24
F0.017494040308520198
sg28
g29
sS'trials_2.thisN'
p1573
I89
sg38
g39
sa(dp1574
g56
g859
sg36
g37
sS'trials_2.thisRepN'
p1575
I0
sS'trials_2.thisTrialN'
p1576
I90
sg55
Vleft_word_19_WHI.jpg
p1577
sg58
g1193
sg30
g34
sg57
g31
(g80
S'\x13\x00\x00\x00\x00\x00\x00\x00'
tRp1578
sg23
S'j'
sg35
g12
sS'trials_2.thisIndex'
p1579
g31
(g70
S'Z\x00\x00\x00'
tRp1580
sg24
F0.083935056114569306
sg28
g29
sS'trials_2.thisN'
p1581
I90
sg38
g39
sa(dp1582
g56
g849
sg36
g37
sS'trials_2.thisRepN'
p1583
I0
sS'trials_2.thisTrialN'
p1584
I91
sg55
Vahead_word_9_WHI.jpg
p1585
sg58
g1193
sg30
g34
sg57
g31
(g80
S'\t\x00\x00\x00\x00\x00\x00\x00'
tRp1586
sg23
S'f'
sg35
g12
sS'trials_2.thisIndex'
p1587
g31
(g70
S'[\x00\x00\x00'
tRp1588
sg24
F0.033883329364471138
sg28
g29
sS'trials_2.thisN'
p1589
I91
sg38
g39
sa(dp1590
g56
g892
sg36
g37
sS'trials_2.thisRepN'
p1591
I0
sS'trials_2.thisTrialN'
p1592
I92
sg55
Vright_word_6_WHI.jpg
p1593
sg58
g1193
sg30
g34
sg57
g31
(g80
S'\x06\x00\x00\x00\x00\x00\x00\x00'
tRp1594
sg23
S'j'
sg35
g12
sS'trials_2.thisIndex'
p1595
g31
(g70
S'\\\x00\x00\x00'
tRp1596
sg24
F0.084596561035141349
sg28
g29
sS'trials_2.thisN'
p1597
I92
sg38
g39
sa(dp1598
g56
g849
sg36
g37
sS'trials_2.thisRepN'
p1599
I0
sS'trials_2.thisTrialN'
p1600
I93
sg55
Vahead_word_16_WHI.jpg
p1601
sg58
g1193
sg30
g34
sg57
g31
(g80
S'\x10\x00\x00\x00\x00\x00\x00\x00'
tRp1602
sg23
S'f'
sg35
g12
sS'trials_2.thisIndex'
p1603
g31
(g70
S']\x00\x00\x00'
tRp1604
sg24
F0.035263975849375129
sg28
g29
sS'trials_2.thisN'
p1605
I93
sg38
g39
sa(dp1606
g56
g892
sg36
g37
sS'trials_2.thisRepN'
p1607
I0
sS'trials_2.thisTrialN'
p1608
I94
sg55
Vright_word_4_WHI.jpg
p1609
sg58
g1193
sg30
g34
sg57
g31
(g80
S'\x04\x00\x00\x00\x00\x00\x00\x00'
tRp1610
sg23
S'j'
sg35
g12
sS'trials_2.thisIndex'
p1611
g31
(g70
S'^\x00\x00\x00'
tRp1612
sg24
F0.051957539631985128
sg28
g29
sS'trials_2.thisN'
p1613
I94
sg38
g39
sa(dp1614
g56
g849
sg36
g37
sS'trials_2.thisRepN'
p1615
I0
sS'trials_2.thisTrialN'
p1616
I95
sg55
Vahead_word_19_WHI.jpg
p1617
sg58
g1193
sg30
g34
sg57
g31
(g80
S'\x13\x00\x00\x00\x00\x00\x00\x00'
tRp1618
sg23
S'f'
sg35
g12
sS'trials_2.thisIndex'
p1619
g31
(g70
S'_\x00\x00\x00'
tRp1620
sg24
F0.01681264047510922
sg28
g29
sS'trials_2.thisN'
p1621
I95
sg38
g39
sa(dp1622
g56
g892
sg36
g37
sS'trials_2.thisRepN'
p1623
I0
sS'trials_2.thisTrialN'
p1624
I96
sg55
Vright_word_14_WHI.jpg
p1625
sg58
g1193
sg30
g34
sg57
g31
(g80
S'\x0e\x00\x00\x00\x00\x00\x00\x00'
tRp1626
sg23
S'j'
sg35
g12
sS'trials_2.thisIndex'
p1627
g31
(g70
S'`\x00\x00\x00'
tRp1628
sg24
F0.06785091944038868
sg28
g29
sS'trials_2.thisN'
p1629
I96
sg38
g39
sa(dp1630
g56
g849
sg36
g37
sS'trials_2.thisRepN'
p1631
I0
sS'trials_2.thisTrialN'
p1632
I97
sg55
Vahead_word_6_WHI.jpg
p1633
sg58
g1193
sg30
g34
sg57
g31
(g80
S'\x06\x00\x00\x00\x00\x00\x00\x00'
tRp1634
sg23
S'f'
sg35
g12
sS'trials_2.thisIndex'
p1635
g31
(g70
S'a\x00\x00\x00'
tRp1636
sg24
F0.00068754382664337754
sg28
g29
sS'trials_2.thisN'
p1637
I97
sg38
g39
sa(dp1638
g56
g859
sg36
g37
sS'trials_2.thisRepN'
p1639
I0
sS'trials_2.thisTrialN'
p1640
I98
sg55
Vleft_word_8_WHI.jpg
p1641
sg58
g1193
sg30
g34
sg57
g31
(g80
S'\x08\x00\x00\x00\x00\x00\x00\x00'
tRp1642
sg23
S'j'
sg35
g12
sS'trials_2.thisIndex'
p1643
g31
(g70
S'b\x00\x00\x00'
tRp1644
sg24
F0.067813177651260048
sg28
g29
sS'trials_2.thisN'
p1645
I98
sg38
g39
sa(dp1646
g56
g859
sg36
g37
sS'trials_2.thisRepN'
p1647
I0
sS'trials_2.thisTrialN'
p1648
I99
sg55
Vleft_word_6_WHI.jpg
p1649
sg58
g1193
sg30
g34
sg57
g31
(g80
S'\x06\x00\x00\x00\x00\x00\x00\x00'
tRp1650
sg23
S'f'
sg35
g12
sS'trials_2.thisIndex'
p1651
g31
(g70
S'c\x00\x00\x00'
tRp1652
sg24
F0.00094617734430357814
sg28
g29
sS'trials_2.thisN'
p1653
I99
sg38
g39
sa(dp1654
g56
g849
sg36
g37
sS'trials_2.thisRepN'
p1655
I0
sS'trials_2.thisTrialN'
p1656
I100
sg55
Vahead_word_11_WHI.jpg
p1657
sg58
g1193
sg30
g34
sg57
g31
(g80
S'\x0b\x00\x00\x00\x00\x00\x00\x00'
tRp1658
sg23
S'j'
sg35
g12
sS'trials_2.thisIndex'
p1659
g31
(g70
S'd\x00\x00\x00'
tRp1660
sg24
F0.10135449055815116
sg28
g29
sS'trials_2.thisN'
p1661
I100
sg38
g39
sa(dp1662
g56
g892
sg36
g37
sS'trials_2.thisRepN'
p1663
I0
sS'trials_2.thisTrialN'
p1664
I101
sg55
Vright_word_9_WHI.jpg
p1665
sg58
g1193
sg30
g34
sg57
g31
(g80
S'\t\x00\x00\x00\x00\x00\x00\x00'
tRp1666
sg23
S'f'
sg35
g12
sS'trials_2.thisIndex'
p1667
g31
(g70
S'e\x00\x00\x00'
tRp1668
sg24
F0.017181866161990911
sg28
g29
sS'trials_2.thisN'
p1669
I101
sg38
g39
sa(dp1670
g56
g892
sg36
g37
sS'trials_2.thisRepN'
p1671
I0
sS'trials_2.thisTrialN'
p1672
I102
sg55
Vright_word_18_WHI.jpg
p1673
sg58
g1193
sg30
g34
sg57
g31
(g80
S'\x12\x00\x00\x00\x00\x00\x00\x00'
tRp1674
sg23
S'j'
sg35
g12
sS'trials_2.thisIndex'
p1675
g31
(g70
S'f\x00\x00\x00'
tRp1676
sg24
F0.069021791918203235
sg28
g29
sS'trials_2.thisN'
p1677
I102
sg38
g39
sa(dp1678
g56
g849
sg36
g37
sS'trials_2.thisRepN'
p1679
I0
sS'trials_2.thisTrialN'
p1680
I103
sg55
Vahead_word_5_WHI.jpg
p1681
sg58
g1193
sg30
g34
sg57
g31
(g80
S'\x05\x00\x00\x00\x00\x00\x00\x00'
tRp1682
sg23
S'f'
sg35
g12
sS'trials_2.thisIndex'
p1683
g31
(g70
S'g\x00\x00\x00'
tRp1684
sg24
F0.034310776798520237
sg28
g29
sS'trials_2.thisN'
p1685
I103
sg38
g39
sa(dp1686
g56
g892
sg36
g37
sS'trials_2.thisRepN'
p1687
I0
sS'trials_2.thisTrialN'
p1688
I104
sg55
Vright_word_2_WHI.jpg
p1689
sg58
g1193
sg30
g34
sg57
g31
(g80
S'\x02\x00\x00\x00\x00\x00\x00\x00'
tRp1690
sg23
S'j'
sg35
g12
sS'trials_2.thisIndex'
p1691
g31
(g70
S'h\x00\x00\x00'
tRp1692
sg24
F0.034483394236303866
sg28
g29
sS'trials_2.thisN'
p1693
I104
sg38
g39
sa(dp1694
g56
g849
sg36
g37
sS'trials_2.thisRepN'
p1695
I0
sS'trials_2.thisTrialN'
p1696
I105
sg55
Vahead_schema_8_WHI.jpg
p1697
sg58
g853
sg30
g34
sg57
g31
(g80
S'\x08\x00\x00\x00\x00\x00\x00\x00'
tRp1698
sg23
S'f'
sg35
g12
sS'trials_2.thisIndex'
p1699
g31
(g70
S'i\x00\x00\x00'
tRp1700
sg24
F0.017425285943318158
sg28
g29
sS'trials_2.thisN'
p1701
I105
sg38
g39
sa(dp1702
g56
g859
sg36
g37
sS'trials_2.thisRepN'
p1703
I0
sS'trials_2.thisTrialN'
p1704
I106
sg55
Vleft_schema_21_WHI.jpg
p1705
sg58
g853
sg30
g34
sg57
g31
(g80
S'\x15\x00\x00\x00\x00\x00\x00\x00'
tRp1706
sg23
S'j'
sg35
g12
sS'trials_2.thisIndex'
p1707
g31
(g70
S'j\x00\x00\x00'
tRp1708
sg24
F0.084889425430446863
sg28
g29
sS'trials_2.thisN'
p1709
I106
sg38
g39
sa(dp1710
g56
g859
sg36
g37
sS'trials_2.thisRepN'
p1711
I0
sS'trials_2.thisTrialN'
p1712
I107
sg55
Vleft_schema_5_WHI.jpg
p1713
sg58
g853
sg30
g34
sg57
g31
(g80
S'\x05\x00\x00\x00\x00\x00\x00\x00'
tRp1714
sg23
S'f'
sg35
g12
sS'trials_2.thisIndex'
p1715
g31
(g70
S'k\x00\x00\x00'
tRp1716
sg24
F0.017272855970077217
sg28
g29
sS'trials_2.thisN'
p1717
I107
sg38
g39
sa(dp1718
g56
g892
sg36
g37
sS'trials_2.thisRepN'
p1719
I0
sS'trials_2.thisTrialN'
p1720
I108
sg55
Vright_schema_7_WHI.jpg
p1721
sg58
g853
sg30
g34
sg57
g31
(g80
S'\x07\x00\x00\x00\x00\x00\x00\x00'
tRp1722
sg23
S'j'
sg35
g12
sS'trials_2.thisIndex'
p1723
g31
(g70
S'l\x00\x00\x00'
tRp1724
sg24
F0.084385324094910175
sg28
g29
sS'trials_2.thisN'
p1725
I108
sg38
g39
sa(dp1726
g56
g859
sg36
g37
sS'trials_2.thisRepN'
p1727
I0
sS'trials_2.thisTrialN'
p1728
I109
sg55
Vleft_schema_9_WHI.jpg
p1729
sg58
g853
sg30
g34
sg57
g31
(g80
S'\t\x00\x00\x00\x00\x00\x00\x00'
tRp1730
sg23
S'f'
sg35
g12
sS'trials_2.thisIndex'
p1731
g31
(g70
S'm\x00\x00\x00'
tRp1732
sg24
F0.033977244922425598
sg28
g29
sS'trials_2.thisN'
p1733
I109
sg38
g39
sa(dp1734
g56
g859
sg36
g37
sS'trials_2.thisRepN'
p1735
I0
sS'trials_2.thisTrialN'
p1736
I110
sg55
Vleft_schema_6_WHI.jpg
p1737
sg58
g853
sg30
g34
sg57
g31
(g80
S'\x06\x00\x00\x00\x00\x00\x00\x00'
tRp1738
sg23
S'j'
sg35
g12
sS'trials_2.thisIndex'
p1739
g31
(g70
S'n\x00\x00\x00'
tRp1740
sg24
F0.017460687144193798
sg28
g29
sS'trials_2.thisN'
p1741
I110
sg38
g39
sa(dp1742
g56
g849
sg36
g37
sS'trials_2.thisRepN'
p1743
I0
sS'trials_2.thisTrialN'
p1744
I111
sg55
Vahead_schema_10_WHI.jpg
p1745
sg58
g853
sg30
g34
sg57
g31
(g80
S'\n\x00\x00\x00\x00\x00\x00\x00'
tRp1746
sg23
S'f'
sg35
g12
sS'trials_2.thisIndex'
p1747
g31
(g70
S'o\x00\x00\x00'
tRp1748
sg24
F0.018035298213362694
sg28
g29
sS'trials_2.thisN'
p1749
I111
sg38
g39
sa(dp1750
g56
g849
sg36
g37
sS'trials_2.thisRepN'
p1751
I0
sS'trials_2.thisTrialN'
p1752
I112
sg55
Vahead_schema_17_WHI.jpg
p1753
sg58
g853
sg30
g34
sg57
g31
(g80
S'\x11\x00\x00\x00\x00\x00\x00\x00'
tRp1754
sg23
S'j'
sg35
g12
sS'trials_2.thisIndex'
p1755
g31
(g70
S'p\x00\x00\x00'
tRp1756
sg24
F0.050938511907588691
sg28
g29
sS'trials_2.thisN'
p1757
I112
sg38
g39
sa(dp1758
g56
g892
sg36
g37
sS'trials_2.thisRepN'
p1759
I0
sS'trials_2.thisTrialN'
p1760
I113
sg55
Vright_schema_20_WHI.jpg
p1761
sg58
g853
sg30
g34
sg57
g31
(g80
S'\x14\x00\x00\x00\x00\x00\x00\x00'
tRp1762
sg23
S'f'
sg35
g12
sS'trials_2.thisIndex'
p1763
g31
(g70
S'q\x00\x00\x00'
tRp1764
sg24
F0.00099854764994233847
sg28
g29
sS'trials_2.thisN'
p1765
I113
sg38
g39
sa(dp1766
g56
g849
sg36
g37
sS'trials_2.thisRepN'
p1767
I0
sS'trials_2.thisTrialN'
p1768
I114
sg55
Vahead_schema_15_WHI.jpg
p1769
sg58
g853
sg30
g34
sg57
g31
(g80
S'\x0f\x00\x00\x00\x00\x00\x00\x00'
tRp1770
sg23
S'j'
sg35
g12
sS'trials_2.thisIndex'
p1771
g31
(g70
S'r\x00\x00\x00'
tRp1772
sg24
F0.067497492651455104
sg28
g29
sS'trials_2.thisN'
p1773
I114
sg38
g39
sa(dp1774
g56
g892
sg36
g37
sS'trials_2.thisRepN'
p1775
I0
sS'trials_2.thisTrialN'
p1776
I115
sg55
Vright_schema_9_WHI.jpg
p1777
sg58
g853
sg30
g34
sg57
g31
(g80
S'\t\x00\x00\x00\x00\x00\x00\x00'
tRp1778
sg23
S'f'
sg35
g12
sS'trials_2.thisIndex'
p1779
g31
(g70
S's\x00\x00\x00'
tRp1780
sg24
F0.051175495085772127
sg28
g29
sS'trials_2.thisN'
p1781
I115
sg38
g39
sa(dp1782
g56
g859
sg36
g37
sS'trials_2.thisRepN'
p1783
I0
sS'trials_2.thisTrialN'
p1784
I116
sg55
Vleft_schema_15_WHI.jpg
p1785
sg58
g853
sg30
g34
sg57
g31
(g80
S'\x0f\x00\x00\x00\x00\x00\x00\x00'
tRp1786
sg23
S'j'
sg35
g12
sS'trials_2.thisIndex'
p1787
g31
(g70
S't\x00\x00\x00'
tRp1788
sg24
F0.05108860123436898
sg28
g29
sS'trials_2.thisN'
p1789
I116
sg38
g39
sa(dp1790
g56
g892
sg36
g37
sS'trials_2.thisRepN'
p1791
I0
sS'trials_2.thisTrialN'
p1792
I117
sg55
Vright_schema_5_WHI.jpg
p1793
sg58
g853
sg30
g34
sg57
g31
(g80
S'\x05\x00\x00\x00\x00\x00\x00\x00'
tRp1794
sg23
S'f'
sg35
g12
sS'trials_2.thisIndex'
p1795
g31
(g70
S'u\x00\x00\x00'
tRp1796
sg24
F0.00058923970209434628
sg28
g29
sS'trials_2.thisN'
p1797
I117
sg38
g39
sa(dp1798
g56
g859
sg36
g37
sS'trials_2.thisRepN'
p1799
I0
sS'trials_2.thisTrialN'
p1800
I118
sg55
Vleft_schema_10_WHI.jpg
p1801
sg58
g853
sg30
g34
sg57
g31
(g80
S'\n\x00\x00\x00\x00\x00\x00\x00'
tRp1802
sg23
S'j'
sg35
g12
sS'trials_2.thisIndex'
p1803
g31
(g70
S'v\x00\x00\x00'
tRp1804
sg24
F0.084196030104067177
sg28
g29
sS'trials_2.thisN'
p1805
I118
sg38
g39
sa(dp1806
g56
g859
sg36
g37
sS'trials_2.thisRepN'
p1807
I0
sS'trials_2.thisTrialN'
p1808
I119
sg55
Vleft_schema_2_WHI.jpg
p1809
sg58
g853
sg30
g34
sg57
g31
(g80
S'\x02\x00\x00\x00\x00\x00\x00\x00'
tRp1810
sg23
S'f'
sg35
g12
sS'trials_2.thisIndex'
p1811
g31
(g70
S'w\x00\x00\x00'
tRp1812
sg24
F0.035020263574551791
sg28
g29
sS'trials_2.thisN'
p1813
I119
sg38
g39
sa(dp1814
g56
g849
sg36
g37
sS'trials_2.thisRepN'
p1815
I0
sS'trials_2.thisTrialN'
p1816
I120
sg55
Vahead_schema_2_WHI.jpg
p1817
sg58
g853
sg30
g34
sg57
g31
(g80
S'\x02\x00\x00\x00\x00\x00\x00\x00'
tRp1818
sg23
S'j'
sg35
g12
sS'trials_2.thisIndex'
p1819
g31
(g70
S'x\x00\x00\x00'
tRp1820
sg24
F0.068452739738859236
sg28
g29
sS'trials_2.thisN'
p1821
I120
sg38
g39
sa(dp1822
g56
g849
sg36
g37
sS'trials_2.thisRepN'
p1823
I0
sS'trials_2.thisTrialN'
p1824
I121
sg55
Vahead_schema_4_WHI.jpg
p1825
sg58
g853
sg30
g34
sg57
g31
(g80
S'\x04\x00\x00\x00\x00\x00\x00\x00'
tRp1826
sg23
S'f'
sg35
g12
sS'trials_2.thisIndex'
p1827
g31
(g70
S'y\x00\x00\x00'
tRp1828
sg24
F0.016456288052722812
sg28
g29
sS'trials_2.thisN'
p1829
I121
sg38
g39
sa(dp1830
g56
g892
sg36
g37
sS'trials_2.thisRepN'
p1831
I0
sS'trials_2.thisTrialN'
p1832
I122
sg55
Vright_schema_1_WHI.jpg
p1833
sg58
g853
sg30
g34
sg57
g31
(g80
S'\x01\x00\x00\x00\x00\x00\x00\x00'
tRp1834
sg23
S'j'
sg35
g12
sS'trials_2.thisIndex'
p1835
g31
(g70
S'z\x00\x00\x00'
tRp1836
sg24
F0.034164783486630768
sg28
g29
sS'trials_2.thisN'
p1837
I122
sg38
g39
sa(dp1838
g56
g849
sg36
g37
sS'trials_2.thisRepN'
p1839
I0
sS'trials_2.thisTrialN'
p1840
I123
sg55
Vahead_schema_13_WHI.jpg
p1841
sg58
g853
sg30
g34
sg57
g31
(g80
S'\r\x00\x00\x00\x00\x00\x00\x00'
tRp1842
sg23
S'f'
sg35
g12
sS'trials_2.thisIndex'
p1843
g31
(g70
S'{\x00\x00\x00'
tRp1844
sg24
F0.033931018551811576
sg28
g29
sS'trials_2.thisN'
p1845
I123
sg38
g39
sa(dp1846
g56
g892
sg36
g37
sS'trials_2.thisRepN'
p1847
I0
sS'trials_2.thisTrialN'
p1848
I124
sg55
Vright_schema_6_WHI.jpg
p1849
sg58
g853
sg30
g34
sg57
g31
(g80
S'\x06\x00\x00\x00\x00\x00\x00\x00'
tRp1850
sg23
S'j'
sg35
g12
sS'trials_2.thisIndex'
p1851
g31
(g70
S'|\x00\x00\x00'
tRp1852
sg24
F0.034717744216322899
sg28
g29
sS'trials_2.thisN'
p1853
I124
sg38
g39
sa(dp1854
g56
g892
sg36
g37
sS'trials_2.thisRepN'
p1855
I0
sS'trials_2.thisTrialN'
p1856
I125
sg55
Vright_schema_11_WHI.jpg
p1857
sg58
g853
sg30
g34
sg57
g31
(g80
S'\x0b\x00\x00\x00\x00\x00\x00\x00'
tRp1858
sg23
S'f'
sg35
g12
sS'trials_2.thisIndex'
p1859
g31
(g70
S'}\x00\x00\x00'
tRp1860
sg24
F0.034331549424678087
sg28
g29
sS'trials_2.thisN'
p1861
I125
sg38
g39
sa(dp1862
g56
g849
sg36
g37
sS'trials_2.thisRepN'
p1863
I0
sS'trials_2.thisTrialN'
p1864
I126
sg55
Vahead_word_15_WHI.jpg
p1865
sg58
g1193
sg30
g34
sg57
g31
(g80
S'\x0f\x00\x00\x00\x00\x00\x00\x00'
tRp1866
sg23
S'j'
sg35
g12
sS'trials_2.thisIndex'
p1867
g31
(g70
S'~\x00\x00\x00'
tRp1868
sg24
F0.00045056064845994115
sg28
g29
sS'trials_2.thisN'
p1869
I126
sg38
g39
sa(dp1870
g56
g859
sg36
g37
sS'trials_2.thisRepN'
p1871
I0
sS'trials_2.thisTrialN'
p1872
I127
sg55
Vleft_word_11_WHI.jpg
p1873
sg58
g1193
sg30
g34
sg57
g31
(g80
S'\x0b\x00\x00\x00\x00\x00\x00\x00'
tRp1874
sg23
S'f'
sg35
g12
sS'trials_2.thisIndex'
p1875
g31
(g70
S'\x7f\x00\x00\x00'
tRp1876
sg24
F0.084576666122302413
sg28
g29
sS'trials_2.thisN'
p1877
I127
sg38
g39
sa(dp1878
g56
g892
sg36
g37
sS'trials_2.thisRepN'
p1879
I0
sS'trials_2.thisTrialN'
p1880
I128
sg55
Vright_word_20_WHI.jpg
p1881
sg58
g1193
sg30
g34
sg57
g31
(g80
S'\x14\x00\x00\x00\x00\x00\x00\x00'
tRp1882
sg23
S'j'
sg35
g12
sS'trials_2.thisIndex'
p1883
g31
(g70
S'\x80\x00\x00\x00'
tRp1884
sg24
F0.018096445768605918
sg28
g29
sS'trials_2.thisN'
p1885
I128
sg38
g39
sa(dp1886
g56
g849
sg36
g37
sS'trials_2.thisRepN'
p1887
I0
sS'trials_2.thisTrialN'
p1888
I129
sg55
Vahead_word_21_WHI.jpg
p1889
sg58
g1193
sg30
g34
sg57
g31
(g80
S'\x15\x00\x00\x00\x00\x00\x00\x00'
tRp1890
sg23
S'f'
sg35
g12
sS'trials_2.thisIndex'
p1891
g31
(g70
S'\x81\x00\x00\x00'
tRp1892
sg24
F0.035152798576746136
sg28
g29
sS'trials_2.thisN'
p1893
I129
sg38
g39
sa(dp1894
g56
g859
sg36
g37
sS'trials_2.thisRepN'
p1895
I0
sS'trials_2.thisTrialN'
p1896
I130
sg55
Vleft_word_15_WHI.jpg
p1897
sg58
g1193
sg30
g34
sg57
g31
(g80
S'\x0f\x00\x00\x00\x00\x00\x00\x00'
tRp1898
sg23
S'j'
sg35
g12
sS'trials_2.thisIndex'
p1899
g31
(g70
S'\x82\x00\x00\x00'
tRp1900
sg24
F0.034272157354280353
sg28
g29
sS'trials_2.thisN'
p1901
I130
sg38
g39
sa(dp1902
g56
g892
sg36
g37
sS'trials_2.thisRepN'
p1903
I0
sS'trials_2.thisTrialN'
p1904
I131
sg55
Vright_word_5_WHI.jpg
p1905
sg58
g1193
sg30
g34
sg57
g31
(g80
S'\x05\x00\x00\x00\x00\x00\x00\x00'
tRp1906
sg23
S'f'
sg35
g12
sS'trials_2.thisIndex'
p1907
g31
(g70
S'\x83\x00\x00\x00'
tRp1908
sg24
F0.051297790138050914
sg28
g29
sS'trials_2.thisN'
p1909
I131
sg38
g39
sa(dp1910
g56
g859
sg36
g37
sS'trials_2.thisRepN'
p1911
I0
sS'trials_2.thisTrialN'
p1912
I132
sg55
Vleft_word_10_WHI.jpg
p1913
sg58
g1193
sg30
g34
sg57
g31
(g80
S'\n\x00\x00\x00\x00\x00\x00\x00'
tRp1914
sg23
S'j'
sg35
g12
sS'trials_2.thisIndex'
p1915
g31
(g70
S'\x84\x00\x00\x00'
tRp1916
sg24
F0.034976670285686851
sg28
g29
sS'trials_2.thisN'
p1917
I132
sg38
g39
sa(dp1918
g56
g859
sg36
g37
sS'trials_2.thisRepN'
p1919
I0
sS'trials_2.thisTrialN'
p1920
I133
sg55
Vleft_word_4_WHI.jpg
p1921
sg58
g1193
sg30
g34
sg57
g31
(g80
S'\x04\x00\x00\x00\x00\x00\x00\x00'
tRp1922
sg23
S'f'
sg35
g12
sS'trials_2.thisIndex'
p1923
g31
(g70
S'\x85\x00\x00\x00'
tRp1924
sg24
F0.034001821011770517
sg28
g29
sS'trials_2.thisN'
p1925
I133
sg38
g39
sa(dp1926
g56
g849
sg36
g37
sS'trials_2.thisRepN'
p1927
I0
sS'trials_2.thisTrialN'
p1928
I134
sg55
Vahead_word_13_WHI.jpg
p1929
sg58
g1193
sg30
g34
sg57
g31
(g80
S'\r\x00\x00\x00\x00\x00\x00\x00'
tRp1930
sg23
S'j'
sg35
g12
sS'trials_2.thisIndex'
p1931
g31
(g70
S'\x86\x00\x00\x00'
tRp1932
sg24
F0.050972450291737914
sg28
g29
sS'trials_2.thisN'
p1933
I134
sg38
g39
sa(dp1934
g56
g859
sg36
g37
sS'trials_2.thisRepN'
p1935
I0
sS'trials_2.thisTrialN'
p1936
I135
sg55
Vleft_word_16_WHI.jpg
p1937
sg58
g1193
sg30
g34
sg57
g31
(g80
S'\x10\x00\x00\x00\x00\x00\x00\x00'
tRp1938
sg23
S'f'
sg35
g12
sS'trials_2.thisIndex'
p1939
g31
(g70
S'\x87\x00\x00\x00'
tRp1940
sg24
F0.067529675550758839
sg28
g29
sS'trials_2.thisN'
p1941
I135
sg38
g39
sa(dp1942
g56
g849
sg36
g37
sS'trials_2.thisRepN'
p1943
I0
sS'trials_2.thisTrialN'
p1944
I136
sg55
Vahead_word_7_WHI.jpg
p1945
sg58
g1193
sg30
g34
sg57
g31
(g80
S'\x07\x00\x00\x00\x00\x00\x00\x00'
tRp1946
sg23
S'j'
sg35
g12
sS'trials_2.thisIndex'
p1947
g31
(g70
S'\x88\x00\x00\x00'
tRp1948
sg24
F0.00096022075740620494
sg28
g29
sS'trials_2.thisN'
p1949
I136
sg38
g39
sa(dp1950
g56
g849
sg36
g37
sS'trials_2.thisRepN'
p1951
I0
sS'trials_2.thisTrialN'
p1952
I137
sg55
Vahead_word_3_WHI.jpg
p1953
sg58
g1193
sg30
g34
sg57
g31
(g80
S'\x03\x00\x00\x00\x00\x00\x00\x00'
tRp1954
sg23
S'f'
sg35
g12
sS'trials_2.thisIndex'
p1955
g31
(g70
S'\x89\x00\x00\x00'
tRp1956
sg24
F0.017441669944673777
sg28
g29
sS'trials_2.thisN'
p1957
I137
sg38
g39
sa(dp1958
g56
g859
sg36
g37
sS'trials_2.thisRepN'
p1959
I0
sS'trials_2.thisTrialN'
p1960
I138
sg55
Vleft_word_17_WHI.jpg
p1961
sg58
g1193
sg30
g34
sg57
g31
(g80
S'\x11\x00\x00\x00\x00\x00\x00\x00'
tRp1962
sg23
S'j'
sg35
g12
sS'trials_2.thisIndex'
p1963
g31
(g70
S'\x8a\x00\x00\x00'
tRp1964
sg24
F0.051197145425248891
sg28
g29
sS'trials_2.thisN'
p1965
I138
sg38
g39
sa(dp1966
g56
g892
sg36
g37
sS'trials_2.thisRepN'
p1967
I0
sS'trials_2.thisTrialN'
p1968
I139
sg55
Vright_word_17_WHI.jpg
p1969
sg58
g1193
sg30
g34
sg57
g31
(g80
S'\x11\x00\x00\x00\x00\x00\x00\x00'
tRp1970
sg23
S'f'
sg35
g12
sS'trials_2.thisIndex'
p1971
g31
(g70
S'\x8b\x00\x00\x00'
tRp1972
sg24
F0.017236284562386572
sg28
g29
sS'trials_2.thisN'
p1973
I139
sg38
g39
sa(dp1974
g56
g892
sg36
g37
sS'trials_2.thisRepN'
p1975
I0
sS'trials_2.thisTrialN'
p1976
I140
sg55
Vright_word_12_WHI.jpg
p1977
sg58
g1193
sg30
g34
sg57
g31
(g80
S'\x0c\x00\x00\x00\x00\x00\x00\x00'
tRp1978
sg23
S'j'
sg35
g12
sS'trials_2.thisIndex'
p1979
g31
(g70
S'\x8c\x00\x00\x00'
tRp1980
sg24
F0.084598609013482928
sg28
g29
sS'trials_2.thisN'
p1981
I140
sg38
g39
sa(dp1982
g56
g849
sg36
g37
sS'trials_2.thisRepN'
p1983
I0
sS'trials_2.thisTrialN'
p1984
I141
sg55
Vahead_word_18_WHI.jpg
p1985
sg58
g1193
sg30
g34
sg57
g31
(g80
S'\x12\x00\x00\x00\x00\x00\x00\x00'
tRp1986
sg23
S'j'
sg35
g12
sS'trials_2.thisIndex'
p1987
g31
(g70
S'\x8d\x00\x00\x00'
tRp1988
sg24
F0.13469861005432904
sg28
g29
sS'trials_2.thisN'
p1989
I141
sg38
g39
sa(dp1990
g56
g892
sg36
g37
sS'trials_2.thisRepN'
p1991
I0
sS'trials_2.thisTrialN'
p1992
I142
sg55
Vright_word_19_WHI.jpg
p1993
sg58
g1193
sg30
g34
sg57
g31
(g80
S'\x13\x00\x00\x00\x00\x00\x00\x00'
tRp1994
sg23
S'f'
sg35
g12
sS'trials_2.thisIndex'
p1995
g31
(g70
S'\x8e\x00\x00\x00'
tRp1996
sg24
F0.00077385251643136144
sg28
g29
sS'trials_2.thisN'
p1997
I142
sg38
g39
sa(dp1998
g56
g849
sg36
g37
sS'trials_2.thisRepN'
p1999
I0
sS'trials_2.thisTrialN'
p2000
I143
sg55
Vahead_word_2_WHI.jpg
p2001
sg58
g1193
sg30
g34
sg57
g31
(g80
S'\x02\x00\x00\x00\x00\x00\x00\x00'
tRp2002
sg23
S'j'
sg35
g12
sS'trials_2.thisIndex'
p2003
g31
(g70
S'\x8f\x00\x00\x00'
tRp2004
sg24
F0.083858402271289378
sg28
g29
sS'trials_2.thisN'
p2005
I143
sg38
g39
sa(dp2006
g56
g892
sg36
g37
sS'trials_2.thisRepN'
p2007
I0
sS'trials_2.thisTrialN'
p2008
I144
sg55
Vright_word_3_WHI.jpg
p2009
sg58
g1193
sg30
g34
sg57
g31
(g80
S'\x03\x00\x00\x00\x00\x00\x00\x00'
tRp2010
sg23
S'f'
sg35
g12
sS'trials_2.thisIndex'
p2011
g31
(g70
S'\x90\x00\x00\x00'
tRp2012
sg24
F0.016942249843850732
sg28
g29
sS'trials_2.thisN'
p2013
I144
sg38
g39
sa(dp2014
g56
g859
sg36
g37
sS'trials_2.thisRepN'
p2015
I0
sS'trials_2.thisTrialN'
p2016
I145
sg55
Vleft_word_13_WHI.jpg
p2017
sg58
g1193
sg30
g34
sg57
g31
(g80
S'\r\x00\x00\x00\x00\x00\x00\x00'
tRp2018
sg23
S'j'
sg35
g12
sS'trials_2.thisIndex'
p2019
g31
(g70
S'\x91\x00\x00\x00'
tRp2020
sg24
F0.1016845116391778
sg28
g29
sS'trials_2.thisN'
p2021
I145
sg38
g39
sa(dp2022
g56
g892
sg36
g37
sS'trials_2.thisRepN'
p2023
I0
sS'trials_2.thisTrialN'
p2024
I146
sg55
Vright_word_1_WHI.jpg
p2025
sg58
g1193
sg30
g34
sg57
g31
(g80
S'\x01\x00\x00\x00\x00\x00\x00\x00'
tRp2026
sg23
S'f'
sg35
g12
sS'trials_2.thisIndex'
p2027
g31
(g70
S'\x92\x00\x00\x00'
tRp2028
sg24
F0.0003229993162676692
sg28
g29
sS'trials_2.thisN'
p2029
I146
sg38
g39
sa(dp2030
g56
g859
sg36
g37
sS'trials_2.thisRepN'
p2031
I0
sS'trials_2.thisTrialN'
p2032
I147
sg55
Vleft_schema_12_WHI.jpg
p2033
sg58
g853
sg30
g34
sg57
g31
(g80
S'\x0c\x00\x00\x00\x00\x00\x00\x00'
tRp2034
sg23
S'j'
sg35
g12
sS'trials_2.thisIndex'
p2035
g31
(g70
S'\x93\x00\x00\x00'
tRp2036
sg24
F0.11784179118694738
sg28
g29
sS'trials_2.thisN'
p2037
I147
sg38
g39
sa(dp2038
g56
g849
sg36
g37
sS'trials_2.thisRepN'
p2039
I0
sS'trials_2.thisTrialN'
p2040
I148
sg55
Vahead_schema_19_WHI.jpg
p2041
sg58
g853
sg30
g34
sg57
g31
(g80
S'\x13\x00\x00\x00\x00\x00\x00\x00'
tRp2042
sg23
S'j'
sg35
g12
sS'trials_2.thisIndex'
p2043
g31
(g70
S'\x94\x00\x00\x00'
tRp2044
sg24
F0.11797110794577748
sg28
g29
sS'trials_2.thisN'
p2045
I148
sg38
g39
sa(dp2046
g56
g892
sg36
g37
sS'trials_2.thisRepN'
p2047
I0
sS'trials_2.thisTrialN'
p2048
I149
sg55
Vright_schema_17_WHI.jpg
p2049
sg58
g853
sg30
g34
sg57
g31
(g80
S'\x11\x00\x00\x00\x00\x00\x00\x00'
tRp2050
sg23
S'f'
sg35
g12
sS'trials_2.thisIndex'
p2051
g31
(g70
S'\x95\x00\x00\x00'
tRp2052
sg24
F0.017068933404516429
sg28
g29
sS'trials_2.thisN'
p2053
I149
sg38
g39
sa(dp2054
g56
g849
sg36
g37
sS'trials_2.thisRepN'
p2055
I0
sS'trials_2.thisTrialN'
p2056
I150
sg55
Vahead_schema_12_WHI.jpg
p2057
sg58
g853
sg30
g34
sg57
g31
(g80
S'\x0c\x00\x00\x00\x00\x00\x00\x00'
tRp2058
sg23
S'j'
sg35
g12
sS'trials_2.thisIndex'
p2059
g31
(g70
S'\x96\x00\x00\x00'
tRp2060
sg24
F0.084308377699926496
sg28
g29
sS'trials_2.thisN'
p2061
I150
sg38
g39
sa(dp2062
g56
g859
sg36
g37
sS'trials_2.thisRepN'
p2063
I0
sS'trials_2.thisTrialN'
p2064
I151
sg55
Vleft_schema_20_WHI.jpg
p2065
sg58
g853
sg30
g34
sg57
g31
(g80
S'\x14\x00\x00\x00\x00\x00\x00\x00'
tRp2066
sg23
S'f'
sg35
g12
sS'trials_2.thisIndex'
p2067
g31
(g70
S'\x97\x00\x00\x00'
tRp2068
sg24
F0.033949158038012683
sg28
g29
sS'trials_2.thisN'
p2069
I151
sg38
g39
sa(dp2070
g56
g892
sg36
g37
sS'trials_2.thisRepN'
p2071
I0
sS'trials_2.thisTrialN'
p2072
I152
sg55
Vright_schema_14_WHI.jpg
p2073
sg58
g853
sg30
g34
sg57
g31
(g80
S'\x0e\x00\x00\x00\x00\x00\x00\x00'
tRp2074
sg23
S'j'
sg35
g12
sS'trials_2.thisIndex'
p2075
g31
(g70
S'\x98\x00\x00\x00'
tRp2076
sg24
F0.050784619117621332
sg28
g29
sS'trials_2.thisN'
p2077
I152
sg38
g39
sa(dp2078
g56
g892
sg36
g37
sS'trials_2.thisRepN'
p2079
I0
sS'trials_2.thisTrialN'
p2080
I153
sg55
Vright_schema_2_WHI.jpg
p2081
sg58
g853
sg30
g34
sg57
g31
(g80
S'\x02\x00\x00\x00\x00\x00\x00\x00'
tRp2082
sg23
S'f'
sg35
g12
sS'trials_2.thisIndex'
p2083
g31
(g70
S'\x99\x00\x00\x00'
tRp2084
sg24
F0.068337173841428012
sg28
g29
sS'trials_2.thisN'
p2085
I153
sg38
g39
sa(dp2086
g56
g859
sg36
g37
sS'trials_2.thisRepN'
p2087
I0
sS'trials_2.thisTrialN'
p2088
I154
sg55
Vleft_schema_13_WHI.jpg
p2089
sg58
g853
sg30
g34
sg57
g31
(g80
S'\r\x00\x00\x00\x00\x00\x00\x00'
tRp2090
sg23
S'f'
sg35
g12
sS'trials_2.thisIndex'
p2091
g31
(g70
S'\x9a\x00\x00\x00'
tRp2092
sg24
F0.13678493979386985
sg28
g29
sS'trials_2.thisN'
p2093
I154
sg38
g39
sa(dp2094
g56
g892
sg36
g37
sS'trials_2.thisRepN'
p2095
I0
sS'trials_2.thisTrialN'
p2096
I155
sg55
Vright_schema_12_WHI.jpg
p2097
sg58
g853
sg30
g34
sg57
g31
(g80
S'\x0c\x00\x00\x00\x00\x00\x00\x00'
tRp2098
sg23
S'j'
sg35
g12
sS'trials_2.thisIndex'
p2099
g31
(g70
S'\x9b\x00\x00\x00'
tRp2100
sg24
F0.00029052386526018381
sg28
g29
sS'trials_2.thisN'
p2101
I155
sg38
g39
sa(dp2102
g56
g849
sg36
g37
sS'trials_2.thisRepN'
p2103
I0
sS'trials_2.thisTrialN'
p2104
I156
sg55
Vahead_schema_1_WHI.jpg
p2105
sg58
g853
sg30
g34
sg57
g31
(g80
S'\x01\x00\x00\x00\x00\x00\x00\x00'
tRp2106
sg23
S'f'
sg35
g12
sS'trials_2.thisIndex'
p2107
g31
(g70
S'\x9c\x00\x00\x00'
tRp2108
sg24
F0.068231847952120006
sg28
g29
sS'trials_2.thisN'
p2109
I156
sg38
g39
sa(dp2110
g56
g859
sg36
g37
sS'trials_2.thisRepN'
p2111
I0
sS'trials_2.thisTrialN'
p2112
I157
sg55
Vleft_schema_14_WHI.jpg
p2113
sg58
g853
sg30
g34
sg57
g31
(g80
S'\x0e\x00\x00\x00\x00\x00\x00\x00'
tRp2114
sg23
S'j'
sg35
g12
sS'trials_2.thisIndex'
p2115
g31
(g70
S'\x9d\x00\x00\x00'
tRp2116
sg24
F0.035954737977590412
sg28
g29
sS'trials_2.thisN'
p2117
I157
sg38
g39
sa(dp2118
g56
g849
sg36
g37
sS'trials_2.thisRepN'
p2119
I0
sS'trials_2.thisTrialN'
p2120
I158
sg55
Vahead_schema_6_WHI.jpg
p2121
sg58
g853
sg30
g34
sg57
g31
(g80
S'\x06\x00\x00\x00\x00\x00\x00\x00'
tRp2122
sg23
S'f'
sg35
g12
sS'trials_2.thisIndex'
p2123
g31
(g70
S'\x9e\x00\x00\x00'
tRp2124
sg24
F0.018011014733929187
sg28
g29
sS'trials_2.thisN'
p2125
I158
sg38
g39
sa(dp2126
g56
g859
sg36
g37
sS'trials_2.thisRepN'
p2127
I0
sS'trials_2.thisTrialN'
p2128
I159
sg55
Vleft_schema_1_WHI.jpg
p2129
sg58
g853
sg30
g34
sg57
g31
(g80
S'\x01\x00\x00\x00\x00\x00\x00\x00'
tRp2130
sg23
S'j'
sg35
g12
sS'trials_2.thisIndex'
p2131
g31
(g70
S'\x9f\x00\x00\x00'
tRp2132
sg24
F0.051130731648299843
sg28
g29
sS'trials_2.thisN'
p2133
I159
sg38
g39
sa(dp2134
g56
g849
sg36
g37
sS'trials_2.thisRepN'
p2135
I0
sS'trials_2.thisTrialN'
p2136
I160
sg55
Vahead_schema_3_WHI.jpg
p2137
sg58
g853
sg30
g34
sg57
g31
(g80
S'\x03\x00\x00\x00\x00\x00\x00\x00'
tRp2138
sg23
S'f'
sg35
g12
sS'trials_2.thisIndex'
p2139
g31
(g70
S'\xa0\x00\x00\x00'
tRp2140
sg24
F0.016762025596108288
sg28
g29
sS'trials_2.thisN'
p2141
I160
sg38
g39
sa(dp2142
g56
g892
sg36
g37
sS'trials_2.thisRepN'
p2143
I0
sS'trials_2.thisTrialN'
p2144
I161
sg55
Vright_schema_8_WHI.jpg
p2145
sg58
g853
sg30
g34
sg57
g31
(g80
S'\x08\x00\x00\x00\x00\x00\x00\x00'
tRp2146
sg23
S'j'
sg35
g12
sS'trials_2.thisIndex'
p2147
g31
(g70
S'\xa1\x00\x00\x00'
tRp2148
sg24
F0.084911075769923627
sg28
g29
sS'trials_2.thisN'
p2149
I161
sg38
g39
sa(dp2150
g56
g849
sg36
g37
sS'trials_2.thisRepN'
p2151
I0
sS'trials_2.thisTrialN'
p2152
I162
sg55
Vahead_schema_7_WHI.jpg
p2153
sg58
g853
sg30
g34
sg57
g31
(g80
S'\x07\x00\x00\x00\x00\x00\x00\x00'
tRp2154
sg23
S'f'
sg35
g12
sS'trials_2.thisIndex'
p2155
g31
(g70
S'\xa2\x00\x00\x00'
tRp2156
sg24
F0.016877591435331851
sg28
g29
sS'trials_2.thisN'
p2157
I162
sg38
g39
sa(dp2158
g56
g859
sg36
g37
sS'trials_2.thisRepN'
p2159
I0
sS'trials_2.thisTrialN'
p2160
I163
sg55
Vleft_schema_7_WHI.jpg
p2161
sg58
g853
sg30
g34
sg57
g31
(g80
S'\x07\x00\x00\x00\x00\x00\x00\x00'
tRp2162
sg23
S'j'
sg35
g12
sS'trials_2.thisIndex'
p2163
g31
(g70
S'\xa3\x00\x00\x00'
tRp2164
sg24
F0.051051444665063173
sg28
g29
sS'trials_2.thisN'
p2165
I163
sg38
g39
sa(dp2166
g56
g892
sg36
g37
sS'trials_2.thisRepN'
p2167
I0
sS'trials_2.thisTrialN'
p2168
I164
sg55
Vright_schema_3_WHI.jpg
p2169
sg58
g853
sg30
g34
sg57
g31
(g80
S'\x03\x00\x00\x00\x00\x00\x00\x00'
tRp2170
sg23
S'f'
sg35
g12
sS'trials_2.thisIndex'
p2171
g31
(g70
S'\xa4\x00\x00\x00'
tRp2172
sg24
F0.03445940330857411
sg28
g29
sS'trials_2.thisN'
p2173
I164
sg38
g39
sa(dp2174
g56
g859
sg36
g37
sS'trials_2.thisRepN'
p2175
I0
sS'trials_2.thisTrialN'
p2176
I165
sg55
Vleft_schema_8_WHI.jpg
p2177
sg58
g853
sg30
g34
sg57
g31
(g80
S'\x08\x00\x00\x00\x00\x00\x00\x00'
tRp2178
sg23
S'j'
sg35
g12
sS'trials_2.thisIndex'
p2179
g31
(g70
S'\xa5\x00\x00\x00'
tRp2180
sg24
F0.033829496125690639
sg28
g29
sS'trials_2.thisN'
p2181
I165
sg38
g39
sa(dp2182
g56
g892
sg36
g37
sS'trials_2.thisRepN'
p2183
I0
sS'trials_2.thisTrialN'
p2184
I166
sg55
Vright_schema_18_WHI.jpg
p2185
sg58
g853
sg30
g34
sg57
g31
(g80
S'\x12\x00\x00\x00\x00\x00\x00\x00'
tRp2186
sg23
S'f'
sg35
g12
sS'trials_2.thisIndex'
p2187
g31
(g70
S'\xa6\x00\x00\x00'
tRp2188
sg24
F0.06827836693264544
sg28
g29
sS'trials_2.thisN'
p2189
I166
sg38
g39
sa(dp2190
g56
g849
sg36
g37
sS'trials_2.thisRepN'
p2191
I0
sS'trials_2.thisTrialN'
p2192
I167
sg55
Vahead_schema_9_WHI.jpg
p2193
sg58
g853
sg30
g34
sg57
g31
(g80
S'\t\x00\x00\x00\x00\x00\x00\x00'
tRp2194
sg23
S'j'
sg35
g12
sS'trials_2.thisIndex'
p2195
g31
(g70
S'\xa7\x00\x00\x00'
tRp2196
sg24
F0.017648225650191307
sg28
g29
sS'trials_2.thisN'
p2197
I167
sg38
g39
sa(dp2198
g56
g859
sg36
g37
sS'trials_2.thisRepN'
p2199
I0
sS'trials_2.thisTrialN'
p2200
I168
sg55
Vleft_image_18_WHI.jpg
p2201
sg58
g1024
sg30
g34
sg57
g31
(g80
S'\x12\x00\x00\x00\x00\x00\x00\x00'
tRp2202
sg23
S'f'
sg35
g12
sS'trials_2.thisIndex'
p2203
g31
(g70
S'\xa8\x00\x00\x00'
tRp2204
sg24
F0.067336578154936433
sg28
g29
sS'trials_2.thisN'
p2205
I168
sg38
g39
sa(dp2206
g56
g859
sg36
g37
sS'trials_2.thisRepN'
p2207
I0
sS'trials_2.thisTrialN'
p2208
I169
sg55
Vleft_image_12_WHI.jpg
p2209
sg58
g1024
sg30
g34
sg57
g31
(g80
S'\x0c\x00\x00\x00\x00\x00\x00\x00'
tRp2210
sg23
S'j'
sg35
g12
sS'trials_2.thisIndex'
p2211
g31
(g70
S'\xa9\x00\x00\x00'
tRp2212
sg24
F0.033897080284077674
sg28
g29
sS'trials_2.thisN'
p2213
I169
sg38
g39
sa(dp2214
g56
g859
sg36
g37
sS'trials_2.thisRepN'
p2215
I0
sS'trials_2.thisTrialN'
p2216
I170
sg55
Vleft_image_8_WHI.jpg
p2217
sg58
g1024
sg30
g34
sg57
g31
(g80
S'\x08\x00\x00\x00\x00\x00\x00\x00'
tRp2218
sg23
S'f'
sg35
g12
sS'trials_2.thisIndex'
p2219
g31
(g70
S'\xaa\x00\x00\x00'
tRp2220
sg24
F0.034306095680221915
sg28
g29
sS'trials_2.thisN'
p2221
I170
sg38
g39
sa(dp2222
g56
g892
sg36
g37
sS'trials_2.thisRepN'
p2223
I0
sS'trials_2.thisTrialN'
p2224
I171
sg55
Vright_image_3_WHI.jpg
p2225
sg58
g1024
sg30
g34
sg57
g31
(g80
S'\x03\x00\x00\x00\x00\x00\x00\x00'
tRp2226
sg23
S'j'
sg35
g12
sS'trials_2.thisIndex'
p2227
g31
(g70
S'\xab\x00\x00\x00'
tRp2228
sg24
F0.1517780760768801
sg28
g29
sS'trials_2.thisN'
p2229
I171
sg38
g39
sa(dp2230
g56
g892
sg36
g37
sS'trials_2.thisRepN'
p2231
I0
sS'trials_2.thisTrialN'
p2232
I172
sg55
Vright_image_14_WHI.jpg
p2233
sg58
g1024
sg30
g34
sg57
g31
(g80
S'\x0e\x00\x00\x00\x00\x00\x00\x00'
tRp2234
sg23
S'j'
sg35
g12
sS'trials_2.thisIndex'
p2235
g31
(g70
S'\xac\x00\x00\x00'
tRp2236
sg24
F0.11820545798400417
sg28
g29
sS'trials_2.thisN'
p2237
I172
sg38
g39
sa(dp2238
g56
g892
sg36
g37
sS'trials_2.thisRepN'
p2239
I0
sS'trials_2.thisTrialN'
p2240
I173
sg55
Vright_image_15_WHI.jpg
p2241
sg58
g1024
sg30
g34
sg57
g31
(g80
S'\x0f\x00\x00\x00\x00\x00\x00\x00'
tRp2242
sg23
S'f'
sg35
g12
sS'trials_2.thisIndex'
p2243
g31
(g70
S'\xad\x00\x00\x00'
tRp2244
sg24
F0.017492870043497533
sg28
g29
sS'trials_2.thisN'
p2245
I173
sg38
g39
sa(dp2246
g56
g892
sg36
g37
sS'trials_2.thisRepN'
p2247
I0
sS'trials_2.thisTrialN'
p2248
I174
sg55
Vright_image_8_WHI.jpg
p2249
sg58
g1024
sg30
g34
sg57
g31
(g80
S'\x08\x00\x00\x00\x00\x00\x00\x00'
tRp2250
sg23
S'j'
sg35
g12
sS'trials_2.thisIndex'
p2251
g31
(g70
S'\xae\x00\x00\x00'
tRp2252
sg24
F0.034037222154438496
sg28
g29
sS'trials_2.thisN'
p2253
I174
sg38
g39
sa(dp2254
g56
g859
sg36
g37
sS'trials_2.thisRepN'
p2255
I0
sS'trials_2.thisTrialN'
p2256
I175
sg55
Vleft_image_15_WHI.jpg
p2257
sg58
g1024
sg30
g34
sg57
g31
(g80
S'\x0f\x00\x00\x00\x00\x00\x00\x00'
tRp2258
sg23
S'f'
sg35
g12
sS'trials_2.thisIndex'
p2259
g31
(g70
S'\xaf\x00\x00\x00'
tRp2260
sg24
F0.034096906776539981
sg28
g29
sS'trials_2.thisN'
p2261
I175
sg38
g39
sa(dp2262
g56
g849
sg36
g37
sS'trials_2.thisRepN'
p2263
I0
sS'trials_2.thisTrialN'
p2264
I176
sg55
Vahead_image_6_WHI.jpg
p2265
sg58
g1024
sg30
g34
sg57
g31
(g80
S'\x06\x00\x00\x00\x00\x00\x00\x00'
tRp2266
sg23
S'j'
sg35
g12
sS'trials_2.thisIndex'
p2267
g31
(g70
S'\xb0\x00\x00\x00'
tRp2268
sg24
F0.051447586971335113
sg28
g29
sS'trials_2.thisN'
p2269
I176
sg38
g39
sa(dp2270
g56
g849
sg36
g37
sS'trials_2.thisRepN'
p2271
I0
sS'trials_2.thisTrialN'
p2272
I177
sg55
Vahead_image_1_WHI.jpg
p2273
sg58
g1024
sg30
g34
sg57
g31
(g80
S'\x01\x00\x00\x00\x00\x00\x00\x00'
tRp2274
sg23
S'f'
sg35
g12
sS'trials_2.thisIndex'
p2275
g31
(g70
S'\xb1\x00\x00\x00'
tRp2276
sg24
F0.00025570782599970698
sg28
g29
sS'trials_2.thisN'
p2277
I177
sg38
g39
sa(dp2278
g56
g859
sg36
g37
sS'trials_2.thisRepN'
p2279
I0
sS'trials_2.thisTrialN'
p2280
I178
sg55
Vleft_image_7_WHI.jpg
p2281
sg58
g1024
sg30
g34
sg57
g31
(g80
S'\x07\x00\x00\x00\x00\x00\x00\x00'
tRp2282
sg23
S'j'
sg35
g12
sS'trials_2.thisIndex'
p2283
g31
(g70
S'\xb2\x00\x00\x00'
tRp2284
sg24
F0.067326338146813214
sg28
g29
sS'trials_2.thisN'
p2285
I178
sg38
g39
sa(dp2286
g56
g892
sg36
g37
sS'trials_2.thisRepN'
p2287
I0
sS'trials_2.thisTrialN'
p2288
I179
sg55
Vright_image_4_WHI.jpg
p2289
sg58
g1024
sg30
g34
sg57
g31
(g80
S'\x04\x00\x00\x00\x00\x00\x00\x00'
tRp2290
sg23
S'f'
sg35
g12
sS'trials_2.thisIndex'
p2291
g31
(g70
S'\xb3\x00\x00\x00'
tRp2292
sg24
F0.03446349932346493
sg28
g29
sS'trials_2.thisN'
p2293
I179
sg38
g39
sa(dp2294
g56
g849
sg36
g37
sS'trials_2.thisRepN'
p2295
I0
sS'trials_2.thisTrialN'
p2296
I180
sg55
Vahead_image_13_WHI.jpg
p2297
sg58
g1024
sg30
g34
sg57
g31
(g80
S'\r\x00\x00\x00\x00\x00\x00\x00'
tRp2298
sg23
S'j'
sg35
g12
sS'trials_2.thisIndex'
p2299
g31
(g70
S'\xb4\x00\x00\x00'
tRp2300
sg24
F0.033578469476196915
sg28
g29
sS'trials_2.thisN'
p2301
I180
sg38
g39
sa(dp2302
g56
g849
sg36
g37
sS'trials_2.thisRepN'
p2303
I0
sS'trials_2.thisTrialN'
p2304
I181
sg55
Vahead_image_20_WHI.jpg
p2305
sg58
g1024
sg30
g34
sg57
g31
(g80
S'\x14\x00\x00\x00\x00\x00\x00\x00'
tRp2306
sg23
S'f'
sg35
g12
sS'trials_2.thisIndex'
p2307
g31
(g70
S'\xb5\x00\x00\x00'
tRp2308
sg24
F0.00022615800844505429
sg28
g29
sS'trials_2.thisN'
p2309
I181
sg38
g39
sa(dp2310
g56
g859
sg36
g37
sS'trials_2.thisRepN'
p2311
I0
sS'trials_2.thisTrialN'
p2312
I182
sg55
Vleft_image_4_WHI.jpg
p2313
sg58
g1024
sg30
g34
sg57
g31
(g80
S'\x04\x00\x00\x00\x00\x00\x00\x00'
tRp2314
sg23
S'j'
sg35
g12
sS'trials_2.thisIndex'
p2315
g31
(g70
S'\xb6\x00\x00\x00'
tRp2316
sg24
F0.084676433063577861
sg28
g29
sS'trials_2.thisN'
p2317
I182
sg38
g39
sa(dp2318
g56
g892
sg36
g37
sS'trials_2.thisRepN'
p2319
I0
sS'trials_2.thisTrialN'
p2320
I183
sg55
Vright_image_19_WHI.jpg
p2321
sg58
g1024
sg30
g34
sg57
g31
(g80
S'\x13\x00\x00\x00\x00\x00\x00\x00'
tRp2322
sg23
S'f'
sg35
g12
sS'trials_2.thisIndex'
p2323
g31
(g70
S'\xb7\x00\x00\x00'
tRp2324
sg24
F0.00035459705395624042
sg28
g29
sS'trials_2.thisN'
p2325
I183
sg38
g39
sa(dp2326
g56
g849
sg36
g37
sS'trials_2.thisRepN'
p2327
I0
sS'trials_2.thisTrialN'
p2328
I184
sg55
Vahead_image_17_WHI.jpg
p2329
sg58
g1024
sg30
g34
sg57
g31
(g80
S'\x11\x00\x00\x00\x00\x00\x00\x00'
tRp2330
sg23
S'j'
sg35
g12
sS'trials_2.thisIndex'
p2331
g31
(g70
S'\xb8\x00\x00\x00'
tRp2332
sg24
F0.067545767000410706
sg28
g29
sS'trials_2.thisN'
p2333
I184
sg38
g39
sa(dp2334
g56
g849
sg36
g37
sS'trials_2.thisRepN'
p2335
I0
sS'trials_2.thisTrialN'
p2336
I185
sg55
Vahead_image_16_WHI.jpg
p2337
sg58
g1024
sg30
g34
sg57
g31
(g80
S'\x10\x00\x00\x00\x00\x00\x00\x00'
tRp2338
sg23
S'f'
sg35
g12
sS'trials_2.thisIndex'
p2339
g31
(g70
S'\xb9\x00\x00\x00'
tRp2340
sg24
F0.017753844149410725
sg28
g29
sS'trials_2.thisN'
p2341
I185
sg38
g39
sa(dp2342
g56
g849
sg36
g37
sS'trials_2.thisRepN'
p2343
I0
sS'trials_2.thisTrialN'
p2344
I186
sg55
Vahead_image_15_WHI.jpg
p2345
sg58
g1024
sg30
g34
sg57
g31
(g80
S'\x0f\x00\x00\x00\x00\x00\x00\x00'
tRp2346
sg23
S'j'
sg35
g12
sS'trials_2.thisIndex'
p2347
g31
(g70
S'\xba\x00\x00\x00'
tRp2348
sg24
F0.084467244276311249
sg28
g29
sS'trials_2.thisN'
p2349
I186
sg38
g39
sa(dp2350
g56
g892
sg36
g37
sS'trials_2.thisRepN'
p2351
I0
sS'trials_2.thisTrialN'
p2352
I187
sg55
Vright_image_6_WHI.jpg
p2353
sg58
g1024
sg30
g34
sg57
g31
(g80
S'\x06\x00\x00\x00\x00\x00\x00\x00'
tRp2354
sg23
S'f'
sg35
g12
sS'trials_2.thisIndex'
p2355
g31
(g70
S'\xbb\x00\x00\x00'
tRp2356
sg24
F0.017040261358488351
sg28
g29
sS'trials_2.thisN'
p2357
I187
sg38
g39
sa(dp2358
g56
g859
sg36
g37
sS'trials_2.thisRepN'
p2359
I0
sS'trials_2.thisTrialN'
p2360
I188
sg55
Vleft_image_6_WHI.jpg
p2361
sg58
g1024
sg30
g34
sg57
g31
(g80
S'\x06\x00\x00\x00\x00\x00\x00\x00'
tRp2362
sg23
S'j'
sg35
g12
sS'trials_2.thisIndex'
p2363
g31
(g70
S'\xbc\x00\x00\x00'
tRp2364
sg24
F0.067353547317907214
sg28
g29
sS'trials_2.thisN'
p2365
I188
sg38
g39
sasS'loops'
p2366
(lp2367
g1
(cpsychopy.data
TrialHandler
p2368
g3
NtRp2369
(dp2370
S'origin'
p2371
NsS'thisTrial'
p2372
(lp2373
sS'_exp'
p2374
I135891760
sg11
S'repeat_spatial_practice'
p2375
sg6
I-1
sS'thisRepN'
p2376
I2
sg25
I01
sg26
g27
sS'data'
p2377
g1
(cpsychopy.data
DataHandler
p2378
c__builtin__
dict
p2379
(dp2380
S'ran'
p2381
cnumpy.ma.core
_mareconstruct
p2382
(cnumpy.ma.core
MaskedArray
p2383
cnumpy
ndarray
p2384
(I0
tp2385
S'b'
tRp2386
(I1
(I1
I2
tg32
(S'f4'
I0
I1
tRp2387
(I3
S'<'
NNNI-1
I-1
I0
tbI00
S'\x00\x00\x80?\x00\x00\x80?'
S'\x00\x00'
Ntbsg17
cnumpy.core.multiarray
_reconstruct
p2388
(g2384
(I0
tS'b'
tRp2389
(I1
(I1
I2
tg32
(S'O4'
I0
I1
tRp2390
(I3
S'|'
NNNI-1
I-1
I63
tbI00
(lp2391
g67
ag458
atbsS'order'
p2392
g2382
(g2383
g2384
g2385
S'b'
tRp2393
(I1
(I1
I2
tg2387
I00
S'\x00\x00\x00\x00\x00\x00\x80?'
S'\x00\x00'
Ntbsg18
g2382
(g2383
g2384
g2385
S'b'
tRp2394
(I1
(I1
I2
tg2387
I00
S'\xf8"\x16?7\'/?'
S'\x00\x00'
NtbstRp2395
(dp2396
S'isNumeric'
p2397
(dp2398
g2381
I01
sg17
I00
sg2392
I01
sg18
I01
ssS'trials'
p2399
g2369
sS'dataTypes'
p2400
(lp2401
g2381
ag2392
ag17
ag18
asS'dataShape'
p2402
(lp2403
I1
aI2
asbsS'method'
p2404
S'random'
p2405
sS'sequenceIndices'
p2406
g2388
(g2384
(I0
tS'b'
tRp2407
(I1
(I1
I2
tg70
I00
S'\x00\x00\x00\x00\x00\x00\x00\x00'
tbsS'finished'
p2408
I01
sS'nReps'
p2409
I2
sS'nRemaining'
p2410
I-1
sS'trialList'
p2411
(lp2412
NasS'seed'
p2413
NsS'thisIndex'
p2414
g461
sS'thisN'
p2415
I2
sS'thisTrialN'
p2416
I0
sS'nTotal'
p2417
I2
sbag1
(g2368
g3
NtRp2418
(dp2419
g2371
Nsg2372
(lp2420
sg2374
I135891760
sg11
S'trials_3'
p2421
sg6
I-1
sg2376
I1
sg25
I01
sg26
g27
sg2377
g1
(g2378
g2379
(dp2422
g2381
g2382
(g2383
g2384
g2385
S'b'
tRp2423
(I1
(I27
I1
tg2387
I00
S'\x00\x00\x80?\x00\x00\x80?\x00\x00\x80?\x00\x00\x80?\x00\x00\x80?\x00\x00\x80?\x00\x00\x80?\x00\x00\x80?\x00\x00\x80?\x00\x00\x80?\x00\x00\x80?\x00\x00\x80?\x00\x00\x80?\x00\x00\x80?\x00\x00\x80?\x00\x00\x80?\x00\x00\x80?\x00\x00\x80?\x00\x00\x80?\x00\x00\x80?\x00\x00\x80?\x00\x00\x80?\x00\x00\x80?\x00\x00\x80?\x00\x00\x80?\x00\x00\x80?\x00\x00\x80?'
S'\x00\x00\x00\x00\x00\x00\x00\x00\x00\x00\x00\x00\x00\x00\x00\x00\x00\x00\x00\x00\x00\x00\x00\x00\x00\x00\x00'
Ntbsg19
g2388
(g2384
(I0
tS'b'
tRp2424
(I1
(I27
I1
tg2390
I00
(lp2425
S'f'
aS'j'
aS'f'
aS'j'
aS'f'
aS'j'
aS'f'
aS'j'
aS'f'
aS'j'
aS'f'
aS'j'
aS'j'
aS'j'
aS'j'
aS'j'
aS'j'
aS'f'
aS'j'
aS'f'
aS'j'
aS'f'
aS'j'
aS'f'
aS'j'
aS'f'
aS'j'
atbsg2392
g2382
(g2383
g2384
g2385
S'b'
tRp2426
(I1
(I27
I1
tg2387
I00
S'\x00\x00\x00\x00\x00\x00\x80?\x00\x00\x00@\x00\x00@@\x00\x00\x80@\x00\x00\xa0@\x00\x00\xc0@\x00\x00\xe0@\x00\x00\x00A\x00\x00\x10A\x00\x00 A\x00\x000A\x00\x00@A\x00\x00PA\x00\x00`A\x00\x00pA\x00\x00\x80A\x00\x00\x88A\x00\x00\x90A\x00\x00\x98A\x00\x00\xa0A\x00\x00\xa8A\x00\x00\xb0A\x00\x00\xb8A\x00\x00\xc0A\x00\x00\xc8A\x00\x00\xd0A'
S'\x00\x00\x00\x00\x00\x00\x00\x00\x00\x00\x00\x00\x00\x00\x00\x00\x00\x00\x00\x00\x00\x00\x00\x00\x00\x00\x00'
Ntbsg20
g2382
(g2383
g2384
g2385
S'b'
tRp2427
(I1
(I27
I1
tg2387
I00
S'$[\xf8>\xce\xc6\x92>OOP=K%_=\x83\xdb\x8b<\xff\xecP=Be\x0c=^\x1eO=.\xc8P=kx\x0b=c\t\x8d<{\x15\x8b=\xde\x14\x8b=\x1d\xc4\xad=\x90A\xac=\x0f\x1a\xce=\xb8>\xce=U\xfa\x8a<C|Q=hDO=\x85\x8e\x8c=N\x12\x0f=\xaa\xf9X=\xb3\xfb\t=\x84\xf2P=\x0eiN=\xe0~\x8c='
S'\x00\x00\x00\x00\x00\x00\x00\x00\x00\x00\x00\x00\x00\x00\x00\x00\x00\x00\x00\x00\x00\x00\x00\x00\x00\x00\x00'
NtbstRp2428
(dp2429
g2397
(dp2430
g2381
I01
sg20
I01
sg2392
I01
sg19
I00
ssg2399
g2418
sg2400
(lp2431
g2381
ag2392
ag19
ag20
asg2402
(lp2432
I27
aI1
asbsg2404
S'sequential'
p2433
sg2406
g2388
(g2384
(I0
tS'b'
tRp2434
(I1
(I27
I1
tg70
I00
S'\x00\x00\x00\x00\x01\x00\x00\x00\x02\x00\x00\x00\x03\x00\x00\x00\x04\x00\x00\x00\x05\x00\x00\x00\x06\x00\x00\x00\x07\x00\x00\x00\x08\x00\x00\x00\t\x00\x00\x00\n\x00\x00\x00\x0b\x00\x00\x00\x0c\x00\x00\x00\r\x00\x00\x00\x0e\x00\x00\x00\x0f\x00\x00\x00\x10\x00\x00\x00\x11\x00\x00\x00\x12\x00\x00\x00\x13\x00\x00\x00\x14\x00\x00\x00\x15\x00\x00\x00\x16\x00\x00\x00\x17\x00\x00\x00\x18\x00\x00\x00\x19\x00\x00\x00\x1a\x00\x00\x00'
tbsg2408
I01
sg2409
I1
sg2410
I-1
sg2411
(lp2435
g1
(cpsychopy.data
TrialType
p2436
g2379
(dp2437
g48
g76
sg49
g65
sg50
g83
sg51
g77
sg52
g66
sg53
g81
sg54
g75
stRp2438
ag1
(g2436
g2379
(dp2439
g48
g94
sg49
g86
sg50
g83
sg51
g77
sg52
g87
sg53
g97
sg54
g93
stRp2440
ag1
(g2436
g2379
(dp2441
g48
g94
sg49
g101
sg50
g83
sg51
g77
sg52
g102
sg53
g111
sg54
g108
stRp2442
ag1
(g2436
g2379
(dp2443
g48
g76
sg49
g115
sg50
g83
sg51
g77
sg52
g116
sg53
g125
sg54
g122
stRp2444
ag1
(g2436
g2379
(dp2445
g48
g76
sg49
g129
sg50
g83
sg51
g77
sg52
g130
sg53
g139
sg54
g136
stRp2446
ag1
(g2436
g2379
(dp2447
g48
g151
sg49
g143
sg50
g83
sg51
g77
sg52
g144
sg53
g154
sg54
g150
stRp2448
ag1
(g2436
g2379
(dp2449
g48
g151
sg49
g158
sg50
g83
sg51
g77
sg52
g159
sg53
g168
sg54
g165
stRp2450
ag1
(g2436
g2379
(dp2451
g48
g94
sg49
g172
sg50
g83
sg51
g77
sg52
g173
sg53
g182
sg54
g179
stRp2452
ag1
(g2436
g2379
(dp2453
g48
g151
sg49
g186
sg50
g83
sg51
g77
sg52
g187
sg53
g196
sg54
g193
stRp2454
ag1
(g2436
g2379
(dp2455
g48
g76
sg49
g200
sg50
g83
sg51
g208
sg52
g201
sg53
g211
sg54
g207
stRp2456
ag1
(g2436
g2379
(dp2457
g48
g76
sg49
g215
sg50
g83
sg51
g208
sg52
g216
sg53
g225
sg54
g222
stRp2458
ag1
(g2436
g2379
(dp2459
g48
g151
sg49
g229
sg50
g83
sg51
g208
sg52
g230
sg53
g239
sg54
g236
stRp2460
ag1
(g2436
g2379
(dp2461
g48
g151
sg49
g243
sg50
g83
sg51
g208
sg52
g244
sg53
g253
sg54
g250
stRp2462
ag1
(g2436
g2379
(dp2463
g48
g94
sg49
g257
sg50
g83
sg51
g208
sg52
g258
sg53
g267
sg54
g264
stRp2464
ag1
(g2436
g2379
(dp2465
g48
g94
sg49
g271
sg50
g83
sg51
g208
sg52
g272
sg53
g281
sg54
g278
stRp2466
ag1
(g2436
g2379
(dp2467
g48
g76
sg49
g285
sg50
g83
sg51
g208
sg52
g286
sg53
g295
sg54
g292
stRp2468
ag1
(g2436
g2379
(dp2469
g48
g94
sg49
g299
sg50
g83
sg51
g208
sg52
g300
sg53
g309
sg54
g306
stRp2470
ag1
(g2436
g2379
(dp2471
g48
g151
sg49
g313
sg50
g83
sg51
g208
sg52
g314
sg53
g323
sg54
g320
stRp2472
ag1
(g2436
g2379
(dp2473
g48
g151
sg49
g327
sg50
g83
sg51
g335
sg52
g328
sg53
g338
sg54
g334
stRp2474
ag1
(g2436
g2379
(dp2475
g48
g94
sg49
g342
sg50
g83
sg51
g335
sg52
g343
sg53
g352
sg54
g349
stRp2476
ag1
(g2436
g2379
(dp2477
g48
g151
sg49
g356
sg50
g83
sg51
g335
sg52
g357
sg53
g366
sg54
g363
stRp2478
ag1
(g2436
g2379
(dp2479
g48
g94
sg49
g370
sg50
g83
sg51
g335
sg52
g371
sg53
g380
sg54
g377
stRp2480
ag1
(g2436
g2379
(dp2481
g48
g76
sg49
g384
sg50
g83
sg51
g335
sg52
g385
sg53
g394
sg54
g391
stRp2482
ag1
(g2436
g2379
(dp2483
g48
g151
sg49
g398
sg50
g83
sg51
g335
sg52
g399
sg53
g408
sg54
g405
stRp2484
ag1
(g2436
g2379
(dp2485
g48
g94
sg49
g412
sg50
g83
sg51
g335
sg52
g413
sg53
g422
sg54
g419
stRp2486
ag1
(g2436
g2379
(dp2487
g48
g76
sg49
g426
sg50
g83
sg51
g335
sg52
g427
sg53
g436
sg54
g433
stRp2488
ag1
(g2436
g2379
(dp2489
g48
g76
sg49
g440
sg50
g83
sg51
g335
sg52
g441
sg53
g450
sg54
g447
stRp2490
asg2413
Nsg2414
g445
sg2415
I27
sg2416
I0
sg2417
I27
sbag1
(g2368
g3
NtRp2491
(dp2492
g2371
Nsg2372
(lp2493
sg2374
I135891760
sg11
g2421
sg6
I-1
sg2376
I1
sg25
I01
sg26
g27
sg2377
g1
(g2378
g2379
(dp2494
g2381
g2382
(g2383
g2384
g2385
S'b'
tRp2495
(I1
(I27
I1
tg2387
I00
S'\x00\x00\x80?\x00\x00\x80?\x00\x00\x80?\x00\x00\x80?\x00\x00\x80?\x00\x00\x80?\x00\x00\x80?\x00\x00\x80?\x00\x00\x80?\x00\x00\x80?\x00\x00\x80?\x00\x00\x80?\x00\x00\x80?\x00\x00\x80?\x00\x00\x80?\x00\x00\x80?\x00\x00\x80?\x00\x00\x80?\x00\x00\x80?\x00\x00\x80?\x00\x00\x80?\x00\x00\x80?\x00\x00\x80?\x00\x00\x80?\x00\x00\x80?\x00\x00\x80?\x00\x00\x80?'
S'\x00\x00\x00\x00\x00\x00\x00\x00\x00\x00\x00\x00\x00\x00\x00\x00\x00\x00\x00\x00\x00\x00\x00\x00\x00\x00\x00'
Ntbsg19
g2388
(g2384
(I0
tS'b'
tRp2496
(I1
(I27
I1
tg2390
I00
(lp2497
S'f'
aS'j'
aS'f'
aS'j'
aS'f'
aS'j'
aS'f'
aS'j'
aS'f'
aS'j'
aS'j'
aS'j'
aS'f'
aS'j'
aS'f'
aS'j'
aS'f'
aS'j'
aS'f'
aS'j'
aS'f'
aS'j'
aS'f'
aS'j'
aS'f'
aS'j'
aS'f'
atbsg2392
g2382
(g2383
g2384
g2385
S'b'
tRp2498
(I1
(I27
I1
tg2387
I00
S'\x00\x00\x00\x00\x00\x00\x80?\x00\x00\x00@\x00\x00@@\x00\x00\x80@\x00\x00\xa0@\x00\x00\xc0@\x00\x00\xe0@\x00\x00\x00A\x00\x00\x10A\x00\x00 A\x00\x000A\x00\x00@A\x00\x00PA\x00\x00`A\x00\x00pA\x00\x00\x80A\x00\x00\x88A\x00\x00\x90A\x00\x00\x98A\x00\x00\xa0A\x00\x00\xa8A\x00\x00\xb0A\x00\x00\xb8A\x00\x00\xc0A\x00\x00\xc8A\x00\x00\xd0A'
S'\x00\x00\x00\x00\x00\x00\x00\x00\x00\x00\x00\x00\x00\x00\x00\x00\x00\x00\x00\x00\x00\x00\x00\x00\x00\x00\x00'
Ntbsg20
g2382
(g2383
g2384
g2385
S'b'
tRp2499
(I1
(I27
I1
tg2387
I00
S'lb\x9a>\xb1\xd9\r=\xda\xecQ=\xfd\x18\t=\x893\n=\xc6\xe3\x89=A\xcdQ=\x06\r\t=\nK\x8d<\xd1sP=\x1a\xc5\xcf=\x0b@\xad=F\x89\xea9PK\x8a=\x07<\x8f<\xe0\xaa\x8a=\xbae\r=\xb1\x1c\x8b<\xd2 \x8a=m\n\n=\xf6XO=\\\xf4P=R\xd0Q=\xa1(N:\xf3\xaf\x8b=VH\xd89\x87\xe0Z='
S'\x00\x00\x00\x00\x00\x00\x00\x00\x00\x00\x00\x00\x00\x00\x00\x00\x00\x00\x00\x00\x00\x00\x00\x00\x00\x00\x00'
NtbstRp2500
(dp2501
g2397
(dp2502
g2381
I01
sg20
I01
sg2392
I01
sg19
I00
ssg2399
g2491
sg2400
(lp2503
g2381
ag2392
ag19
ag20
asg2402
(lp2504
I27
aI1
asbsg2404
g2433
sg2406
g2388
(g2384
(I0
tS'b'
tRp2505
(I1
(I27
I1
tg70
I00
S'\x00\x00\x00\x00\x01\x00\x00\x00\x02\x00\x00\x00\x03\x00\x00\x00\x04\x00\x00\x00\x05\x00\x00\x00\x06\x00\x00\x00\x07\x00\x00\x00\x08\x00\x00\x00\t\x00\x00\x00\n\x00\x00\x00\x0b\x00\x00\x00\x0c\x00\x00\x00\r\x00\x00\x00\x0e\x00\x00\x00\x0f\x00\x00\x00\x10\x00\x00\x00\x11\x00\x00\x00\x12\x00\x00\x00\x13\x00\x00\x00\x14\x00\x00\x00\x15\x00\x00\x00\x16\x00\x00\x00\x17\x00\x00\x00\x18\x00\x00\x00\x19\x00\x00\x00\x1a\x00\x00\x00'
tbsg2408
I01
sg2409
I1
sg2410
I-1
sg2411
(lp2506
g1
(g2436
g2379
(dp2507
g467
g468
sg454
g455
sg476
g477
sg469
g470
sg456
g457
sg473
g474
sg465
g466
stRp2508
ag1
(g2436
g2379
(dp2509
g467
g488
sg454
g480
sg476
g477
sg469
g470
sg456
g481
sg473
g491
sg465
g487
stRp2510
ag1
(g2436
g2379
(dp2511
g467
g488
sg454
g495
sg476
g477
sg469
g470
sg456
g496
sg473
g505
sg465
g502
stRp2512
ag1
(g2436
g2379
(dp2513
g467
g468
sg454
g509
sg476
g477
sg469
g470
sg456
g510
sg473
g519
sg465
g516
stRp2514
ag1
(g2436
g2379
(dp2515
g467
g468
sg454
g523
sg476
g477
sg469
g470
sg456
g524
sg473
g533
sg465
g530
stRp2516
ag1
(g2436
g2379
(dp2517
g467
g545
sg454
g537
sg476
g477
sg469
g470
sg456
g538
sg473
g548
sg465
g544
stRp2518
ag1
(g2436
g2379
(dp2519
g467
g545
sg454
g552
sg476
g477
sg469
g470
sg456
g553
sg473
g562
sg465
g559
stRp2520
ag1
(g2436
g2379
(dp2521
g467
g488
sg454
g566
sg476
g477
sg469
g470
sg456
g567
sg473
g576
sg465
g573
stRp2522
ag1
(g2436
g2379
(dp2523
g467
g545
sg454
g580
sg476
g477
sg469
g470
sg456
g581
sg473
g590
sg465
g587
stRp2524
ag1
(g2436
g2379
(dp2525
g467
g468
sg454
g594
sg476
g477
sg469
g602
sg456
g595
sg473
g605
sg465
g601
stRp2526
ag1
(g2436
g2379
(dp2527
g467
g468
sg454
g609
sg476
g477
sg469
g602
sg456
g610
sg473
g619
sg465
g616
stRp2528
ag1
(g2436
g2379
(dp2529
g467
g545
sg454
g623
sg476
g477
sg469
g602
sg456
g624
sg473
g633
sg465
g630
stRp2530
ag1
(g2436
g2379
(dp2531
g467
g545
sg454
g637
sg476
g477
sg469
g602
sg456
g638
sg473
g647
sg465
g644
stRp2532
ag1
(g2436
g2379
(dp2533
g467
g488
sg454
g651
sg476
g477
sg469
g602
sg456
g652
sg473
g661
sg465
g658
stRp2534
ag1
(g2436
g2379
(dp2535
g467
g488
sg454
g665
sg476
g477
sg469
g602
sg456
g666
sg473
g675
sg465
g672
stRp2536
ag1
(g2436
g2379
(dp2537
g467
g468
sg454
g679
sg476
g477
sg469
g602
sg456
g680
sg473
g689
sg465
g686
stRp2538
ag1
(g2436
g2379
(dp2539
g467
g488
sg454
g693
sg476
g477
sg469
g602
sg456
g694
sg473
g703
sg465
g700
stRp2540
ag1
(g2436
g2379
(dp2541
g467
g545
sg454
g707
sg476
g477
sg469
g602
sg456
g708
sg473
g717
sg465
g714
stRp2542
ag1
(g2436
g2379
(dp2543
g467
g545
sg454
g721
sg476
g477
sg469
g729
sg456
g722
sg473
g732
sg465
g728
stRp2544
ag1
(g2436
g2379
(dp2545
g467
g488
sg454
g736
sg476
g477
sg469
g729
sg456
g737
sg473
g746
sg465
g743
stRp2546
ag1
(g2436
g2379
(dp2547
g467
g545
sg454
g750
sg476
g477
sg469
g729
sg456
g751
sg473
g760
sg465
g757
stRp2548
ag1
(g2436
g2379
(dp2549
g467
g488
sg454
g764
sg476
g477
sg469
g729
sg456
g765
sg473
g774
sg465
g771
stRp2550
ag1
(g2436
g2379
(dp2551
g467
g468
sg454
g778
sg476
g477
sg469
g729
sg456
g779
sg473
g788
sg465
g785
stRp2552
ag1
(g2436
g2379
(dp2553
g467
g545
sg454
g792
sg476
g477
sg469
g729
sg456
g793
sg473
g802
sg465
g799
stRp2554
ag1
(g2436
g2379
(dp2555
g467
g488
sg454
g806
sg476
g477
sg469
g729
sg456
g807
sg473
g816
sg465
g813
stRp2556
ag1
(g2436
g2379
(dp2557
g467
g468
sg454
g820
sg476
g477
sg469
g729
sg456
g821
sg473
g830
sg465
g827
stRp2558
ag1
(g2436
g2379
(dp2559
g467
g468
sg454
g834
sg476
g477
sg469
g729
sg456
g835
sg473
g844
sg465
g841
stRp2560
asg2413
Nsg2414
g839
sg2415
I27
sg2416
I0
sg2417
I27
sbag1
(g2368
g3
NtRp2561
(dp2562
g2371
Nsg2372
(lp2563
sg2374
I135891760
sg11
S'trials_2'
p2564
sg6
I-1
sg2376
I1
sg25
I01
sg26
g27
sg2377
g1
(g2378
g2379
(dp2565
g2381
g2382
(g2383
g2384
g2385
S'b'
tRp2566
(I1
(I189
I1
tg2387
I00
S'\x00\x00\x80?\x00\x00\x80?\x00\x00\x80?\x00\x00\x80?\x00\x00\x80?\x00\x00\x80?\x00\x00\x80?\x00\x00\x80?\x00\x00\x80?\x00\x00\x80?\x00\x00\x80?\x00\x00\x80?\x00\x00\x80?\x00\x00\x80?\x00\x00\x80?\x00\x00\x80?\x00\x00\x80?\x00\x00\x80?\x00\x00\x80?\x00\x00\x80?\x00\x00\x80?\x00\x00\x80?\x00\x00\x80?\x00\x00\x80?\x00\x00\x80?\x00\x00\x80?\x00\x00\x80?\x00\x00\x80?\x00\x00\x80?\x00\x00\x80?\x00\x00\x80?\x00\x00\x80?\x00\x00\x80?\x00\x00\x80?\x00\x00\x80?\x00\x00\x80?\x00\x00\x80?\x00\x00\x80?\x00\x00\x80?\x00\x00\x80?\x00\x00\x80?\x00\x00\x80?\x00\x00\x80?\x00\x00\x80?\x00\x00\x80?\x00\x00\x80?\x00\x00\x80?\x00\x00\x80?\x00\x00\x80?\x00\x00\x80?\x00\x00\x80?\x00\x00\x80?\x00\x00\x80?\x00\x00\x80?\x00\x00\x80?\x00\x00\x80?\x00\x00\x80?\x00\x00\x80?\x00\x00\x80?\x00\x00\x80?\x00\x00\x80?\x00\x00\x80?\x00\x00\x80?\x00\x00\x80?\x00\x00\x80?\x00\x00\x80?\x00\x00\x80?\x00\x00\x80?\x00\x00\x80?\x00\x00\x80?\x00\x00\x80?\x00\x00\x80?\x00\x00\x80?\x00\x00\x80?\x00\x00\x80?\x00\x00\x80?\x00\x00\x80?\x00\x00\x80?\x00\x00\x80?\x00\x00\x80?\x00\x00\x80?\x00\x00\x80?\x00\x00\x80?\x00\x00\x80?\x00\x00\x80?\x00\x00\x80?\x00\x00\x80?\x00\x00\x80?\x00\x00\x80?\x00\x00\x80?\x00\x00\x80?\x00\x00\x80?\x00\x00\x80?\x00\x00\x80?\x00\x00\x80?\x00\x00\x80?\x00\x00\x80?\x00\x00\x80?\x00\x00\x80?\x00\x00\x80?\x00\x00\x80?\x00\x00\x80?\x00\x00\x80?\x00\x00\x80?\x00\x00\x80?\x00\x00\x80?\x00\x00\x80?\x00\x00\x80?\x00\x00\x80?\x00\x00\x80?\x00\x00\x80?\x00\x00\x80?\x00\x00\x80?\x00\x00\x80?\x00\x00\x80?\x00\x00\x80?\x00\x00\x80?\x00\x00\x80?\x00\x00\x80?\x00\x00\x80?\x00\x00\x80?\x00\x00\x80?\x00\x00\x80?\x00\x00\x80?\x00\x00\x80?\x00\x00\x80?\x00\x00\x80?\x00\x00\x80?\x00\x00\x80?\x00\x00\x80?\x00\x00\x80?\x00\x00\x80?\x00\x00\x80?\x00\x00\x80?\x00\x00\x80?\x00\x00\x80?\x00\x00\x80?\x00\x00\x80?\x00\x00\x80?\x00\x00\x80?\x00\x00\x80?\x00\x00\x80?\x00\x00\x80?\x00\x00\x80?\x00\x00\x80?\x00\x00\x80?\x00\x00\x80?\x00\x00\x80?\x00\x00\x80?\x00\x00\x80?\x00\x00\x80?\x00\x00\x80?\x00\x00\x80?\x00\x00\x80?\x00\x00\x80?\x00\x00\x80?\x00\x00\x80?\x00\x00\x80?\x00\x00\x80?\x00\x00\x80?\x00\x00\x80?\x00\x00\x80?\x00\x00\x80?\x00\x00\x80?\x00\x00\x80?\x00\x00\x80?\x00\x00\x80?\x00\x00\x80?\x00\x00\x80?\x00\x00\x80?\x00\x00\x80?\x00\x00\x80?\x00\x00\x80?\x00\x00\x80?\x00\x00\x80?\x00\x00\x80?\x00\x00\x80?\x00\x00\x80?\x00\x00\x80?\x00\x00\x80?\x00\x00\x80?\x00\x00\x80?\x00\x00\x80?\x00\x00\x80?\x00\x00\x80?\x00\x00\x80?\x00\x00\x80?\x00\x00\x80?\x00\x00\x80?'
S'\x00\x00\x00\x00\x00\x00\x00\x00\x00\x00\x00\x00\x00\x00\x00\x00\x00\x00\x00\x00\x00\x00\x00\x00\x00\x00\x00\x00\x00\x00\x00\x00\x00\x00\x00\x00\x00\x00\x00\x00\x00\x00\x00\x00\x00\x00\x00\x00\x00\x00\x00\x00\x00\x00\x00\x00\x00\x00\x00\x00\x00\x00\x00\x00\x00\x00\x00\x00\x00\x00\x00\x00\x00\x00\x00\x00\x00\x00\x00\x00\x00\x00\x00\x00\x00\x00\x00\x00\x00\x00\x00\x00\x00\x00\x00\x00\x00\x00\x00\x00\x00\x00\x00\x00\x00\x00\x00\x00\x00\x00\x00\x00\x00\x00\x00\x00\x00\x00\x00\x00\x00\x00\x00\x00\x00\x00\x00\x00\x00\x00\x00\x00\x00\x00\x00\x00\x00\x00\x00\x00\x00\x00\x00\x00\x00\x00\x00\x00\x00\x00\x00\x00\x00\x00\x00\x00\x00\x00\x00\x00\x00\x00\x00\x00\x00\x00\x00\x00\x00\x00\x00\x00\x00\x00\x00\x00\x00\x00\x00\x00\x00\x00\x00\x00\x00\x00\x00\x00\x00'
Ntbsg23
g2388
(g2384
(I0
tS'b'
tRp2567
(I1
(I189
I1
tg2390
I00
(lp2568
S'f'
aS'j'
aS'f'
aS'j'
aS'f'
aS'j'
aS'f'
aS'j'
aS'f'
aS'j'
aS'f'
aS'j'
aS'f'
aS'j'
aS'f'
aS'j'
aS'f'
aS'j'
aS'f'
aS'j'
aS'f'
aS'j'
aS'f'
aS'j'
aS'f'
aS'j'
aS'f'
aS'j'
aS'f'
aS'j'
aS'f'
aS'j'
aS'f'
aS'j'
aS'f'
aS'j'
aS'f'
aS'j'
aS'f'
aS'j'
aS'f'
aS'j'
aS'f'
aS'j'
aS'f'
aS'j'
aS'f'
aS'j'
aS'f'
aS'j'
aS'f'
aS'j'
aS'f'
aS'j'
aS'f'
aS'j'
aS'f'
aS'j'
aS'f'
aS'j'
aS'f'
aS'j'
aS'f'
aS'j'
aS'f'
aS'j'
aS'j'
aS'f'
aS'j'
aS'j'
aS'f'
aS'j'
aS'f'
aS'j'
aS'j'
aS'j'
aS'j'
aS'f'
aS'j'
aS'j'
aS'f'
aS'j'
aS'j'
aS'f'
aS'j'
aS'f'
aS'j'
aS'f'
aS'j'
aS'f'
aS'j'
aS'f'
aS'j'
aS'f'
aS'j'
aS'f'
aS'j'
aS'f'
aS'j'
aS'f'
aS'j'
aS'f'
aS'j'
aS'f'
aS'j'
aS'f'
aS'j'
aS'f'
aS'j'
aS'f'
aS'j'
aS'f'
aS'j'
aS'f'
aS'j'
aS'f'
aS'j'
aS'f'
aS'j'
aS'f'
aS'j'
aS'f'
aS'j'
aS'f'
aS'j'
aS'f'
aS'j'
aS'f'
aS'j'
aS'f'
aS'j'
aS'f'
aS'j'
aS'f'
aS'j'
aS'f'
aS'j'
aS'f'
aS'j'
aS'f'
aS'j'
aS'j'
aS'f'
aS'j'
aS'f'
aS'j'
aS'f'
aS'j'
aS'j'
aS'f'
aS'j'
aS'f'
aS'j'
aS'f'
aS'f'
aS'j'
aS'f'
aS'j'
aS'f'
aS'j'
aS'f'
aS'j'
aS'f'
aS'j'
aS'f'
aS'j'
aS'f'
aS'j'
aS'f'
aS'j'
aS'f'
aS'j'
aS'j'
aS'f'
aS'j'
aS'f'
aS'j'
aS'f'
aS'j'
aS'f'
aS'j'
aS'f'
aS'j'
aS'f'
aS'j'
aS'f'
aS'j'
aS'f'
aS'j'
atbsg2392
g2382
(g2383
g2384
g2385
S'b'
tRp2569
(I1
(I189
I1
tg2387
I00
S'\x00\x00\x00\x00\x00\x00\x80?\x00\x00\x00@\x00\x00@@\x00\x00\x80@\x00\x00\xa0@\x00\x00\xc0@\x00\x00\xe0@\x00\x00\x00A\x00\x00\x10A\x00\x00 A\x00\x000A\x00\x00@A\x00\x00PA\x00\x00`A\x00\x00pA\x00\x00\x80A\x00\x00\x88A\x00\x00\x90A\x00\x00\x98A\x00\x00\xa0A\x00\x00\xa8A\x00\x00\xb0A\x00\x00\xb8A\x00\x00\xc0A\x00\x00\xc8A\x00\x00\xd0A\x00\x00\xd8A\x00\x00\xe0A\x00\x00\xe8A\x00\x00\xf0A\x00\x00\xf8A\x00\x00\x00B\x00\x00\x04B\x00\x00\x08B\x00\x00\x0cB\x00\x00\x10B\x00\x00\x14B\x00\x00\x18B\x00\x00\x1cB\x00\x00 B\x00\x00$B\x00\x00(B\x00\x00,B\x00\x000B\x00\x004B\x00\x008B\x00\x00<B\x00\x00@B\x00\x00DB\x00\x00HB\x00\x00LB\x00\x00PB\x00\x00TB\x00\x00XB\x00\x00\\B\x00\x00`B\x00\x00dB\x00\x00hB\x00\x00lB\x00\x00pB\x00\x00tB\x00\x00xB\x00\x00|B\x00\x00\x80B\x00\x00\x82B\x00\x00\x84B\x00\x00\x86B\x00\x00\x88B\x00\x00\x8aB\x00\x00\x8cB\x00\x00\x8eB\x00\x00\x90B\x00\x00\x92B\x00\x00\x94B\x00\x00\x96B\x00\x00\x98B\x00\x00\x9aB\x00\x00\x9cB\x00\x00\x9eB\x00\x00\xa0B\x00\x00\xa2B\x00\x00\xa4B\x00\x00\xa6B\x00\x00\xa8B\x00\x00\xaaB\x00\x00\xacB\x00\x00\xaeB\x00\x00\xb0B\x00\x00\xb2B\x00\x00\xb4B\x00\x00\xb6B\x00\x00\xb8B\x00\x00\xbaB\x00\x00\xbcB\x00\x00\xbeB\x00\x00\xc0B\x00\x00\xc2B\x00\x00\xc4B\x00\x00\xc6B\x00\x00\xc8B\x00\x00\xcaB\x00\x00\xccB\x00\x00\xceB\x00\x00\xd0B\x00\x00\xd2B\x00\x00\xd4B\x00\x00\xd6B\x00\x00\xd8B\x00\x00\xdaB\x00\x00\xdcB\x00\x00\xdeB\x00\x00\xe0B\x00\x00\xe2B\x00\x00\xe4B\x00\x00\xe6B\x00\x00\xe8B\x00\x00\xeaB\x00\x00\xecB\x00\x00\xeeB\x00\x00\xf0B\x00\x00\xf2B\x00\x00\xf4B\x00\x00\xf6B\x00\x00\xf8B\x00\x00\xfaB\x00\x00\xfcB\x00\x00\xfeB\x00\x00\x00C\x00\x00\x01C\x00\x00\x02C\x00\x00\x03C\x00\x00\x04C\x00\x00\x05C\x00\x00\x06C\x00\x00\x07C\x00\x00\x08C\x00\x00\tC\x00\x00\nC\x00\x00\x0bC\x00\x00\x0cC\x00\x00\rC\x00\x00\x0eC\x00\x00\x0fC\x00\x00\x10C\x00\x00\x11C\x00\x00\x12C\x00\x00\x13C\x00\x00\x14C\x00\x00\x15C\x00\x00\x16C\x00\x00\x17C\x00\x00\x18C\x00\x00\x19C\x00\x00\x1aC\x00\x00\x1bC\x00\x00\x1cC\x00\x00\x1dC\x00\x00\x1eC\x00\x00\x1fC\x00\x00 C\x00\x00!C\x00\x00"C\x00\x00#C\x00\x00$C\x00\x00%C\x00\x00&C\x00\x00\'C\x00\x00(C\x00\x00)C\x00\x00*C\x00\x00+C\x00\x00,C\x00\x00-C\x00\x00.C\x00\x00/C\x00\x000C\x00\x001C\x00\x002C\x00\x003C\x00\x004C\x00\x005C\x00\x006C\x00\x007C\x00\x008C\x00\x009C\x00\x00:C\x00\x00;C\x00\x00<C'
S'\x00\x00\x00\x00\x00\x00\x00\x00\x00\x00\x00\x00\x00\x00\x00\x00\x00\x00\x00\x00\x00\x00\x00\x00\x00\x00\x00\x00\x00\x00\x00\x00\x00\x00\x00\x00\x00\x00\x00\x00\x00\x00\x00\x00\x00\x00\x00\x00\x00\x00\x00\x00\x00\x00\x00\x00\x00\x00\x00\x00\x00\x00\x00\x00\x00\x00\x00\x00\x00\x00\x00\x00\x00\x00\x00\x00\x00\x00\x00\x00\x00\x00\x00\x00\x00\x00\x00\x00\x00\x00\x00\x00\x00\x00\x00\x00\x00\x00\x00\x00\x00\x00\x00\x00\x00\x00\x00\x00\x00\x00\x00\x00\x00\x00\x00\x00\x00\x00\x00\x00\x00\x00\x00\x00\x00\x00\x00\x00\x00\x00\x00\x00\x00\x00\x00\x00\x00\x00\x00\x00\x00\x00\x00\x00\x00\x00\x00\x00\x00\x00\x00\x00\x00\x00\x00\x00\x00\x00\x00\x00\x00\x00\x00\x00\x00\x00\x00\x00\x00\x00\x00\x00\x00\x00\x00\x00\x00\x00\x00\x00\x00\x00\x00\x00\x00\x00\x00\x00\x00'
Ntbsg24
g2382
(g2383
g2384
g2385
S'b'
tRp2570
(I1
(I189
I1
tg2387
I00
S'I\xf4\x99>\x1c\x8f\xcf=w\xa0\x0c=\x14L\x8a<\x0c:\xac=\r\xdf\x8c<\x1a\x14\x8b=\xd8 \x8c<\xdb\xfe\x91=E\x91\x8b<\xfam\x8a=A@N=\xedd\n=w\x13\x89=\xed\x94N=\x1fWO=\xb2\xd3Q=\xf3\xdf\x8a<}C\x8a=\xbf\x80\x0f=\xa3\xca\x8b=\xf3\xaf\x8b</\xd0\x8d<\xd4\xf4Q=\xdc\xbbu:\x0f\t\x8b=\xd70\x90<\x88A{9PH\xac=G#\n=7\x8a\x0b=\x97\xbfP=\xb3\xcb\x8a<\xe5%\x8b=x\x13\xea9\xc5\xb3\x8a=\xb7\x14\x8b<\x1d-Q=i\x96\x92<a\x1a\x8a<\x87\r\x8d=\xa4\xe4s9\x00\x87Q=<\xe7V=/(\n=\xf8\xf2\x8a=}\xdb\t=aR\x8b=\xdd\xae\n=U<T=/\x00\r=\xfb\xb6\t=\xc5ZZ=a\xffN=%O\x8a<\x032\x8b=HU\n=N\xb5\x8a=\xa7\xe3\x0c=\xbc\xacQ=\xbd\x0c\x8b<8\xf0\x8b=\xad\x1e\x8a<t\xc1R=\x10\xaf\xb89;\xb4\x8a=:\xcf\xcf=\xd4\x90\xe093\xc2\x8b="\xeb\xce=DL\x8d<hL\x8c<\xb4j\x93<\x137\x8b=\xf7$\n>\x93]\xd0=\x03\x16\xf2=\x9c\xb9\xde9\xbf\x8b\x8b= m\xf1=\x88`\xb89\xff\x03\x8b=\xd2\xa5\xd0=<\xc4\x9c9~A\x8a=\xbd\x87\t=F\xde\x8b=\xffI\x90<V\xa7\x89=\xa9O\x8f<%\xe6\xab=?\xc9\n=\xf6@\xad=\xf5p\x10=n\xd1T=\xaa\xba\x89<l\xf5\x8a=I<4:\xa3\xe1\x8a=\xe3\x08x:\xf1\x92\xcf=\xfc\xc0\x8c<L[\x8d=u\x89\x0c=v>\r=y\xbf\x8e<\x82\xda\xad=\xce\x7f\x8d<6\xd2\xac=\xb9+\x0b=\xb7\t\x8f<\xc3\xbe\x93<\xe7\xa4P=\xb3\xe1\x82: <\x8a=e\x9dQ=HBQ=5w\x1a:\xf8n\xac=hq\x0f=\xf30\x8c=V\xcf\x86<_\xf0\x0b=@\xfb\n=24\x0e==\x9f\x0c=:9\xec9\x886\xad=\xff>\x94<b\xfc\x0f=\xf6`\x0c=\xa2\x1dR=\xb2C\x0f=~E\x0b=}\xc8P=\x00M\x8a=S\xb7{:\xd5\xe1\x8e<\x19\xb4Q=\x1c3\x8d<\tB\xad=o\xee\t>]\xdcJ:\xf4\xbd\xab=y\xca\x8a<\xf8?\xd0=<X\xa99\tW\xf1=\xd6\x9a\xf1=&\xd4\x8b<\xdf\xa9\xac=F\x0e\x0b=\x88\x03P=\\\xf4\x8b=Z\x11\x0c>tQ\x989$\xbd\x8b=FE\x13=\xd6\x8b\x93<unQ=\x84P\x89<\xdc\xe5\xad=\xe0B\x8a<R\x1bQ=N%\r=\xcc\x90\n=\x87\xd5\x8b=\x03\x93\x90<\xc3\xe7\x89=\xaa\xd7\n=\x8c\x84\x0c=\xb6k\x1b>\xb4\x15\xf2=5M\x8f<\x9dj\x0b=3\xa9\x0b=\xb4\xbaR=\x86\x10\x869d\xe2\x89=\x99)\r=\x94\x89\t=\xd4$m9\xd6j\xad=6\xe9\xb99oU\x8a=\x82p\x91<*\xfd\xac=\x05\x98\x8b<\xa8\xf0\x89='
S'\x00\x00\x00\x00\x00\x00\x00\x00\x00\x00\x00\x00\x00\x00\x00\x00\x00\x00\x00\x00\x00\x00\x00\x00\x00\x00\x00\x00\x00\x00\x00\x00\x00\x00\x00\x00\x00\x00\x00\x00\x00\x00\x00\x00\x00\x00\x00\x00\x00\x00\x00\x00\x00\x00\x00\x00\x00\x00\x00\x00\x00\x00\x00\x00\x00\x00\x00\x00\x00\x00\x00\x00\x00\x00\x00\x00\x00\x00\x00\x00\x00\x00\x00\x00\x00\x00\x00\x00\x00\x00\x00\x00\x00\x00\x00\x00\x00\x00\x00\x00\x00\x00\x00\x00\x00\x00\x00\x00\x00\x00\x00\x00\x00\x00\x00\x00\x00\x00\x00\x00\x00\x00\x00\x00\x00\x00\x00\x00\x00\x00\x00\x00\x00\x00\x00\x00\x00\x00\x00\x00\x00\x00\x00\x00\x00\x00\x00\x00\x00\x00\x00\x00\x00\x00\x00\x00\x00\x00\x00\x00\x00\x00\x00\x00\x00\x00\x00\x00\x00\x00\x00\x00\x00\x00\x00\x00\x00\x00\x00\x00\x00\x00\x00\x00\x00\x00\x00\x00\x00'
NtbstRp2571
(dp2572
g2397
(dp2573
g2381
I01
sg23
I00
sg2392
I01
sg24
I01
ssg2399
g2561
sg2400
(lp2574
g2381
ag2392
ag23
ag24
asg2402
(lp2575
I189
aI1
asbsg2404
g2433
sg2406
g2388
(g2384
(I0
tS'b'
tRp2576
(I1
(I189
I1
tg70
I00
S'\x00\x00\x00\x00\x01\x00\x00\x00\x02\x00\x00\x00\x03\x00\x00\x00\x04\x00\x00\x00\x05\x00\x00\x00\x06\x00\x00\x00\x07\x00\x00\x00\x08\x00\x00\x00\t\x00\x00\x00\n\x00\x00\x00\x0b\x00\x00\x00\x0c\x00\x00\x00\r\x00\x00\x00\x0e\x00\x00\x00\x0f\x00\x00\x00\x10\x00\x00\x00\x11\x00\x00\x00\x12\x00\x00\x00\x13\x00\x00\x00\x14\x00\x00\x00\x15\x00\x00\x00\x16\x00\x00\x00\x17\x00\x00\x00\x18\x00\x00\x00\x19\x00\x00\x00\x1a\x00\x00\x00\x1b\x00\x00\x00\x1c\x00\x00\x00\x1d\x00\x00\x00\x1e\x00\x00\x00\x1f\x00\x00\x00 \x00\x00\x00!\x00\x00\x00"\x00\x00\x00#\x00\x00\x00$\x00\x00\x00%\x00\x00\x00&\x00\x00\x00\'\x00\x00\x00(\x00\x00\x00)\x00\x00\x00*\x00\x00\x00+\x00\x00\x00,\x00\x00\x00-\x00\x00\x00.\x00\x00\x00/\x00\x00\x000\x00\x00\x001\x00\x00\x002\x00\x00\x003\x00\x00\x004\x00\x00\x005\x00\x00\x006\x00\x00\x007\x00\x00\x008\x00\x00\x009\x00\x00\x00:\x00\x00\x00;\x00\x00\x00<\x00\x00\x00=\x00\x00\x00>\x00\x00\x00?\x00\x00\x00@\x00\x00\x00A\x00\x00\x00B\x00\x00\x00C\x00\x00\x00D\x00\x00\x00E\x00\x00\x00F\x00\x00\x00G\x00\x00\x00H\x00\x00\x00I\x00\x00\x00J\x00\x00\x00K\x00\x00\x00L\x00\x00\x00M\x00\x00\x00N\x00\x00\x00O\x00\x00\x00P\x00\x00\x00Q\x00\x00\x00R\x00\x00\x00S\x00\x00\x00T\x00\x00\x00U\x00\x00\x00V\x00\x00\x00W\x00\x00\x00X\x00\x00\x00Y\x00\x00\x00Z\x00\x00\x00[\x00\x00\x00\\\x00\x00\x00]\x00\x00\x00^\x00\x00\x00_\x00\x00\x00`\x00\x00\x00a\x00\x00\x00b\x00\x00\x00c\x00\x00\x00d\x00\x00\x00e\x00\x00\x00f\x00\x00\x00g\x00\x00\x00h\x00\x00\x00i\x00\x00\x00j\x00\x00\x00k\x00\x00\x00l\x00\x00\x00m\x00\x00\x00n\x00\x00\x00o\x00\x00\x00p\x00\x00\x00q\x00\x00\x00r\x00\x00\x00s\x00\x00\x00t\x00\x00\x00u\x00\x00\x00v\x00\x00\x00w\x00\x00\x00x\x00\x00\x00y\x00\x00\x00z\x00\x00\x00{\x00\x00\x00|\x00\x00\x00}\x00\x00\x00~\x00\x00\x00\x7f\x00\x00\x00\x80\x00\x00\x00\x81\x00\x00\x00\x82\x00\x00\x00\x83\x00\x00\x00\x84\x00\x00\x00\x85\x00\x00\x00\x86\x00\x00\x00\x87\x00\x00\x00\x88\x00\x00\x00\x89\x00\x00\x00\x8a\x00\x00\x00\x8b\x00\x00\x00\x8c\x00\x00\x00\x8d\x00\x00\x00\x8e\x00\x00\x00\x8f\x00\x00\x00\x90\x00\x00\x00\x91\x00\x00\x00\x92\x00\x00\x00\x93\x00\x00\x00\x94\x00\x00\x00\x95\x00\x00\x00\x96\x00\x00\x00\x97\x00\x00\x00\x98\x00\x00\x00\x99\x00\x00\x00\x9a\x00\x00\x00\x9b\x00\x00\x00\x9c\x00\x00\x00\x9d\x00\x00\x00\x9e\x00\x00\x00\x9f\x00\x00\x00\xa0\x00\x00\x00\xa1\x00\x00\x00\xa2\x00\x00\x00\xa3\x00\x00\x00\xa4\x00\x00\x00\xa5\x00\x00\x00\xa6\x00\x00\x00\xa7\x00\x00\x00\xa8\x00\x00\x00\xa9\x00\x00\x00\xaa\x00\x00\x00\xab\x00\x00\x00\xac\x00\x00\x00\xad\x00\x00\x00\xae\x00\x00\x00\xaf\x00\x00\x00\xb0\x00\x00\x00\xb1\x00\x00\x00\xb2\x00\x00\x00\xb3\x00\x00\x00\xb4\x00\x00\x00\xb5\x00\x00\x00\xb6\x00\x00\x00\xb7\x00\x00\x00\xb8\x00\x00\x00\xb9\x00\x00\x00\xba\x00\x00\x00\xbb\x00\x00\x00\xbc\x00\x00\x00'
tbsg2408
I01
sg2409
I1
sg2410
I-1
sg2411
(lp2577
g1
(g2436
g2379
(dp2578
g55
g852
sg56
g849
sg57
g854
sg58
g853
stRp2579
ag1
(g2436
g2379
(dp2580
g55
g862
sg56
g859
sg57
g863
sg58
g853
stRp2581
ag1
(g2436
g2379
(dp2582
g55
g870
sg56
g849
sg57
g871
sg58
g853
stRp2583
ag1
(g2436
g2379
(dp2584
g55
g878
sg56
g859
sg57
g879
sg58
g853
stRp2585
ag1
(g2436
g2379
(dp2586
g55
g886
sg56
g849
sg57
g887
sg58
g853
stRp2587
ag1
(g2436
g2379
(dp2588
g55
g895
sg56
g892
sg57
g896
sg58
g853
stRp2589
ag1
(g2436
g2379
(dp2590
g55
g903
sg56
g892
sg57
g904
sg58
g853
stRp2591
ag1
(g2436
g2379
(dp2592
g55
g911
sg56
g859
sg57
g912
sg58
g853
stRp2593
ag1
(g2436
g2379
(dp2594
g55
g919
sg56
g892
sg57
g920
sg58
g853
stRp2595
ag1
(g2436
g2379
(dp2596
g55
g927
sg56
g859
sg57
g928
sg58
g853
stRp2597
ag1
(g2436
g2379
(dp2598
g55
g935
sg56
g892
sg57
g936
sg58
g853
stRp2599
ag1
(g2436
g2379
(dp2600
g55
g943
sg56
g849
sg57
g944
sg58
g853
stRp2601
ag1
(g2436
g2379
(dp2602
g55
g951
sg56
g849
sg57
g952
sg58
g853
stRp2603
ag1
(g2436
g2379
(dp2604
g55
g959
sg56
g859
sg57
g960
sg58
g853
stRp2605
ag1
(g2436
g2379
(dp2606
g55
g967
sg56
g859
sg57
g968
sg58
g853
stRp2607
ag1
(g2436
g2379
(dp2608
g55
g975
sg56
g892
sg57
g976
sg58
g853
stRp2609
ag1
(g2436
g2379
(dp2610
g55
g983
sg56
g859
sg57
g984
sg58
g853
stRp2611
ag1
(g2436
g2379
(dp2612
g55
g991
sg56
g892
sg57
g992
sg58
g853
stRp2613
ag1
(g2436
g2379
(dp2614
g55
g999
sg56
g849
sg57
g1000
sg58
g853
stRp2615
ag1
(g2436
g2379
(dp2616
g55
g1007
sg56
g892
sg57
g1008
sg58
g853
stRp2617
ag1
(g2436
g2379
(dp2618
g55
g1015
sg56
g849
sg57
g1016
sg58
g853
stRp2619
ag1
(g2436
g2379
(dp2620
g55
g1023
sg56
g892
sg57
g1025
sg58
g1024
stRp2621
ag1
(g2436
g2379
(dp2622
g55
g1032
sg56
g892
sg57
g1033
sg58
g1024
stRp2623
ag1
(g2436
g2379
(dp2624
g55
g1040
sg56
g849
sg57
g1041
sg58
g1024
stRp2625
ag1
(g2436
g2379
(dp2626
g55
g1048
sg56
g892
sg57
g1049
sg58
g1024
stRp2627
ag1
(g2436
g2379
(dp2628
g55
g1056
sg56
g859
sg57
g1057
sg58
g1024
stRp2629
ag1
(g2436
g2379
(dp2630
g55
g1064
sg56
g892
sg57
g1065
sg58
g1024
stRp2631
ag1
(g2436
g2379
(dp2632
g55
g1072
sg56
g859
sg57
g1073
sg58
g1024
stRp2633
ag1
(g2436
g2379
(dp2634
g55
g1080
sg56
g892
sg57
g1081
sg58
g1024
stRp2635
ag1
(g2436
g2379
(dp2636
g55
g1088
sg56
g859
sg57
g1089
sg58
g1024
stRp2637
ag1
(g2436
g2379
(dp2638
g55
g1096
sg56
g859
sg57
g1097
sg58
g1024
stRp2639
ag1
(g2436
g2379
(dp2640
g55
g1104
sg56
g859
sg57
g1105
sg58
g1024
stRp2641
ag1
(g2436
g2379
(dp2642
g55
g1112
sg56
g849
sg57
g1113
sg58
g1024
stRp2643
ag1
(g2436
g2379
(dp2644
g55
g1120
sg56
g849
sg57
g1121
sg58
g1024
stRp2645
ag1
(g2436
g2379
(dp2646
g55
g1128
sg56
g849
sg57
g1129
sg58
g1024
stRp2647
ag1
(g2436
g2379
(dp2648
g55
g1136
sg56
g849
sg57
g1137
sg58
g1024
stRp2649
ag1
(g2436
g2379
(dp2650
g55
g1144
sg56
g849
sg57
g1145
sg58
g1024
stRp2651
ag1
(g2436
g2379
(dp2652
g55
g1152
sg56
g849
sg57
g1153
sg58
g1024
stRp2653
ag1
(g2436
g2379
(dp2654
g55
g1160
sg56
g892
sg57
g1161
sg58
g1024
stRp2655
ag1
(g2436
g2379
(dp2656
g55
g1168
sg56
g892
sg57
g1169
sg58
g1024
stRp2657
ag1
(g2436
g2379
(dp2658
g55
g1176
sg56
g859
sg57
g1177
sg58
g1024
stRp2659
ag1
(g2436
g2379
(dp2660
g55
g1184
sg56
g859
sg57
g1185
sg58
g1024
stRp2661
ag1
(g2436
g2379
(dp2662
g55
g1192
sg56
g849
sg57
g1194
sg58
g1193
stRp2663
ag1
(g2436
g2379
(dp2664
g55
g1201
sg56
g859
sg57
g1202
sg58
g1193
stRp2665
ag1
(g2436
g2379
(dp2666
g55
g1209
sg56
g849
sg57
g1210
sg58
g1193
stRp2667
ag1
(g2436
g2379
(dp2668
g55
g1217
sg56
g859
sg57
g1218
sg58
g1193
stRp2669
ag1
(g2436
g2379
(dp2670
g55
g1225
sg56
g892
sg57
g1226
sg58
g1193
stRp2671
ag1
(g2436
g2379
(dp2672
g55
g1233
sg56
g849
sg57
g1234
sg58
g1193
stRp2673
ag1
(g2436
g2379
(dp2674
g55
g1241
sg56
g859
sg57
g1242
sg58
g1193
stRp2675
ag1
(g2436
g2379
(dp2676
g55
g1249
sg56
g849
sg57
g1250
sg58
g1193
stRp2677
ag1
(g2436
g2379
(dp2678
g55
g1257
sg56
g892
sg57
g1258
sg58
g1193
stRp2679
ag1
(g2436
g2379
(dp2680
g55
g1265
sg56
g892
sg57
g1266
sg58
g1193
stRp2681
ag1
(g2436
g2379
(dp2682
g55
g1273
sg56
g859
sg57
g1274
sg58
g1193
stRp2683
ag1
(g2436
g2379
(dp2684
g55
g1281
sg56
g849
sg57
g1282
sg58
g1193
stRp2685
ag1
(g2436
g2379
(dp2686
g55
g1289
sg56
g892
sg57
g1290
sg58
g1193
stRp2687
ag1
(g2436
g2379
(dp2688
g55
g1297
sg56
g892
sg57
g1298
sg58
g1193
stRp2689
ag1
(g2436
g2379
(dp2690
g55
g1305
sg56
g849
sg57
g1306
sg58
g1193
stRp2691
ag1
(g2436
g2379
(dp2692
g55
g1313
sg56
g849
sg57
g1314
sg58
g1193
stRp2693
ag1
(g2436
g2379
(dp2694
g55
g1321
sg56
g859
sg57
g1322
sg58
g1193
stRp2695
ag1
(g2436
g2379
(dp2696
g55
g1329
sg56
g892
sg57
g1330
sg58
g1193
stRp2697
ag1
(g2436
g2379
(dp2698
g55
g1337
sg56
g892
sg57
g1338
sg58
g1193
stRp2699
ag1
(g2436
g2379
(dp2700
g55
g1345
sg56
g859
sg57
g1346
sg58
g1193
stRp2701
ag1
(g2436
g2379
(dp2702
g55
g1353
sg56
g859
sg57
g1354
sg58
g1193
stRp2703
ag1
(g2436
g2379
(dp2704
g55
g1361
sg56
g849
sg57
g1362
sg58
g1024
stRp2705
ag1
(g2436
g2379
(dp2706
g55
g1369
sg56
g849
sg57
g1370
sg58
g1024
stRp2707
ag1
(g2436
g2379
(dp2708
g55
g1377
sg56
g849
sg57
g1378
sg58
g1024
stRp2709
ag1
(g2436
g2379
(dp2710
g55
g1385
sg56
g859
sg57
g1386
sg58
g1024
stRp2711
ag1
(g2436
g2379
(dp2712
g55
g1393
sg56
g859
sg57
g1394
sg58
g1024
stRp2713
ag1
(g2436
g2379
(dp2714
g55
g1401
sg56
g892
sg57
g1402
sg58
g1024
stRp2715
ag1
(g2436
g2379
(dp2716
g55
g1409
sg56
g849
sg57
g1410
sg58
g1024
stRp2717
ag1
(g2436
g2379
(dp2718
g55
g1417
sg56
g859
sg57
g1418
sg58
g1024
stRp2719
ag1
(g2436
g2379
(dp2720
g55
g1425
sg56
g892
sg57
g1426
sg58
g1024
stRp2721
ag1
(g2436
g2379
(dp2722
g55
g1433
sg56
g849
sg57
g1434
sg58
g1024
stRp2723
ag1
(g2436
g2379
(dp2724
g55
g1441
sg56
g859
sg57
g1442
sg58
g1024
stRp2725
ag1
(g2436
g2379
(dp2726
g55
g1449
sg56
g849
sg57
g1450
sg58
g1024
stRp2727
ag1
(g2436
g2379
(dp2728
g55
g1457
sg56
g859
sg57
g1458
sg58
g1024
stRp2729
ag1
(g2436
g2379
(dp2730
g55
g1465
sg56
g892
sg57
g1466
sg58
g1024
stRp2731
ag1
(g2436
g2379
(dp2732
g55
g1473
sg56
g892
sg57
g1474
sg58
g1024
stRp2733
ag1
(g2436
g2379
(dp2734
g55
g1481
sg56
g892
sg57
g1482
sg58
g1024
stRp2735
ag1
(g2436
g2379
(dp2736
g55
g1489
sg56
g849
sg57
g1490
sg58
g1024
stRp2737
ag1
(g2436
g2379
(dp2738
g55
g1497
sg56
g892
sg57
g1498
sg58
g1024
stRp2739
ag1
(g2436
g2379
(dp2740
g55
g1505
sg56
g892
sg57
g1506
sg58
g1024
stRp2741
ag1
(g2436
g2379
(dp2742
g55
g1513
sg56
g859
sg57
g1514
sg58
g1024
stRp2743
ag1
(g2436
g2379
(dp2744
g55
g1521
sg56
g859
sg57
g1522
sg58
g1024
stRp2745
ag1
(g2436
g2379
(dp2746
g55
g1529
sg56
g859
sg57
g1530
sg58
g1193
stRp2747
ag1
(g2436
g2379
(dp2748
g55
g1537
sg56
g859
sg57
g1538
sg58
g1193
stRp2749
ag1
(g2436
g2379
(dp2750
g55
g1545
sg56
g849
sg57
g1546
sg58
g1193
stRp2751
ag1
(g2436
g2379
(dp2752
g55
g1553
sg56
g859
sg57
g1554
sg58
g1193
stRp2753
ag1
(g2436
g2379
(dp2754
g55
g1561
sg56
g892
sg57
g1562
sg58
g1193
stRp2755
ag1
(g2436
g2379
(dp2756
g55
g1569
sg56
g859
sg57
g1570
sg58
g1193
stRp2757
ag1
(g2436
g2379
(dp2758
g55
g1577
sg56
g859
sg57
g1578
sg58
g1193
stRp2759
ag1
(g2436
g2379
(dp2760
g55
g1585
sg56
g849
sg57
g1586
sg58
g1193
stRp2761
ag1
(g2436
g2379
(dp2762
g55
g1593
sg56
g892
sg57
g1594
sg58
g1193
stRp2763
ag1
(g2436
g2379
(dp2764
g55
g1601
sg56
g849
sg57
g1602
sg58
g1193
stRp2765
ag1
(g2436
g2379
(dp2766
g55
g1609
sg56
g892
sg57
g1610
sg58
g1193
stRp2767
ag1
(g2436
g2379
(dp2768
g55
g1617
sg56
g849
sg57
g1618
sg58
g1193
stRp2769
ag1
(g2436
g2379
(dp2770
g55
g1625
sg56
g892
sg57
g1626
sg58
g1193
stRp2771
ag1
(g2436
g2379
(dp2772
g55
g1633
sg56
g849
sg57
g1634
sg58
g1193
stRp2773
ag1
(g2436
g2379
(dp2774
g55
g1641
sg56
g859
sg57
g1642
sg58
g1193
stRp2775
ag1
(g2436
g2379
(dp2776
g55
g1649
sg56
g859
sg57
g1650
sg58
g1193
stRp2777
ag1
(g2436
g2379
(dp2778
g55
g1657
sg56
g849
sg57
g1658
sg58
g1193
stRp2779
ag1
(g2436
g2379
(dp2780
g55
g1665
sg56
g892
sg57
g1666
sg58
g1193
stRp2781
ag1
(g2436
g2379
(dp2782
g55
g1673
sg56
g892
sg57
g1674
sg58
g1193
stRp2783
ag1
(g2436
g2379
(dp2784
g55
g1681
sg56
g849
sg57
g1682
sg58
g1193
stRp2785
ag1
(g2436
g2379
(dp2786
g55
g1689
sg56
g892
sg57
g1690
sg58
g1193
stRp2787
ag1
(g2436
g2379
(dp2788
g55
g1697
sg56
g849
sg57
g1698
sg58
g853
stRp2789
ag1
(g2436
g2379
(dp2790
g55
g1705
sg56
g859
sg57
g1706
sg58
g853
stRp2791
ag1
(g2436
g2379
(dp2792
g55
g1713
sg56
g859
sg57
g1714
sg58
g853
stRp2793
ag1
(g2436
g2379
(dp2794
g55
g1721
sg56
g892
sg57
g1722
sg58
g853
stRp2795
ag1
(g2436
g2379
(dp2796
g55
g1729
sg56
g859
sg57
g1730
sg58
g853
stRp2797
ag1
(g2436
g2379
(dp2798
g55
g1737
sg56
g859
sg57
g1738
sg58
g853
stRp2799
ag1
(g2436
g2379
(dp2800
g55
g1745
sg56
g849
sg57
g1746
sg58
g853
stRp2801
ag1
(g2436
g2379
(dp2802
g55
g1753
sg56
g849
sg57
g1754
sg58
g853
stRp2803
ag1
(g2436
g2379
(dp2804
g55
g1761
sg56
g892
sg57
g1762
sg58
g853
stRp2805
ag1
(g2436
g2379
(dp2806
g55
g1769
sg56
g849
sg57
g1770
sg58
g853
stRp2807
ag1
(g2436
g2379
(dp2808
g55
g1777
sg56
g892
sg57
g1778
sg58
g853
stRp2809
ag1
(g2436
g2379
(dp2810
g55
g1785
sg56
g859
sg57
g1786
sg58
g853
stRp2811
ag1
(g2436
g2379
(dp2812
g55
g1793
sg56
g892
sg57
g1794
sg58
g853
stRp2813
ag1
(g2436
g2379
(dp2814
g55
g1801
sg56
g859
sg57
g1802
sg58
g853
stRp2815
ag1
(g2436
g2379
(dp2816
g55
g1809
sg56
g859
sg57
g1810
sg58
g853
stRp2817
ag1
(g2436
g2379
(dp2818
g55
g1817
sg56
g849
sg57
g1818
sg58
g853
stRp2819
ag1
(g2436
g2379
(dp2820
g55
g1825
sg56
g849
sg57
g1826
sg58
g853
stRp2821
ag1
(g2436
g2379
(dp2822
g55
g1833
sg56
g892
sg57
g1834
sg58
g853
stRp2823
ag1
(g2436
g2379
(dp2824
g55
g1841
sg56
g849
sg57
g1842
sg58
g853
stRp2825
ag1
(g2436
g2379
(dp2826
g55
g1849
sg56
g892
sg57
g1850
sg58
g853
stRp2827
ag1
(g2436
g2379
(dp2828
g55
g1857
sg56
g892
sg57
g1858
sg58
g853
stRp2829
ag1
(g2436
g2379
(dp2830
g55
g1865
sg56
g849
sg57
g1866
sg58
g1193
stRp2831
ag1
(g2436
g2379
(dp2832
g55
g1873
sg56
g859
sg57
g1874
sg58
g1193
stRp2833
ag1
(g2436
g2379
(dp2834
g55
g1881
sg56
g892
sg57
g1882
sg58
g1193
stRp2835
ag1
(g2436
g2379
(dp2836
g55
g1889
sg56
g849
sg57
g1890
sg58
g1193
stRp2837
ag1
(g2436
g2379
(dp2838
g55
g1897
sg56
g859
sg57
g1898
sg58
g1193
stRp2839
ag1
(g2436
g2379
(dp2840
g55
g1905
sg56
g892
sg57
g1906
sg58
g1193
stRp2841
ag1
(g2436
g2379
(dp2842
g55
g1913
sg56
g859
sg57
g1914
sg58
g1193
stRp2843
ag1
(g2436
g2379
(dp2844
g55
g1921
sg56
g859
sg57
g1922
sg58
g1193
stRp2845
ag1
(g2436
g2379
(dp2846
g55
g1929
sg56
g849
sg57
g1930
sg58
g1193
stRp2847
ag1
(g2436
g2379
(dp2848
g55
g1937
sg56
g859
sg57
g1938
sg58
g1193
stRp2849
ag1
(g2436
g2379
(dp2850
g55
g1945
sg56
g849
sg57
g1946
sg58
g1193
stRp2851
ag1
(g2436
g2379
(dp2852
g55
g1953
sg56
g849
sg57
g1954
sg58
g1193
stRp2853
ag1
(g2436
g2379
(dp2854
g55
g1961
sg56
g859
sg57
g1962
sg58
g1193
stRp2855
ag1
(g2436
g2379
(dp2856
g55
g1969
sg56
g892
sg57
g1970
sg58
g1193
stRp2857
ag1
(g2436
g2379
(dp2858
g55
g1977
sg56
g892
sg57
g1978
sg58
g1193
stRp2859
ag1
(g2436
g2379
(dp2860
g55
g1985
sg56
g849
sg57
g1986
sg58
g1193
stRp2861
ag1
(g2436
g2379
(dp2862
g55
g1993
sg56
g892
sg57
g1994
sg58
g1193
stRp2863
ag1
(g2436
g2379
(dp2864
g55
g2001
sg56
g849
sg57
g2002
sg58
g1193
stRp2865
ag1
(g2436
g2379
(dp2866
g55
g2009
sg56
g892
sg57
g2010
sg58
g1193
stRp2867
ag1
(g2436
g2379
(dp2868
g55
g2017
sg56
g859
sg57
g2018
sg58
g1193
stRp2869
ag1
(g2436
g2379
(dp2870
g55
g2025
sg56
g892
sg57
g2026
sg58
g1193
stRp2871
ag1
(g2436
g2379
(dp2872
g55
g2033
sg56
g859
sg57
g2034
sg58
g853
stRp2873
ag1
(g2436
g2379
(dp2874
g55
g2041
sg56
g849
sg57
g2042
sg58
g853
stRp2875
ag1
(g2436
g2379
(dp2876
g55
g2049
sg56
g892
sg57
g2050
sg58
g853
stRp2877
ag1
(g2436
g2379
(dp2878
g55
g2057
sg56
g849
sg57
g2058
sg58
g853
stRp2879
ag1
(g2436
g2379
(dp2880
g55
g2065
sg56
g859
sg57
g2066
sg58
g853
stRp2881
ag1
(g2436
g2379
(dp2882
g55
g2073
sg56
g892
sg57
g2074
sg58
g853
stRp2883
ag1
(g2436
g2379
(dp2884
g55
g2081
sg56
g892
sg57
g2082
sg58
g853
stRp2885
ag1
(g2436
g2379
(dp2886
g55
g2089
sg56
g859
sg57
g2090
sg58
g853
stRp2887
ag1
(g2436
g2379
(dp2888
g55
g2097
sg56
g892
sg57
g2098
sg58
g853
stRp2889
ag1
(g2436
g2379
(dp2890
g55
g2105
sg56
g849
sg57
g2106
sg58
g853
stRp2891
ag1
(g2436
g2379
(dp2892
g55
g2113
sg56
g859
sg57
g2114
sg58
g853
stRp2893
ag1
(g2436
g2379
(dp2894
g55
g2121
sg56
g849
sg57
g2122
sg58
g853
stRp2895
ag1
(g2436
g2379
(dp2896
g55
g2129
sg56
g859
sg57
g2130
sg58
g853
stRp2897
ag1
(g2436
g2379
(dp2898
g55
g2137
sg56
g849
sg57
g2138
sg58
g853
stRp2899
ag1
(g2436
g2379
(dp2900
g55
g2145
sg56
g892
sg57
g2146
sg58
g853
stRp2901
ag1
(g2436
g2379
(dp2902
g55
g2153
sg56
g849
sg57
g2154
sg58
g853
stRp2903
ag1
(g2436
g2379
(dp2904
g55
g2161
sg56
g859
sg57
g2162
sg58
g853
stRp2905
ag1
(g2436
g2379
(dp2906
g55
g2169
sg56
g892
sg57
g2170
sg58
g853
stRp2907
ag1
(g2436
g2379
(dp2908
g55
g2177
sg56
g859
sg57
g2178
sg58
g853
stRp2909
ag1
(g2436
g2379
(dp2910
g55
g2185
sg56
g892
sg57
g2186
sg58
g853
stRp2911
ag1
(g2436
g2379
(dp2912
g55
g2193
sg56
g849
sg57
g2194
sg58
g853
stRp2913
ag1
(g2436
g2379
(dp2914
g55
g2201
sg56
g859
sg57
g2202
sg58
g1024
stRp2915
ag1
(g2436
g2379
(dp2916
g55
g2209
sg56
g859
sg57
g2210
sg58
g1024
stRp2917
ag1
(g2436
g2379
(dp2918
g55
g2217
sg56
g859
sg57
g2218
sg58
g1024
stRp2919
ag1
(g2436
g2379
(dp2920
g55
g2225
sg56
g892
sg57
g2226
sg58
g1024
stRp2921
ag1
(g2436
g2379
(dp2922
g55
g2233
sg56
g892
sg57
g2234
sg58
g1024
stRp2923
ag1
(g2436
g2379
(dp2924
g55
g2241
sg56
g892
sg57
g2242
sg58
g1024
stRp2925
ag1
(g2436
g2379
(dp2926
g55
g2249
sg56
g892
sg57
g2250
sg58
g1024
stRp2927
ag1
(g2436
g2379
(dp2928
g55
g2257
sg56
g859
sg57
g2258
sg58
g1024
stRp2929
ag1
(g2436
g2379
(dp2930
g55
g2265
sg56
g849
sg57
g2266
sg58
g1024
stRp2931
ag1
(g2436
g2379
(dp2932
g55
g2273
sg56
g849
sg57
g2274
sg58
g1024
stRp2933
ag1
(g2436
g2379
(dp2934
g55
g2281
sg56
g859
sg57
g2282
sg58
g1024
stRp2935
ag1
(g2436
g2379
(dp2936
g55
g2289
sg56
g892
sg57
g2290
sg58
g1024
stRp2937
ag1
(g2436
g2379
(dp2938
g55
g2297
sg56
g849
sg57
g2298
sg58
g1024
stRp2939
ag1
(g2436
g2379
(dp2940
g55
g2305
sg56
g849
sg57
g2306
sg58
g1024
stRp2941
ag1
(g2436
g2379
(dp2942
g55
g2313
sg56
g859
sg57
g2314
sg58
g1024
stRp2943
ag1
(g2436
g2379
(dp2944
g55
g2321
sg56
g892
sg57
g2322
sg58
g1024
stRp2945
ag1
(g2436
g2379
(dp2946
g55
g2329
sg56
g849
sg57
g2330
sg58
g1024
stRp2947
ag1
(g2436
g2379
(dp2948
g55
g2337
sg56
g849
sg57
g2338
sg58
g1024
stRp2949
ag1
(g2436
g2379
(dp2950
g55
g2345
sg56
g849
sg57
g2346
sg58
g1024
stRp2951
ag1
(g2436
g2379
(dp2952
g55
g2353
sg56
g892
sg57
g2354
sg58
g1024
stRp2953
ag1
(g2436
g2379
(dp2954
g55
g2361
sg56
g859
sg57
g2362
sg58
g1024
stRp2955
asg2413
Nsg2414
g2364
sg2415
I189
sg2416
I0
sg2417
I189
sbasS'savePickle'
p2956
I00
sb.