ccopy_reg
_reconstructor
p1
(cpsychopy.data
ExperimentHandler
p2
c__builtin__
object
p3
NtRp4
(dp5
S'originPath'
p6
VC:\u005cUsers\u005cchatterjeelab\u005cDocuments\u005cArrows_VVA\u005cArrows_VVA_Direction.psyexp
p7
sS'dataFileName'
p8
VC:\u005cUsers\u005cchatterjeelab\u005cDocuments\u005cArrows_VVA\u005cdata_Arrows_VVA_Direction\u005c1001_2018_Jul_20_1137
p9
sS'runtimeInfo'
p10
NsS'name'
p11
S'Arrows_VVA_Direction'
p12
sS'dataNames'
p13
(lp14
S'key_resp_7.keys'
p15
aS'key_resp_7.rt'
p16
aS'key_resp_6.keys'
p17
aS'key_resp_6.rt'
p18
aS'key_resp_11.keys'
p19
aS'key_resp_11.rt'
p20
aS'key_resp_2.keys'
p21
aS'key_resp_2.rt'
p22
aS'key_resp_13.keys'
p23
aS'key_resp_13.rt'
p24
aS'direction_response.keys'
p25
aS'direction_response.rt'
p26
asS'autoLog'
p27
I01
sS'extraInfo'
p28
(dp29
S'date'
p30
V2018_Jul_20_1137
p31
sS'frameRate'
p32
cnumpy.core.multiarray
scalar
p33
(cnumpy
dtype
p34
(S'f8'
I0
I1
tRp35
(I3
S'<'
NNNI-1
I-1
I0
tbS'\xf3\x87\xd2\xa1\xf0\xf0M@'
tRp36
sS'expName'
p37
g12
sVparticipant
p38
V1001
p39
sVScr or Whi
p40
VWhi
p41
ssS'loopsUnfinished'
p42
(lp43
sS'saveWideText'
p44
I00
sS'thisEntry'
p45
(dp46
sS'version'
p47
S''
sS'_paramNamesSoFar'
p48
(lp49
VStimulus_Practice
p50
aVDirection
p51
aVNumber
p52
aVBackground
p53
aVFormat
p54
aS'Stimulus'
p55
aS'direction'
p56
aS'number'
p57
aS'format'
p58
asS'entries'
p59
(lp60
(dp61
g37
g12
sg38
g39
sg15
S'd'
sg30
g31
sg16
F3.6140801188012119
sg32
g36
sg40
g41
sa(dp62
S'repeat_spatial_practice.thisN'
p63
I0
sg37
g12
sg19
S'f'
sg50
Vahead_schema_3_WHI.jpg
p64
sg17
S'd'
sg32
g36
sS'repeat_spatial_practice.thisIndex'
p65
g33
(g34
(S'i4'
I0
I1
tRp66
(I3
S'<'
NNNI-1
I-1
I0
tbS'\x00\x00\x00\x00'
tRp67
sg20
F0.61799319661804475
sg30
g31
sg40
g41
sS'trials.thisIndex'
p68
g33
(g66
S'\x03\x00\x00\x00'
tRp69
sg51
Vahead
p70
sS'repeat_spatial_practice.thisTrial'
p71
Nsg38
g39
sg54
Vschema
p72
sS'trials.thisRepN'
p73
I0
sS'repeat_spatial_practice.thisTrialN'
p74
I0
sg52
I3
sS'trials.thisN'
p75
I0
sS'repeat_spatial_practice.thisRepN'
p76
I0
sS'trials.thisTrialN'
p77
I0
sg53
V_WHI
p78
sg18
F0.50144559421460144
sa(dp79
S'repeat_spatial_practice.thisN'
p80
I0
sg51
Vleft
p81
sS'repeat_spatial_practice.thisTrial'
p82
Nsg38
g39
sg53
g78
sg19
S'a'
sS'trials.thisRepN'
p83
I0
sS'repeat_spatial_practice.thisTrialN'
p84
I0
sg54
g72
sg32
g36
sg52
I2
sS'trials.thisN'
p85
I1
sS'repeat_spatial_practice.thisRepN'
p86
I0
sS'repeat_spatial_practice.thisIndex'
p87
g67
sS'trials.thisTrialN'
p88
I1
sg50
Vleft_schema_2_WHI.jpg
p89
sg20
F0.45159167083329521
sg30
g31
sg40
g41
sg37
g12
sS'trials.thisIndex'
p90
g33
(g66
S'\x08\x00\x00\x00'
tRp91
sa(dp92
S'repeat_spatial_practice.thisN'
p93
I0
sg51
g81
sS'repeat_spatial_practice.thisTrial'
p94
Nsg38
g39
sg53
g78
sg19
S'f'
sS'trials.thisRepN'
p95
I0
sS'repeat_spatial_practice.thisTrialN'
p96
I0
sg54
g72
sg32
g36
sg52
I1
sS'trials.thisN'
p97
I2
sS'repeat_spatial_practice.thisRepN'
p98
I0
sS'repeat_spatial_practice.thisIndex'
p99
g67
sS'trials.thisTrialN'
p100
I2
sg50
Vleft_schema_1_WHI.jpg
p101
sg20
F0.2341331588831963
sg30
g31
sg40
g41
sg37
g12
sS'trials.thisIndex'
p102
g33
(g66
S'\x06\x00\x00\x00'
tRp103
sa(dp104
S'repeat_spatial_practice.thisN'
p105
I0
sg51
g70
sS'repeat_spatial_practice.thisTrial'
p106
Nsg38
g39
sg53
g78
sg19
S'a'
sS'trials.thisRepN'
p107
I0
sS'repeat_spatial_practice.thisTrialN'
p108
I0
sg54
g72
sg32
g36
sg52
I2
sS'trials.thisN'
p109
I3
sS'repeat_spatial_practice.thisRepN'
p110
I0
sS'repeat_spatial_practice.thisIndex'
p111
g67
sS'trials.thisTrialN'
p112
I3
sg50
Vahead_schema_2_WHI.jpg
p113
sg20
F0.28426375098933931
sg30
g31
sg40
g41
sg37
g12
sS'trials.thisIndex'
p114
g33
(g66
S'\x00\x00\x00\x00'
tRp115
sa(dp116
S'repeat_spatial_practice.thisN'
p117
I0
sg51
Vright
p118
sS'repeat_spatial_practice.thisTrial'
p119
Nsg38
g39
sg53
g78
sg19
S'f'
sS'trials.thisRepN'
p120
I0
sS'repeat_spatial_practice.thisTrialN'
p121
I0
sg54
g72
sg32
g36
sg52
I2
sS'trials.thisN'
p122
I4
sS'repeat_spatial_practice.thisRepN'
p123
I0
sS'repeat_spatial_practice.thisIndex'
p124
g67
sS'trials.thisTrialN'
p125
I4
sg50
Vright_schema_2_WHI.jpg
p126
sg20
F0.20179192100476939
sg30
g31
sg40
g41
sg37
g12
sS'trials.thisIndex'
p127
g33
(g66
S'\x07\x00\x00\x00'
tRp128
sa(dp129
S'repeat_spatial_practice.thisN'
p130
I0
sg51
g118
sS'repeat_spatial_practice.thisTrial'
p131
Nsg38
g39
sg53
g78
sg19
S'a'
sS'trials.thisRepN'
p132
I0
sS'repeat_spatial_practice.thisTrialN'
p133
I0
sg54
g72
sg32
g36
sg52
I3
sS'trials.thisN'
p134
I5
sS'repeat_spatial_practice.thisRepN'
p135
I0
sS'repeat_spatial_practice.thisIndex'
p136
g67
sS'trials.thisTrialN'
p137
I5
sg50
Vright_schema_3_WHI.jpg
p138
sg20
F0.21819659278844483
sg30
g31
sg40
g41
sg37
g12
sS'trials.thisIndex'
p139
g33
(g66
S'\x02\x00\x00\x00'
tRp140
sa(dp141
S'repeat_spatial_practice.thisN'
p142
I0
sg51
g81
sS'repeat_spatial_practice.thisTrial'
p143
Nsg38
g39
sg53
g78
sg19
S'f'
sS'trials.thisRepN'
p144
I0
sS'repeat_spatial_practice.thisTrialN'
p145
I0
sg54
g72
sg32
g36
sg52
I3
sS'trials.thisN'
p146
I6
sS'repeat_spatial_practice.thisRepN'
p147
I0
sS'repeat_spatial_practice.thisIndex'
p148
g67
sS'trials.thisTrialN'
p149
I6
sg50
Vleft_schema_3_WHI.jpg
p150
sg20
F0.18486157861480024
sg30
g31
sg40
g41
sg37
g12
sS'trials.thisIndex'
p151
g33
(g66
S'\x05\x00\x00\x00'
tRp152
sa(dp153
S'repeat_spatial_practice.thisN'
p154
I0
sg51
g70
sS'repeat_spatial_practice.thisTrial'
p155
Nsg38
g39
sg53
g78
sg19
S'a'
sS'trials.thisRepN'
p156
I0
sS'repeat_spatial_practice.thisTrialN'
p157
I0
sg54
g72
sg32
g36
sg52
I1
sS'trials.thisN'
p158
I7
sS'repeat_spatial_practice.thisRepN'
p159
I0
sS'repeat_spatial_practice.thisIndex'
p160
g67
sS'trials.thisTrialN'
p161
I7
sg50
Vahead_schema_1_WHI.jpg
p162
sg20
F0.21767270712007303
sg30
g31
sg40
g41
sg37
g12
sS'trials.thisIndex'
p163
g33
(g66
S'\x04\x00\x00\x00'
tRp164
sa(dp165
S'repeat_spatial_practice.thisN'
p166
I0
sg51
g118
sS'repeat_spatial_practice.thisTrial'
p167
Nsg38
g39
sg53
g78
sg19
S'f'
sS'trials.thisRepN'
p168
I0
sS'repeat_spatial_practice.thisTrialN'
p169
I0
sg54
g72
sg32
g36
sg52
I1
sS'trials.thisN'
p170
I8
sS'repeat_spatial_practice.thisRepN'
p171
I0
sS'repeat_spatial_practice.thisIndex'
p172
g67
sS'trials.thisTrialN'
p173
I8
sg50
Vright_schema_1_WHI.jpg
p174
sg20
F0.23425989101815503
sg30
g31
sg40
g41
sg37
g12
sS'trials.thisIndex'
p175
g33
(g66
S'\x01\x00\x00\x00'
tRp176
sa(dp177
S'repeat_spatial_practice.thisN'
p178
I0
sg22
F0.75103650375967845
sg37
g12
sg19
S'a'
sVStimulus_Practice
p179
Vleft_word_3_WHI.jpg
p180
sg32
g36
sg21
S'd'
sS'trials_3.thisRepN'
p181
I0
sS'repeat_spatial_practice.thisIndex'
p182
g67
sg20
F0.44980581870186143
sg30
g31
sS'trials_3.thisIndex'
p183
g33
(g66
S'\x02\x00\x00\x00'
tRp184
sS'trials_3.thisTrialN'
p185
I0
sg40
g41
sVDirection
p186
Vleft
p187
sS'repeat_spatial_practice.thisTrial'
p188
Nsg38
g39
sVFormat
p189
Vword
p190
sS'repeat_spatial_practice.thisTrialN'
p191
I0
sS'trials_3.thisN'
p192
I0
sVNumber
p193
I3
sS'repeat_spatial_practice.thisRepN'
p194
I0
sVBackground
p195
V_WHI
p196
sa(dp197
S'repeat_spatial_practice.thisN'
p198
I0
sg186
Vahead
p199
sS'repeat_spatial_practice.thisTrial'
p200
Nsg38
g39
sg195
g196
sg19
S'f'
sg179
Vahead_word_2_WHI.jpg
p201
sS'repeat_spatial_practice.thisTrialN'
p202
I0
sS'trials_3.thisN'
p203
I1
sg32
g36
sg193
I2
sS'repeat_spatial_practice.thisRepN'
p204
I0
sS'repeat_spatial_practice.thisIndex'
p205
g67
sS'trials_3.thisRepN'
p206
I0
sg20
F0.18395526534004603
sg30
g31
sS'trials_3.thisIndex'
p207
g33
(g66
S'\x07\x00\x00\x00'
tRp208
sg189
g190
sS'trials_3.thisTrialN'
p209
I1
sg37
g12
sg40
g41
sa(dp210
S'repeat_spatial_practice.thisN'
p211
I0
sg186
Vright
p212
sS'repeat_spatial_practice.thisTrial'
p213
Nsg38
g39
sg195
g196
sg19
S'a'
sg179
Vright_word_1_WHI.jpg
p214
sS'repeat_spatial_practice.thisTrialN'
p215
I0
sS'trials_3.thisN'
p216
I2
sg32
g36
sg193
I1
sS'repeat_spatial_practice.thisRepN'
p217
I0
sS'repeat_spatial_practice.thisIndex'
p218
g67
sS'trials_3.thisRepN'
p219
I0
sg20
F0.16817800689022988
sg30
g31
sS'trials_3.thisIndex'
p220
g33
(g66
S'\x06\x00\x00\x00'
tRp221
sg189
g190
sS'trials_3.thisTrialN'
p222
I2
sg37
g12
sg40
g41
sa(dp223
S'repeat_spatial_practice.thisN'
p224
I0
sg186
g187
sS'repeat_spatial_practice.thisTrial'
p225
Nsg38
g39
sg195
g196
sg19
S'f'
sg179
Vleft_word_2_WHI.jpg
p226
sS'repeat_spatial_practice.thisTrialN'
p227
I0
sS'trials_3.thisN'
p228
I3
sg32
g36
sg193
I2
sS'repeat_spatial_practice.thisRepN'
p229
I0
sS'repeat_spatial_practice.thisIndex'
p230
g67
sS'trials_3.thisRepN'
p231
I0
sg20
F0.15157341962913051
sg30
g31
sS'trials_3.thisIndex'
p232
g33
(g66
S'\x05\x00\x00\x00'
tRp233
sg189
g190
sS'trials_3.thisTrialN'
p234
I3
sg37
g12
sg40
g41
sa(dp235
S'repeat_spatial_practice.thisN'
p236
I0
sg186
g199
sS'repeat_spatial_practice.thisTrial'
p237
Nsg38
g39
sg195
g196
sg19
S'a'
sg179
Vahead_word_1_WHI.jpg
p238
sS'repeat_spatial_practice.thisTrialN'
p239
I0
sS'trials_3.thisN'
p240
I4
sg32
g36
sg193
I1
sS'repeat_spatial_practice.thisRepN'
p241
I0
sS'repeat_spatial_practice.thisIndex'
p242
g67
sS'trials_3.thisRepN'
p243
I0
sg20
F0.16789375206280965
sg30
g31
sS'trials_3.thisIndex'
p244
g33
(g66
S'\x08\x00\x00\x00'
tRp245
sg189
g190
sS'trials_3.thisTrialN'
p246
I4
sg37
g12
sg40
g41
sa(dp247
S'repeat_spatial_practice.thisN'
p248
I0
sg186
g212
sS'repeat_spatial_practice.thisTrial'
p249
Nsg38
g39
sg195
g196
sg19
S'f'
sg179
Vright_word_3_WHI.jpg
p250
sS'repeat_spatial_practice.thisTrialN'
p251
I0
sS'trials_3.thisN'
p252
I5
sg32
g36
sg193
I3
sS'repeat_spatial_practice.thisRepN'
p253
I0
sS'repeat_spatial_practice.thisIndex'
p254
g67
sS'trials_3.thisRepN'
p255
I0
sg20
F0.10303813521750271
sg30
g31
sS'trials_3.thisIndex'
p256
g33
(g66
S'\x01\x00\x00\x00'
tRp257
sg189
g190
sS'trials_3.thisTrialN'
p258
I5
sg37
g12
sg40
g41
sa(dp259
S'repeat_spatial_practice.thisN'
p260
I0
sg186
g212
sS'repeat_spatial_practice.thisTrial'
p261
Nsg38
g39
sg195
g196
sg19
S'a'
sg179
Vright_word_2_WHI.jpg
p262
sS'repeat_spatial_practice.thisTrialN'
p263
I0
sS'trials_3.thisN'
p264
I6
sg32
g36
sg193
I2
sS'repeat_spatial_practice.thisRepN'
p265
I0
sS'repeat_spatial_practice.thisIndex'
p266
g67
sS'trials_3.thisRepN'
p267
I0
sg20
F0.16828555070969742
sg30
g31
sS'trials_3.thisIndex'
p268
g33
(g66
S'\x03\x00\x00\x00'
tRp269
sg189
g190
sS'trials_3.thisTrialN'
p270
I6
sg37
g12
sg40
g41
sa(dp271
S'repeat_spatial_practice.thisN'
p272
I0
sg186
g199
sS'repeat_spatial_practice.thisTrial'
p273
Nsg38
g39
sg195
g196
sg19
S'f'
sg179
Vahead_word_3_WHI.jpg
p274
sS'repeat_spatial_practice.thisTrialN'
p275
I0
sS'trials_3.thisN'
p276
I7
sg32
g36
sg193
I3
sS'repeat_spatial_practice.thisRepN'
p277
I0
sS'repeat_spatial_practice.thisIndex'
p278
g67
sS'trials_3.thisRepN'
p279
I0
sg20
F0.26790102577069774
sg30
g31
sS'trials_3.thisIndex'
p280
g33
(g66
S'\x04\x00\x00\x00'
tRp281
sg189
g190
sS'trials_3.thisTrialN'
p282
I7
sg37
g12
sg40
g41
sa(dp283
S'repeat_spatial_practice.thisN'
p284
I0
sg186
g187
sS'repeat_spatial_practice.thisTrial'
p285
Nsg38
g39
sg195
g196
sg19
S'a'
sg179
Vleft_word_1_WHI.jpg
p286
sS'repeat_spatial_practice.thisTrialN'
p287
I0
sS'trials_3.thisN'
p288
I8
sg32
g36
sg193
I1
sS'repeat_spatial_practice.thisRepN'
p289
I0
sS'repeat_spatial_practice.thisIndex'
p290
g67
sS'trials_3.thisRepN'
p291
I0
sg20
F0.30143863287230488
sg30
g31
sS'trials_3.thisIndex'
p292
g33
(g66
S'\x00\x00\x00\x00'
tRp293
sg189
g190
sS'trials_3.thisTrialN'
p294
I8
sg37
g12
sg40
g41
sa(dp295
S'repeat_spatial_practice.thisN'
p296
I0
sg22
F2.9001953192055225
sg37
g12
sg19
S'f'
sVStimulus_Practice
p297
Vahead_image_1_WHI.jpg
p298
sg32
g36
sg21
S'd'
sS'repeat_spatial_practice.thisIndex'
p299
g67
sg20
F2.9831731852755183
sg30
g31
sg40
g41
sVDirection
p300
Vahead
p301
sS'repeat_spatial_practice.thisTrial'
p302
Nsg38
g39
sVFormat
p303
Vimage
p304
sS'trials_4.thisRepN'
p305
I0
sS'trials_4.thisIndex'
p306
g33
(g66
S'\x00\x00\x00\x00'
tRp307
sVNumber
p308
I1
sS'trials_4.thisTrialN'
p309
I0
sS'repeat_spatial_practice.thisRepN'
p310
I0
sVBackground
p311
V_WHI
p312
sS'trials_4.thisN'
p313
I0
sS'repeat_spatial_practice.thisTrialN'
p314
I0
sa(dp315
S'trials_4.thisIndex'
p316
g33
(g66
S'\x04\x00\x00\x00'
tRp317
sS'repeat_spatial_practice.thisN'
p318
I0
sg300
Vright
p319
sS'repeat_spatial_practice.thisTrial'
p320
Nsg38
g39
sg19
S'a'
sS'trials_4.thisRepN'
p321
I0
sg297
Vright_image_3_WHI.jpg
p322
sS'repeat_spatial_practice.thisTrialN'
p323
I0
sg303
g304
sg32
g36
sg308
I3
sS'repeat_spatial_practice.thisRepN'
p324
I0
sS'repeat_spatial_practice.thisIndex'
p325
g67
sg311
g312
sg20
F2.9993931137141772
sg30
g31
sS'trials_4.thisN'
p326
I1
sS'trials_4.thisTrialN'
p327
I1
sg37
g12
sg40
g41
sa(dp328
S'trials_4.thisIndex'
p329
g33
(g66
S'\x03\x00\x00\x00'
tRp330
sS'repeat_spatial_practice.thisN'
p331
I0
sg300
Vleft
p332
sS'repeat_spatial_practice.thisTrial'
p333
Nsg38
g39
sg19
S'f'
sS'trials_4.thisRepN'
p334
I0
sg297
Vleft_image_1_WHI.jpg
p335
sS'repeat_spatial_practice.thisTrialN'
p336
I0
sg303
g304
sg32
g36
sg308
I1
sS'repeat_spatial_practice.thisRepN'
p337
I0
sS'repeat_spatial_practice.thisIndex'
p338
g67
sg311
g312
sg20
F3.7498325484630186
sg30
g31
sS'trials_4.thisN'
p339
I2
sS'trials_4.thisTrialN'
p340
I2
sg37
g12
sg40
g41
sa(dp341
S'trials_4.thisIndex'
p342
g33
(g66
S'\x02\x00\x00\x00'
tRp343
sS'repeat_spatial_practice.thisN'
p344
I0
sg300
g332
sS'repeat_spatial_practice.thisTrial'
p345
Nsg38
g39
sg19
S'f'
sS'trials_4.thisRepN'
p346
I0
sg297
Vleft_image_3_WHI.jpg
p347
sS'repeat_spatial_practice.thisTrialN'
p348
I0
sg303
g304
sg32
g36
sg308
I3
sS'repeat_spatial_practice.thisRepN'
p349
I0
sS'repeat_spatial_practice.thisIndex'
p350
g67
sg311
g312
sg20
F3.7162346989935031
sg30
g31
sS'trials_4.thisN'
p351
I3
sS'trials_4.thisTrialN'
p352
I3
sg37
g12
sg40
g41
sa(dp353
S'trials_4.thisIndex'
p354
g33
(g66
S'\x07\x00\x00\x00'
tRp355
sS'repeat_spatial_practice.thisN'
p356
I0
sg300
g319
sS'repeat_spatial_practice.thisTrial'
p357
Nsg38
g39
sg19
S'a'
sS'trials_4.thisRepN'
p358
I0
sg297
Vright_image_2_WHI.jpg
p359
sS'repeat_spatial_practice.thisTrialN'
p360
I0
sg303
g304
sg32
g36
sg308
I2
sS'repeat_spatial_practice.thisRepN'
p361
I0
sS'repeat_spatial_practice.thisIndex'
p362
g67
sg311
g312
sg20
F3.8992724950658157
sg30
g31
sS'trials_4.thisN'
p363
I4
sS'trials_4.thisTrialN'
p364
I4
sg37
g12
sg40
g41
sa(dp365
S'trials_4.thisIndex'
p366
g33
(g66
S'\x06\x00\x00\x00'
tRp367
sS'repeat_spatial_practice.thisN'
p368
I0
sg300
g301
sS'repeat_spatial_practice.thisTrial'
p369
Nsg38
g39
sg19
S'a'
sS'trials_4.thisRepN'
p370
I0
sg297
Vahead_image_3_WHI.jpg
p371
sS'repeat_spatial_practice.thisTrialN'
p372
I0
sg303
g304
sg32
g36
sg308
I3
sS'repeat_spatial_practice.thisRepN'
p373
I0
sS'repeat_spatial_practice.thisIndex'
p374
g67
sg311
g312
sg20
F2.8332762889913283
sg30
g31
sS'trials_4.thisN'
p375
I5
sS'trials_4.thisTrialN'
p376
I5
sg37
g12
sg40
g41
sa(dp377
S'trials_4.thisIndex'
p378
g33
(g66
S'\x05\x00\x00\x00'
tRp379
sS'repeat_spatial_practice.thisN'
p380
I0
sg300
g319
sS'repeat_spatial_practice.thisTrial'
p381
Nsg38
g39
sg19
S'f'
sS'trials_4.thisRepN'
p382
I0
sg297
Vright_image_1_WHI.jpg
p383
sS'repeat_spatial_practice.thisTrialN'
p384
I0
sg303
g304
sg32
g36
sg308
I1
sS'repeat_spatial_practice.thisRepN'
p385
I0
sS'repeat_spatial_practice.thisIndex'
p386
g67
sg311
g312
sg20
F2.1676617072953377
sg30
g31
sS'trials_4.thisN'
p387
I6
sS'trials_4.thisTrialN'
p388
I6
sg37
g12
sg40
g41
sa(dp389
S'trials_4.thisIndex'
p390
g33
(g66
S'\x08\x00\x00\x00'
tRp391
sS'repeat_spatial_practice.thisN'
p392
I0
sg300
g332
sS'repeat_spatial_practice.thisTrial'
p393
Nsg38
g39
sg19
S'a'
sS'trials_4.thisRepN'
p394
I0
sg297
Vleft_image_2_WHI.jpg
p395
sS'repeat_spatial_practice.thisTrialN'
p396
I0
sg303
g304
sg32
g36
sg308
I2
sS'repeat_spatial_practice.thisRepN'
p397
I0
sS'repeat_spatial_practice.thisIndex'
p398
g67
sg311
g312
sg20
F4.0825829437380889
sg30
g31
sS'trials_4.thisN'
p399
I7
sS'trials_4.thisTrialN'
p400
I7
sg37
g12
sg40
g41
sa(dp401
S'trials_4.thisIndex'
p402
g33
(g66
S'\x01\x00\x00\x00'
tRp403
sS'repeat_spatial_practice.thisN'
p404
I0
sg300
g301
sS'repeat_spatial_practice.thisTrial'
p405
Nsg38
g39
sg19
S'a'
sS'trials_4.thisRepN'
p406
I0
sg297
Vahead_image_2_WHI.jpg
p407
sS'repeat_spatial_practice.thisTrialN'
p408
I0
sg303
g304
sg32
g36
sg308
I2
sS'repeat_spatial_practice.thisRepN'
p409
I0
sS'repeat_spatial_practice.thisIndex'
p410
g67
sg311
g312
sg20
F2.6333068118110532
sg30
g31
sS'trials_4.thisN'
p411
I8
sS'trials_4.thisTrialN'
p412
I8
sg37
g12
sg40
g41
sa(dp413
S'repeat_spatial_practice.thisN'
p414
I1
sg37
g12
sg19
S'f'
sVStimulus_Practice
p415
Vleft_word_3_WHI.jpg
p416
sg17
S'd'
sg32
g36
sS'repeat_spatial_practice.thisIndex'
p417
g33
(g66
S'\x00\x00\x00\x00'
tRp418
sg20
F3.7663920655031689
sg30
g31
sg40
g41
sS'trials.thisIndex'
p419
g33
(g66
S'\x02\x00\x00\x00'
tRp420
sVDirection
p421
Vleft
p422
sS'repeat_spatial_practice.thisTrial'
p423
Nsg38
g39
sVFormat
p424
Vword
p425
sS'trials.thisRepN'
p426
I0
sS'repeat_spatial_practice.thisTrialN'
p427
I0
sVNumber
p428
I3
sS'trials.thisN'
p429
I0
sS'repeat_spatial_practice.thisRepN'
p430
I1
sS'trials.thisTrialN'
p431
I0
sVBackground
p432
V_WHI
p433
sg18
F8.6798451726062922
sa(dp434
S'repeat_spatial_practice.thisN'
p435
I1
sg421
Vright
p436
sS'repeat_spatial_practice.thisTrial'
p437
Nsg38
g39
sg432
g433
sg19
S'a'
sS'trials.thisRepN'
p438
I0
sS'repeat_spatial_practice.thisTrialN'
p439
I0
sg424
g425
sg32
g36
sg428
I1
sS'trials.thisN'
p440
I1
sS'repeat_spatial_practice.thisRepN'
p441
I1
sS'repeat_spatial_practice.thisIndex'
p442
g418
sS'trials.thisTrialN'
p443
I1
sg415
Vright_word_1_WHI.jpg
p444
sg20
F2.2834935408900492
sg30
g31
sg40
g41
sg37
g12
sS'trials.thisIndex'
p445
g33
(g66
S'\x06\x00\x00\x00'
tRp446
sa(dp447
S'repeat_spatial_practice.thisN'
p448
I1
sg421
g436
sS'repeat_spatial_practice.thisTrial'
p449
Nsg38
g39
sg432
g433
sg19
S'f'
sS'trials.thisRepN'
p450
I0
sS'repeat_spatial_practice.thisTrialN'
p451
I0
sg424
g425
sg32
g36
sg428
I2
sS'trials.thisN'
p452
I2
sS'repeat_spatial_practice.thisRepN'
p453
I1
sS'repeat_spatial_practice.thisIndex'
p454
g418
sS'trials.thisTrialN'
p455
I2
sg415
Vright_word_2_WHI.jpg
p456
sg20
F1.6009655739180744
sg30
g31
sg40
g41
sg37
g12
sS'trials.thisIndex'
p457
g33
(g66
S'\x03\x00\x00\x00'
tRp458
sa(dp459
S'repeat_spatial_practice.thisN'
p460
I1
sg421
Vahead
p461
sS'repeat_spatial_practice.thisTrial'
p462
Nsg38
g39
sg432
g433
sg19
S'a'
sS'trials.thisRepN'
p463
I0
sS'repeat_spatial_practice.thisTrialN'
p464
I0
sg424
g425
sg32
g36
sg428
I1
sS'trials.thisN'
p465
I3
sS'repeat_spatial_practice.thisRepN'
p466
I1
sS'repeat_spatial_practice.thisIndex'
p467
g418
sS'trials.thisTrialN'
p468
I3
sg415
Vahead_word_1_WHI.jpg
p469
sg20
F2.3171632349985885
sg30
g31
sg40
g41
sg37
g12
sS'trials.thisIndex'
p470
g33
(g66
S'\x08\x00\x00\x00'
tRp471
sa(dp472
S'repeat_spatial_practice.thisN'
p473
I1
sg421
g422
sS'repeat_spatial_practice.thisTrial'
p474
Nsg38
g39
sg432
g433
sg19
S'a'
sS'trials.thisRepN'
p475
I0
sS'repeat_spatial_practice.thisTrialN'
p476
I0
sg424
g425
sg32
g36
sg428
I1
sS'trials.thisN'
p477
I4
sS'repeat_spatial_practice.thisRepN'
p478
I1
sS'repeat_spatial_practice.thisIndex'
p479
g418
sS'trials.thisTrialN'
p480
I4
sg415
Vleft_word_1_WHI.jpg
p481
sg20
F1.7009188525989885
sg30
g31
sg40
g41
sg37
g12
sS'trials.thisIndex'
p482
g33
(g66
S'\x00\x00\x00\x00'
tRp483
sa(dp484
S'repeat_spatial_practice.thisN'
p485
I1
sg421
g422
sS'repeat_spatial_practice.thisTrial'
p486
Nsg38
g39
sg432
g433
sg19
S'f'
sS'trials.thisRepN'
p487
I0
sS'repeat_spatial_practice.thisTrialN'
p488
I0
sg424
g425
sg32
g36
sg428
I2
sS'trials.thisN'
p489
I5
sS'repeat_spatial_practice.thisRepN'
p490
I1
sS'repeat_spatial_practice.thisIndex'
p491
g418
sS'trials.thisTrialN'
p492
I5
sg415
Vleft_word_2_WHI.jpg
p493
sg20
F1.4007256753538968
sg30
g31
sg40
g41
sg37
g12
sS'trials.thisIndex'
p494
g33
(g66
S'\x05\x00\x00\x00'
tRp495
sa(dp496
S'repeat_spatial_practice.thisN'
p497
I1
sg421
g436
sS'repeat_spatial_practice.thisTrial'
p498
Nsg38
g39
sg432
g433
sg19
S'a'
sS'trials.thisRepN'
p499
I0
sS'repeat_spatial_practice.thisTrialN'
p500
I0
sg424
g425
sg32
g36
sg428
I3
sS'trials.thisN'
p501
I6
sS'repeat_spatial_practice.thisRepN'
p502
I1
sS'repeat_spatial_practice.thisIndex'
p503
g418
sS'trials.thisTrialN'
p504
I6
sg415
Vright_word_3_WHI.jpg
p505
sg20
F1.2173549842991633
sg30
g31
sg40
g41
sg37
g12
sS'trials.thisIndex'
p506
g33
(g66
S'\x01\x00\x00\x00'
tRp507
sa(dp508
S'repeat_spatial_practice.thisN'
p509
I1
sg421
g461
sS'repeat_spatial_practice.thisTrial'
p510
Nsg38
g39
sg432
g433
sg19
S'a'
sS'trials.thisRepN'
p511
I0
sS'repeat_spatial_practice.thisTrialN'
p512
I0
sg424
g425
sg32
g36
sg428
I3
sS'trials.thisN'
p513
I7
sS'repeat_spatial_practice.thisRepN'
p514
I1
sS'repeat_spatial_practice.thisIndex'
p515
g418
sS'trials.thisTrialN'
p516
I7
sg415
Vahead_word_3_WHI.jpg
p517
sg20
F1.6670822647720343
sg30
g31
sg40
g41
sg37
g12
sS'trials.thisIndex'
p518
g33
(g66
S'\x04\x00\x00\x00'
tRp519
sa(dp520
S'repeat_spatial_practice.thisN'
p521
I1
sg421
g461
sS'repeat_spatial_practice.thisTrial'
p522
Nsg38
g39
sg432
g433
sg19
S'f'
sS'trials.thisRepN'
p523
I0
sS'repeat_spatial_practice.thisTrialN'
p524
I0
sg424
g425
sg32
g36
sg428
I2
sS'trials.thisN'
p525
I8
sS'repeat_spatial_practice.thisRepN'
p526
I1
sS'repeat_spatial_practice.thisIndex'
p527
g418
sS'trials.thisTrialN'
p528
I8
sg415
Vahead_word_2_WHI.jpg
p529
sg20
F1.1341147291677771
sg30
g31
sg40
g41
sg37
g12
sS'trials.thisIndex'
p530
g33
(g66
S'\x07\x00\x00\x00'
tRp531
sa(dp532
S'repeat_spatial_practice.thisN'
p533
I1
sg22
F3.3495147364155855
sg37
g12
sg19
S'f'
sVStimulus_Practice
p534
Vleft_image_2_WHI.jpg
p535
sg32
g36
sg21
S'd'
sS'trials_3.thisRepN'
p536
I0
sS'repeat_spatial_practice.thisIndex'
p537
g418
sg20
F4.1829146338568535
sg30
g31
sS'trials_3.thisIndex'
p538
g33
(g66
S'\x08\x00\x00\x00'
tRp539
sS'trials_3.thisTrialN'
p540
I0
sg40
g41
sVDirection
p541
Vleft
p542
sS'repeat_spatial_practice.thisTrial'
p543
Nsg38
g39
sVFormat
p544
Vimage
p545
sS'repeat_spatial_practice.thisTrialN'
p546
I0
sS'trials_3.thisN'
p547
I0
sVNumber
p548
I2
sS'repeat_spatial_practice.thisRepN'
p549
I1
sVBackground
p550
V_WHI
p551
sa(dp552
S'repeat_spatial_practice.thisN'
p553
I1
sg541
Vright
p554
sS'repeat_spatial_practice.thisTrial'
p555
Nsg38
g39
sg550
g551
sg19
S'a'
sg534
Vright_image_1_WHI.jpg
p556
sS'repeat_spatial_practice.thisTrialN'
p557
I0
sS'trials_3.thisN'
p558
I1
sg32
g36
sg548
I1
sS'repeat_spatial_practice.thisRepN'
p559
I1
sS'repeat_spatial_practice.thisIndex'
p560
g418
sS'trials_3.thisRepN'
p561
I0
sg20
F4.7821599529124796
sg30
g31
sS'trials_3.thisIndex'
p562
g33
(g66
S'\x05\x00\x00\x00'
tRp563
sg544
g545
sS'trials_3.thisTrialN'
p564
I1
sg37
g12
sg40
g41
sa(dp565
S'repeat_spatial_practice.thisN'
p566
I1
sg541
g554
sS'repeat_spatial_practice.thisTrial'
p567
Nsg38
g39
sg550
g551
sg19
S'f'
sg534
Vright_image_2_WHI.jpg
p568
sS'repeat_spatial_practice.thisTrialN'
p569
I0
sS'trials_3.thisN'
p570
I2
sg32
g36
sg548
I2
sS'repeat_spatial_practice.thisRepN'
p571
I1
sS'repeat_spatial_practice.thisIndex'
p572
g418
sS'trials_3.thisRepN'
p573
I0
sg20
F1.9997795574745396
sg30
g31
sS'trials_3.thisIndex'
p574
g33
(g66
S'\x07\x00\x00\x00'
tRp575
sg544
g545
sS'trials_3.thisTrialN'
p576
I2
sg37
g12
sg40
g41
sa(dp577
S'repeat_spatial_practice.thisN'
p578
I1
sg541
g542
sS'repeat_spatial_practice.thisTrial'
p579
Nsg38
g39
sg550
g551
sg19
S'f'
sg534
Vleft_image_1_WHI.jpg
p580
sS'repeat_spatial_practice.thisTrialN'
p581
I0
sS'trials_3.thisN'
p582
I3
sg32
g36
sg548
I1
sS'repeat_spatial_practice.thisRepN'
p583
I1
sS'repeat_spatial_practice.thisIndex'
p584
g418
sS'trials_3.thisRepN'
p585
I0
sg20
F5.6652946276735747
sg30
g31
sS'trials_3.thisIndex'
p586
g33
(g66
S'\x03\x00\x00\x00'
tRp587
sg544
g545
sS'trials_3.thisTrialN'
p588
I3
sg37
g12
sg40
g41
sa(dp589
S'repeat_spatial_practice.thisN'
p590
I1
sg541
g542
sS'repeat_spatial_practice.thisTrial'
p591
Nsg38
g39
sg550
g551
sg19
S'a'
sg534
Vleft_image_3_WHI.jpg
p592
sS'repeat_spatial_practice.thisTrialN'
p593
I0
sS'trials_3.thisN'
p594
I4
sg32
g36
sg548
I3
sS'repeat_spatial_practice.thisRepN'
p595
I1
sS'repeat_spatial_practice.thisIndex'
p596
g418
sS'trials_3.thisRepN'
p597
I0
sg20
F2.0501502266706666
sg30
g31
sS'trials_3.thisIndex'
p598
g33
(g66
S'\x02\x00\x00\x00'
tRp599
sg544
g545
sS'trials_3.thisTrialN'
p600
I4
sg37
g12
sg40
g41
sa(dp601
S'repeat_spatial_practice.thisN'
p602
I1
sg541
g554
sS'repeat_spatial_practice.thisTrial'
p603
Nsg38
g39
sg550
g551
sg19
S'f'
sg534
Vright_image_3_WHI.jpg
p604
sS'repeat_spatial_practice.thisTrialN'
p605
I0
sS'trials_3.thisN'
p606
I5
sg32
g36
sg548
I3
sS'repeat_spatial_practice.thisRepN'
p607
I1
sS'repeat_spatial_practice.thisIndex'
p608
g418
sS'trials_3.thisRepN'
p609
I0
sg20
F2.7670377746544546
sg30
g31
sS'trials_3.thisIndex'
p610
g33
(g66
S'\x04\x00\x00\x00'
tRp611
sg544
g545
sS'trials_3.thisTrialN'
p612
I5
sg37
g12
sg40
g41
sa(dp613
S'repeat_spatial_practice.thisN'
p614
I1
sg541
Vahead
p615
sS'repeat_spatial_practice.thisTrial'
p616
Nsg38
g39
sg550
g551
sg19
S'a'
sg534
Vahead_image_3_WHI.jpg
p617
sS'repeat_spatial_practice.thisTrialN'
p618
I0
sS'trials_3.thisN'
p619
I6
sg32
g36
sg548
I3
sS'repeat_spatial_practice.thisRepN'
p620
I1
sS'repeat_spatial_practice.thisIndex'
p621
g418
sS'trials_3.thisRepN'
p622
I0
sg20
F2.0337080707395216
sg30
g31
sS'trials_3.thisIndex'
p623
g33
(g66
S'\x06\x00\x00\x00'
tRp624
sg544
g545
sS'trials_3.thisTrialN'
p625
I6
sg37
g12
sg40
g41
sa(dp626
S'repeat_spatial_practice.thisN'
p627
I1
sg541
g615
sS'repeat_spatial_practice.thisTrial'
p628
Nsg38
g39
sg550
g551
sg19
S'f'
sg534
Vahead_image_1_WHI.jpg
p629
sS'repeat_spatial_practice.thisTrialN'
p630
I0
sS'trials_3.thisN'
p631
I7
sg32
g36
sg548
I1
sS'repeat_spatial_practice.thisRepN'
p632
I1
sS'repeat_spatial_practice.thisIndex'
p633
g418
sS'trials_3.thisRepN'
p634
I0
sg20
F1.6504343922424596
sg30
g31
sS'trials_3.thisIndex'
p635
g33
(g66
S'\x00\x00\x00\x00'
tRp636
sg544
g545
sS'trials_3.thisTrialN'
p637
I7
sg37
g12
sg40
g41
sa(dp638
S'repeat_spatial_practice.thisN'
p639
I1
sg541
g615
sS'repeat_spatial_practice.thisTrial'
p640
Nsg38
g39
sg550
g551
sg19
S'f'
sg534
Vahead_image_2_WHI.jpg
p641
sS'repeat_spatial_practice.thisTrialN'
p642
I0
sS'trials_3.thisN'
p643
I8
sg32
g36
sg548
I2
sS'repeat_spatial_practice.thisRepN'
p644
I1
sS'repeat_spatial_practice.thisIndex'
p645
g418
sS'trials_3.thisRepN'
p646
I0
sg20
F3.865847340435721
sg30
g31
sS'trials_3.thisIndex'
p647
g33
(g66
S'\x01\x00\x00\x00'
tRp648
sg544
g545
sS'trials_3.thisTrialN'
p649
I8
sg37
g12
sg40
g41
sa(dp650
S'repeat_spatial_practice.thisN'
p651
I1
sg22
F2.4830484612029977
sg37
g12
sg19
S'f'
sVStimulus_Practice
p652
Vahead_schema_3_WHI.jpg
p653
sg32
g36
sg21
S'd'
sS'repeat_spatial_practice.thisIndex'
p654
g418
sg20
F3.3665646710869623
sg30
g31
sg40
g41
sVDirection
p655
Vahead
p656
sS'repeat_spatial_practice.thisTrial'
p657
Nsg38
g39
sVFormat
p658
Vschema
p659
sS'trials_4.thisRepN'
p660
I0
sS'trials_4.thisIndex'
p661
g33
(g66
S'\x03\x00\x00\x00'
tRp662
sVNumber
p663
I3
sS'trials_4.thisTrialN'
p664
I0
sS'repeat_spatial_practice.thisRepN'
p665
I1
sVBackground
p666
V_WHI
p667
sS'trials_4.thisN'
p668
I0
sS'repeat_spatial_practice.thisTrialN'
p669
I0
sa(dp670
S'trials_4.thisIndex'
p671
g33
(g66
S'\x04\x00\x00\x00'
tRp672
sS'repeat_spatial_practice.thisN'
p673
I1
sg655
g656
sS'repeat_spatial_practice.thisTrial'
p674
Nsg38
g39
sg19
S'f'
sS'trials_4.thisRepN'
p675
I0
sg652
Vahead_schema_1_WHI.jpg
p676
sS'repeat_spatial_practice.thisTrialN'
p677
I0
sg658
g659
sg32
g36
sg663
I1
sS'repeat_spatial_practice.thisRepN'
p678
I1
sS'repeat_spatial_practice.thisIndex'
p679
g418
sg666
g667
sg20
F1.2176553037716076
sg30
g31
sS'trials_4.thisN'
p680
I1
sS'trials_4.thisTrialN'
p681
I1
sg37
g12
sg40
g41
sa(dp682
S'trials_4.thisIndex'
p683
g33
(g66
S'\x01\x00\x00\x00'
tRp684
sS'repeat_spatial_practice.thisN'
p685
I1
sg655
Vright
p686
sS'repeat_spatial_practice.thisTrial'
p687
Nsg38
g39
sg19
S'a'
sS'trials_4.thisRepN'
p688
I0
sg652
Vright_schema_1_WHI.jpg
p689
sS'repeat_spatial_practice.thisTrialN'
p690
I0
sg658
g659
sg32
g36
sg663
I1
sS'repeat_spatial_practice.thisRepN'
p691
I1
sS'repeat_spatial_practice.thisIndex'
p692
g418
sg666
g667
sg20
F1.1679580106138019
sg30
g31
sS'trials_4.thisN'
p693
I2
sS'trials_4.thisTrialN'
p694
I2
sg37
g12
sg40
g41
sa(dp695
S'trials_4.thisIndex'
p696
g33
(g66
S'\x05\x00\x00\x00'
tRp697
sS'repeat_spatial_practice.thisN'
p698
I1
sg655
Vleft
p699
sS'repeat_spatial_practice.thisTrial'
p700
Nsg38
g39
sg19
S'a'
sS'trials_4.thisRepN'
p701
I0
sg652
Vleft_schema_3_WHI.jpg
p702
sS'repeat_spatial_practice.thisTrialN'
p703
I0
sg658
g659
sg32
g36
sg663
I3
sS'repeat_spatial_practice.thisRepN'
p704
I1
sS'repeat_spatial_practice.thisIndex'
p705
g418
sg666
g667
sg20
F1.3168941523326794
sg30
g31
sS'trials_4.thisN'
p706
I3
sS'trials_4.thisTrialN'
p707
I3
sg37
g12
sg40
g41
sa(dp708
S'trials_4.thisIndex'
p709
g33
(g66
S'\x07\x00\x00\x00'
tRp710
sS'repeat_spatial_practice.thisN'
p711
I1
sg655
g686
sS'repeat_spatial_practice.thisTrial'
p712
Nsg38
g39
sg19
S'a'
sS'trials_4.thisRepN'
p713
I0
sg652
Vright_schema_2_WHI.jpg
p714
sS'repeat_spatial_practice.thisTrialN'
p715
I0
sg658
g659
sg32
g36
sg663
I2
sS'repeat_spatial_practice.thisRepN'
p716
I1
sS'repeat_spatial_practice.thisIndex'
p717
g418
sg666
g667
sg20
F5.0487128879030934
sg30
g31
sS'trials_4.thisN'
p718
I4
sS'trials_4.thisTrialN'
p719
I4
sg37
g12
sg40
g41
sa(dp720
S'trials_4.thisIndex'
p721
g33
(g66
S'\x02\x00\x00\x00'
tRp722
sS'repeat_spatial_practice.thisN'
p723
I1
sg655
g686
sS'repeat_spatial_practice.thisTrial'
p724
Nsg38
g39
sg19
S'f'
sS'trials_4.thisRepN'
p725
I0
sg652
Vright_schema_3_WHI.jpg
p726
sS'repeat_spatial_practice.thisTrialN'
p727
I0
sg658
g659
sg32
g36
sg663
I3
sS'repeat_spatial_practice.thisRepN'
p728
I1
sS'repeat_spatial_practice.thisIndex'
p729
g418
sg666
g667
sg20
F2.1498821703426074
sg30
g31
sS'trials_4.thisN'
p730
I5
sS'trials_4.thisTrialN'
p731
I5
sg37
g12
sg40
g41
sa(dp732
S'trials_4.thisIndex'
p733
g33
(g66
S'\x00\x00\x00\x00'
tRp734
sS'repeat_spatial_practice.thisN'
p735
I1
sg655
g656
sS'repeat_spatial_practice.thisTrial'
p736
Nsg38
g39
sg19
S'a'
sS'trials_4.thisRepN'
p737
I0
sg652
Vahead_schema_2_WHI.jpg
p738
sS'repeat_spatial_practice.thisTrialN'
p739
I0
sg658
g659
sg32
g36
sg663
I2
sS'repeat_spatial_practice.thisRepN'
p740
I1
sS'repeat_spatial_practice.thisIndex'
p741
g418
sg666
g667
sg20
F1.2841695943643572
sg30
g31
sS'trials_4.thisN'
p742
I6
sS'trials_4.thisTrialN'
p743
I6
sg37
g12
sg40
g41
sa(dp744
S'trials_4.thisIndex'
p745
g33
(g66
S'\x06\x00\x00\x00'
tRp746
sS'repeat_spatial_practice.thisN'
p747
I1
sg655
g699
sS'repeat_spatial_practice.thisTrial'
p748
Nsg38
g39
sg19
S'a'
sS'trials_4.thisRepN'
p749
I0
sg652
Vleft_schema_1_WHI.jpg
p750
sS'repeat_spatial_practice.thisTrialN'
p751
I0
sg658
g659
sg32
g36
sg663
I1
sS'repeat_spatial_practice.thisRepN'
p752
I1
sS'repeat_spatial_practice.thisIndex'
p753
g418
sg666
g667
sg20
F1.7836486092710402
sg30
g31
sS'trials_4.thisN'
p754
I7
sS'trials_4.thisTrialN'
p755
I7
sg37
g12
sg40
g41
sa(dp756
S'trials_4.thisIndex'
p757
g33
(g66
S'\x08\x00\x00\x00'
tRp758
sS'repeat_spatial_practice.thisN'
p759
I1
sg655
g699
sS'repeat_spatial_practice.thisTrial'
p760
Nsg38
g39
sg19
S'f'
sS'trials_4.thisRepN'
p761
I0
sg652
Vleft_schema_2_WHI.jpg
p762
sS'repeat_spatial_practice.thisTrialN'
p763
I0
sg658
g659
sg32
g36
sg663
I2
sS'repeat_spatial_practice.thisRepN'
p764
I1
sS'repeat_spatial_practice.thisIndex'
p765
g418
sg666
g667
sg20
F1.5009725798881846
sg30
g31
sS'trials_4.thisN'
p766
I8
sS'trials_4.thisTrialN'
p767
I8
sg37
g12
sg40
g41
sa(dp768
g37
g12
sg38
g39
sg23
S'd'
sg30
g31
sg32
g36
sg24
F25.137756939366227
sg40
g41
sa(dp769
g56
Vleft
p770
sg38
g39
sS'trials_2.thisRepN'
p771
I0
sS'trials_2.thisTrialN'
p772
I0
sg55
Vleft_schema_20_WHI.jpg
p773
sg58
Vschema
p774
sg32
g36
sg57
g33
(g34
(S'i8'
I0
I1
tRp775
(I3
S'<'
NNNI-1
I-1
I0
tbS'\x14\x00\x00\x00\x00\x00\x00\x00'
tRp776
sg26
F3.6329828416346572
sg37
g12
sS'trials_2.thisIndex'
p777
g33
(g66
S'\x00\x00\x00\x00'
tRp778
sg30
g31
sg25
S'f'
sS'trials_2.thisN'
p779
I0
sg40
g41
sa(dp780
g56
g770
sg38
g39
sS'trials_2.thisRepN'
p781
I0
sS'trials_2.thisTrialN'
p782
I1
sg55
Vleft_schema_18_WHI.jpg
p783
sg58
g774
sg32
g36
sg57
g33
(g775
S'\x12\x00\x00\x00\x00\x00\x00\x00'
tRp784
sg26
F1.8341995593800675
sg37
g12
sS'trials_2.thisIndex'
p785
g33
(g66
S'\x01\x00\x00\x00'
tRp786
sg30
g31
sg25
S'f'
sS'trials_2.thisN'
p787
I1
sg40
g41
sa(dp788
g56
Vright
p789
sg38
g39
sS'trials_2.thisRepN'
p790
I0
sS'trials_2.thisTrialN'
p791
I2
sg55
Vright_schema_1_WHI.jpg
p792
sg58
g774
sg32
g36
sg57
g33
(g775
S'\x01\x00\x00\x00\x00\x00\x00\x00'
tRp793
sg26
F1.4339834900165442
sg37
g12
sS'trials_2.thisIndex'
p794
g33
(g66
S'\x02\x00\x00\x00'
tRp795
sg30
g31
sg25
S'a'
sS'trials_2.thisN'
p796
I2
sg40
g41
sa(dp797
g56
Vahead
p798
sg38
g39
sS'trials_2.thisRepN'
p799
I0
sS'trials_2.thisTrialN'
p800
I3
sg55
Vahead_schema_7_WHI.jpg
p801
sg58
g774
sg32
g36
sg57
g33
(g775
S'\x07\x00\x00\x00\x00\x00\x00\x00'
tRp802
sg26
F1.8005990324600134
sg37
g12
sS'trials_2.thisIndex'
p803
g33
(g66
S'\x03\x00\x00\x00'
tRp804
sg30
g31
sg25
S'a'
sS'trials_2.thisN'
p805
I3
sg40
g41
sa(dp806
g56
g789
sg38
g39
sS'trials_2.thisRepN'
p807
I0
sS'trials_2.thisTrialN'
p808
I4
sg55
Vright_schema_9_WHI.jpg
p809
sg58
g774
sg32
g36
sg57
g33
(g775
S'\t\x00\x00\x00\x00\x00\x00\x00'
tRp810
sg26
F1.8171652430901304
sg37
g12
sS'trials_2.thisIndex'
p811
g33
(g66
S'\x04\x00\x00\x00'
tRp812
sg30
g31
sg25
S'a'
sS'trials_2.thisN'
p813
I4
sg40
g41
sa(dp814
g56
g798
sg38
g39
sS'trials_2.thisRepN'
p815
I0
sS'trials_2.thisTrialN'
p816
I5
sg55
Vahead_schema_5_WHI.jpg
p817
sg58
g774
sg32
g36
sg57
g33
(g775
S'\x05\x00\x00\x00\x00\x00\x00\x00'
tRp818
sg26
F1.6838390198390698
sg37
g12
sS'trials_2.thisIndex'
p819
g33
(g66
S'\x05\x00\x00\x00'
tRp820
sg30
g31
sg25
S'a'
sS'trials_2.thisN'
p821
I5
sg40
g41
sa(dp822
g56
g798
sg38
g39
sS'trials_2.thisRepN'
p823
I0
sS'trials_2.thisTrialN'
p824
I6
sg55
Vahead_schema_6_WHI.jpg
p825
sg58
g774
sg32
g36
sg57
g33
(g775
S'\x06\x00\x00\x00\x00\x00\x00\x00'
tRp826
sg26
F1.9511202183784917
sg37
g12
sS'trials_2.thisIndex'
p827
g33
(g66
S'\x06\x00\x00\x00'
tRp828
sg30
g31
sg25
S'f'
sS'trials_2.thisN'
p829
I6
sg40
g41
sa(dp830
g56
g770
sg38
g39
sS'trials_2.thisRepN'
p831
I0
sS'trials_2.thisTrialN'
p832
I7
sg55
Vleft_schema_3_WHI.jpg
p833
sg58
g774
sg32
g36
sg57
g33
(g775
S'\x03\x00\x00\x00\x00\x00\x00\x00'
tRp834
sg26
F1.4173458809964359
sg37
g12
sS'trials_2.thisIndex'
p835
g33
(g66
S'\x07\x00\x00\x00'
tRp836
sg30
g31
sg25
S'a'
sS'trials_2.thisN'
p837
I7
sg40
g41
sa(dp838
g56
g789
sg38
g39
sS'trials_2.thisRepN'
p839
I0
sS'trials_2.thisTrialN'
p840
I8
sg55
Vright_schema_7_WHI.jpg
p841
sg58
g774
sg32
g36
sg57
g33
(g775
S'\x07\x00\x00\x00\x00\x00\x00\x00'
tRp842
sg26
F1.417340972358943
sg37
g12
sS'trials_2.thisIndex'
p843
g33
(g66
S'\x08\x00\x00\x00'
tRp844
sg30
g31
sg25
S'a'
sS'trials_2.thisN'
p845
I8
sg40
g41
sa(dp846
g56
g770
sg38
g39
sS'trials_2.thisRepN'
p847
I0
sS'trials_2.thisTrialN'
p848
I9
sg55
Vleft_schema_4_WHI.jpg
p849
sg58
g774
sg32
g36
sg57
g33
(g775
S'\x04\x00\x00\x00\x00\x00\x00\x00'
tRp850
sg26
F2.7499940873240121
sg37
g12
sS'trials_2.thisIndex'
p851
g33
(g66
S'\t\x00\x00\x00'
tRp852
sg30
g31
sg25
S'a'
sS'trials_2.thisN'
p853
I9
sg40
g41
sa(dp854
g56
g789
sg38
g39
sS'trials_2.thisRepN'
p855
I0
sS'trials_2.thisTrialN'
p856
I10
sg55
Vright_schema_19_WHI.jpg
p857
sg58
g774
sg32
g36
sg57
g33
(g775
S'\x13\x00\x00\x00\x00\x00\x00\x00'
tRp858
sg26
F3.6495164767402457
sg37
g12
sS'trials_2.thisIndex'
p859
g33
(g66
S'\n\x00\x00\x00'
tRp860
sg30
g31
sg25
S'f'
sS'trials_2.thisN'
p861
I10
sg40
g41
sa(dp862
g56
g789
sg38
g39
sS'trials_2.thisRepN'
p863
I0
sS'trials_2.thisTrialN'
p864
I11
sg55
Vright_schema_17_WHI.jpg
p865
sg58
g774
sg32
g36
sg57
g33
(g775
S'\x11\x00\x00\x00\x00\x00\x00\x00'
tRp866
sg26
F1.4169857653905638
sg37
g12
sS'trials_2.thisIndex'
p867
g33
(g66
S'\x0b\x00\x00\x00'
tRp868
sg30
g31
sg25
S'f'
sS'trials_2.thisN'
p869
I11
sg40
g41
sa(dp870
g56
g798
sg38
g39
sS'trials_2.thisRepN'
p871
I0
sS'trials_2.thisTrialN'
p872
I12
sg55
Vahead_schema_10_WHI.jpg
p873
sg58
g774
sg32
g36
sg57
g33
(g775
S'\n\x00\x00\x00\x00\x00\x00\x00'
tRp874
sg26
F1.7838235353119671
sg37
g12
sS'trials_2.thisIndex'
p875
g33
(g66
S'\x0c\x00\x00\x00'
tRp876
sg30
g31
sg25
S'a'
sS'trials_2.thisN'
p877
I12
sg40
g41
sa(dp878
g56
g789
sg38
g39
sS'trials_2.thisRepN'
p879
I0
sS'trials_2.thisTrialN'
p880
I13
sg55
Vright_schema_6_WHI.jpg
p881
sg58
g774
sg32
g36
sg57
g33
(g775
S'\x06\x00\x00\x00\x00\x00\x00\x00'
tRp882
sg26
F1.6172265564528061
sg37
g12
sS'trials_2.thisIndex'
p883
g33
(g66
S'\r\x00\x00\x00'
tRp884
sg30
g31
sg25
S'a'
sS'trials_2.thisN'
p885
I13
sg40
g41
sa(dp886
g56
g770
sg38
g39
sS'trials_2.thisRepN'
p887
I0
sS'trials_2.thisTrialN'
p888
I14
sg55
Vleft_schema_12_WHI.jpg
p889
sg58
g774
sg32
g36
sg57
g33
(g775
S'\x0c\x00\x00\x00\x00\x00\x00\x00'
tRp890
sg26
F1.733900891020312
sg37
g12
sS'trials_2.thisIndex'
p891
g33
(g66
S'\x0e\x00\x00\x00'
tRp892
sg30
g31
sg25
S'a'
sS'trials_2.thisN'
p893
I14
sg40
g41
sa(dp894
g56
g798
sg38
g39
sS'trials_2.thisRepN'
p895
I0
sS'trials_2.thisTrialN'
p896
I15
sg55
Vahead_schema_4_WHI.jpg
p897
sg58
g774
sg32
g36
sg57
g33
(g775
S'\x04\x00\x00\x00\x00\x00\x00\x00'
tRp898
sg26
F1.7838993961049709
sg37
g12
sS'trials_2.thisIndex'
p899
g33
(g66
S'\x0f\x00\x00\x00'
tRp900
sg30
g31
sg25
S'a'
sS'trials_2.thisN'
p901
I15
sg40
g41
sa(dp902
g56
g770
sg38
g39
sS'trials_2.thisRepN'
p903
I0
sS'trials_2.thisTrialN'
p904
I16
sg55
Vleft_schema_11_WHI.jpg
p905
sg58
g774
sg32
g36
sg57
g33
(g775
S'\x0b\x00\x00\x00\x00\x00\x00\x00'
tRp906
sg26
F1.6506735768489307
sg37
g12
sS'trials_2.thisIndex'
p907
g33
(g66
S'\x10\x00\x00\x00'
tRp908
sg30
g31
sg25
S'a'
sS'trials_2.thisN'
p909
I16
sg40
g41
sa(dp910
g56
g798
sg38
g39
sS'trials_2.thisRepN'
p911
I0
sS'trials_2.thisTrialN'
p912
I17
sg55
Vahead_schema_13_WHI.jpg
p913
sg58
g774
sg32
g36
sg57
g33
(g775
S'\r\x00\x00\x00\x00\x00\x00\x00'
tRp914
sg26
F2.1007087628531735
sg37
g12
sS'trials_2.thisIndex'
p915
g33
(g66
S'\x11\x00\x00\x00'
tRp916
sg30
g31
sg25
S'a'
sS'trials_2.thisN'
p917
I17
sg40
g41
sa(dp918
g56
g798
sg38
g39
sS'trials_2.thisRepN'
p919
I0
sS'trials_2.thisTrialN'
p920
I18
sg55
Vahead_schema_12_WHI.jpg
p921
sg58
g774
sg32
g36
sg57
g33
(g775
S'\x0c\x00\x00\x00\x00\x00\x00\x00'
tRp922
sg26
F1.6839746767655015
sg37
g12
sS'trials_2.thisIndex'
p923
g33
(g66
S'\x12\x00\x00\x00'
tRp924
sg30
g31
sg25
S'f'
sS'trials_2.thisN'
p925
I18
sg40
g41
sa(dp926
g56
g770
sg38
g39
sS'trials_2.thisRepN'
p927
I0
sS'trials_2.thisTrialN'
p928
I19
sg55
Vleft_schema_10_WHI.jpg
p929
sg58
g774
sg32
g36
sg57
g33
(g775
S'\n\x00\x00\x00\x00\x00\x00\x00'
tRp930
sg26
F1.6505472909484524
sg37
g12
sS'trials_2.thisIndex'
p931
g33
(g66
S'\x13\x00\x00\x00'
tRp932
sg30
g31
sg25
S'a'
sS'trials_2.thisN'
p933
I19
sg40
g41
sa(dp934
g56
g789
sg38
g39
sS'trials_2.thisRepN'
p935
I0
sS'trials_2.thisTrialN'
p936
I20
sg55
Vright_schema_5_WHI.jpg
p937
sg58
g774
sg32
g36
sg57
g33
(g775
S'\x05\x00\x00\x00\x00\x00\x00\x00'
tRp938
sg26
F1.7839301866624737
sg37
g12
sS'trials_2.thisIndex'
p939
g33
(g66
S'\x14\x00\x00\x00'
tRp940
sg30
g31
sg25
S'a'
sS'trials_2.thisN'
p941
I20
sg40
g41
sa(dp942
g56
g798
sg38
g39
sS'trials_2.thisRepN'
p943
I0
sS'trials_2.thisTrialN'
p944
I21
sg55
Vahead_image_8_WHI.jpg
p945
sg58
Vimage
p946
sg32
g36
sg57
g33
(g775
S'\x08\x00\x00\x00\x00\x00\x00\x00'
tRp947
sg26
F7.4301427030586638
sg37
g12
sS'trials_2.thisIndex'
p948
g33
(g66
S'\x15\x00\x00\x00'
tRp949
sg30
g31
sg25
S'f'
sS'trials_2.thisN'
p950
I21
sg40
g41
sa(dp951
g56
g789
sg38
g39
sS'trials_2.thisRepN'
p952
I0
sS'trials_2.thisTrialN'
p953
I22
sg55
Vright_image_3_WHI.jpg
p954
sg58
g946
sg32
g36
sg57
g33
(g775
S'\x03\x00\x00\x00\x00\x00\x00\x00'
tRp955
sg26
F5.7982629665057175
sg37
g12
sS'trials_2.thisIndex'
p956
g33
(g66
S'\x16\x00\x00\x00'
tRp957
sg30
g31
sg25
S'a'
sS'trials_2.thisN'
p958
I22
sg40
g41
sa(dp959
g56
g770
sg38
g39
sS'trials_2.thisRepN'
p960
I0
sS'trials_2.thisTrialN'
p961
I23
sg55
Vleft_image_7_WHI.jpg
p962
sg58
g946
sg32
g36
sg57
g33
(g775
S'\x07\x00\x00\x00\x00\x00\x00\x00'
tRp963
sg26
F6.5317867847770685
sg37
g12
sS'trials_2.thisIndex'
p964
g33
(g66
S'\x17\x00\x00\x00'
tRp965
sg30
g31
sg25
S'a'
sS'trials_2.thisN'
p966
I23
sg40
g41
sa(dp967
g56
g798
sg38
g39
sS'trials_2.thisRepN'
p968
I0
sS'trials_2.thisTrialN'
p969
I24
sg55
Vahead_image_19_WHI.jpg
p970
sg58
g946
sg32
g36
sg57
g33
(g775
S'\x13\x00\x00\x00\x00\x00\x00\x00'
tRp971
sg26
F3.0499306766287191
sg37
g12
sS'trials_2.thisIndex'
p972
g33
(g66
S'\x18\x00\x00\x00'
tRp973
sg30
g31
sg25
S'a'
sS'trials_2.thisN'
p974
I24
sg40
g41
sa(dp975
g56
g789
sg38
g39
sS'trials_2.thisRepN'
p976
I0
sS'trials_2.thisTrialN'
p977
I25
sg55
Vright_image_5_WHI.jpg
p978
sg58
g946
sg32
g36
sg57
g33
(g775
S'\x05\x00\x00\x00\x00\x00\x00\x00'
tRp979
sg26
F3.9659599267615704
sg37
g12
sS'trials_2.thisIndex'
p980
g33
(g66
S'\x19\x00\x00\x00'
tRp981
sg30
g31
sg25
S'a'
sS'trials_2.thisN'
p982
I25
sg40
g41
sa(dp983
g56
g770
sg38
g39
sS'trials_2.thisRepN'
p984
I0
sS'trials_2.thisTrialN'
p985
I26
sg55
Vleft_image_11_WHI.jpg
p986
sg58
g946
sg32
g36
sg57
g33
(g775
S'\x0b\x00\x00\x00\x00\x00\x00\x00'
tRp987
sg26
F2.5330407189467223
sg37
g12
sS'trials_2.thisIndex'
p988
g33
(g66
S'\x1a\x00\x00\x00'
tRp989
sg30
g31
sg25
S'f'
sS'trials_2.thisN'
p990
I26
sg40
g41
sa(dp991
g56
g789
sg38
g39
sS'trials_2.thisRepN'
p992
I0
sS'trials_2.thisTrialN'
p993
I27
sg55
Vright_image_8_WHI.jpg
p994
sg58
g946
sg32
g36
sg57
g33
(g775
S'\x08\x00\x00\x00\x00\x00\x00\x00'
tRp995
sg26
F3.449942368111806
sg37
g12
sS'trials_2.thisIndex'
p996
g33
(g66
S'\x1b\x00\x00\x00'
tRp997
sg30
g31
sg25
S'f'
sS'trials_2.thisN'
p998
I27
sg40
g41
sa(dp999
g56
g798
sg38
g39
sS'trials_2.thisRepN'
p1000
I0
sS'trials_2.thisTrialN'
p1001
I28
sg55
Vahead_image_18_WHI.jpg
p1002
sg58
g946
sg32
g36
sg57
g33
(g775
S'\x12\x00\x00\x00\x00\x00\x00\x00'
tRp1003
sg26
F1.9837876576202689
sg37
g12
sS'trials_2.thisIndex'
p1004
g33
(g66
S'\x1c\x00\x00\x00'
tRp1005
sg30
g31
sg25
S'a'
sS'trials_2.thisN'
p1006
I28
sg40
g41
sa(dp1007
g56
g770
sg38
g39
sS'trials_2.thisRepN'
p1008
I0
sS'trials_2.thisTrialN'
p1009
I29
sg55
Vleft_image_20_WHI.jpg
p1010
sg58
g946
sg32
g36
sg57
g33
(g775
S'\x14\x00\x00\x00\x00\x00\x00\x00'
tRp1011
sg26
F2.349959191356902
sg37
g12
sS'trials_2.thisIndex'
p1012
g33
(g66
S'\x1d\x00\x00\x00'
tRp1013
sg30
g31
sg25
S'a'
sS'trials_2.thisN'
p1014
I29
sg40
g41
sa(dp1015
g56
g789
sg38
g39
sS'trials_2.thisRepN'
p1016
I0
sS'trials_2.thisTrialN'
p1017
I30
sg55
Vright_image_18_WHI.jpg
p1018
sg58
g946
sg32
g36
sg57
g33
(g775
S'\x12\x00\x00\x00\x00\x00\x00\x00'
tRp1019
sg26
F2.0672398767055711
sg37
g12
sS'trials_2.thisIndex'
p1020
g33
(g66
S'\x1e\x00\x00\x00'
tRp1021
sg30
g31
sg25
S'f'
sS'trials_2.thisN'
p1022
I30
sg40
g41
sa(dp1023
g56
g770
sg38
g39
sS'trials_2.thisRepN'
p1024
I0
sS'trials_2.thisTrialN'
p1025
I31
sg55
Vleft_image_10_WHI.jpg
p1026
sg58
g946
sg32
g36
sg57
g33
(g775
S'\n\x00\x00\x00\x00\x00\x00\x00'
tRp1027
sg26
F3.0997248038474936
sg37
g12
sS'trials_2.thisIndex'
p1028
g33
(g66
S'\x1f\x00\x00\x00'
tRp1029
sg30
g31
sg25
S'a'
sS'trials_2.thisN'
p1030
I31
sg40
g41
sa(dp1031
g56
g770
sg38
g39
sS'trials_2.thisRepN'
p1032
I0
sS'trials_2.thisTrialN'
p1033
I32
sg55
Vleft_image_5_WHI.jpg
p1034
sg58
g946
sg32
g36
sg57
g33
(g775
S'\x05\x00\x00\x00\x00\x00\x00\x00'
tRp1035
sg26
F2.4500387559382943
sg37
g12
sS'trials_2.thisIndex'
p1036
g33
(g66
S' \x00\x00\x00'
tRp1037
sg30
g31
sg25
S'f'
sS'trials_2.thisN'
p1038
I32
sg40
g41
sa(dp1039
g56
g798
sg38
g39
sS'trials_2.thisRepN'
p1040
I0
sS'trials_2.thisTrialN'
p1041
I33
sg55
Vahead_image_15_WHI.jpg
p1042
sg58
g946
sg32
g36
sg57
g33
(g775
S'\x0f\x00\x00\x00\x00\x00\x00\x00'
tRp1043
sg26
F1.8336506842897506
sg37
g12
sS'trials_2.thisIndex'
p1044
g33
(g66
S'!\x00\x00\x00'
tRp1045
sg30
g31
sg25
S'a'
sS'trials_2.thisN'
p1046
I33
sg40
g41
sa(dp1047
g56
g789
sg38
g39
sS'trials_2.thisRepN'
p1048
I0
sS'trials_2.thisTrialN'
p1049
I34
sg55
Vright_image_2_WHI.jpg
p1050
sg58
g946
sg32
g36
sg57
g33
(g775
S'\x02\x00\x00\x00\x00\x00\x00\x00'
tRp1051
sg26
F2.1500794083985966
sg37
g12
sS'trials_2.thisIndex'
p1052
g33
(g66
S'"\x00\x00\x00'
tRp1053
sg30
g31
sg25
S'a'
sS'trials_2.thisN'
p1054
I34
sg40
g41
sa(dp1055
g56
g798
sg38
g39
sS'trials_2.thisRepN'
p1056
I0
sS'trials_2.thisTrialN'
p1057
I35
sg55
Vahead_image_17_WHI.jpg
p1058
sg58
g946
sg32
g36
sg57
g33
(g775
S'\x11\x00\x00\x00\x00\x00\x00\x00'
tRp1059
sg26
F2.0663170525658643
sg37
g12
sS'trials_2.thisIndex'
p1060
g33
(g66
S'#\x00\x00\x00'
tRp1061
sg30
g31
sg25
S'a'
sS'trials_2.thisN'
p1062
I35
sg40
g41
sa(dp1063
g56
g770
sg38
g39
sS'trials_2.thisRepN'
p1064
I0
sS'trials_2.thisTrialN'
p1065
I36
sg55
Vleft_image_15_WHI.jpg
p1066
sg58
g946
sg32
g36
sg57
g33
(g775
S'\x0f\x00\x00\x00\x00\x00\x00\x00'
tRp1067
sg26
F2.1168956695619272
sg37
g12
sS'trials_2.thisIndex'
p1068
g33
(g66
S'$\x00\x00\x00'
tRp1069
sg30
g31
sg25
S'a'
sS'trials_2.thisN'
p1070
I36
sg40
g41
sa(dp1071
g56
g770
sg38
g39
sS'trials_2.thisRepN'
p1072
I0
sS'trials_2.thisTrialN'
p1073
I37
sg55
Vleft_image_19_WHI.jpg
p1074
sg58
g946
sg32
g36
sg57
g33
(g775
S'\x13\x00\x00\x00\x00\x00\x00\x00'
tRp1075
sg26
F1.6504053866519826
sg37
g12
sS'trials_2.thisIndex'
p1076
g33
(g66
S'%\x00\x00\x00'
tRp1077
sg30
g31
sg25
S'f'
sS'trials_2.thisN'
p1078
I37
sg40
g41
sa(dp1079
g56
g789
sg38
g39
sS'trials_2.thisRepN'
p1080
I0
sS'trials_2.thisTrialN'
p1081
I38
sg55
Vright_image_11_WHI.jpg
p1082
sg58
g946
sg32
g36
sg57
g33
(g775
S'\x0b\x00\x00\x00\x00\x00\x00\x00'
tRp1083
sg26
F4.6991562049370259
sg37
g12
sS'trials_2.thisIndex'
p1084
g33
(g66
S'&\x00\x00\x00'
tRp1085
sg30
g31
sg25
S'a'
sS'trials_2.thisN'
p1086
I38
sg40
g41
sa(dp1087
g56
g789
sg38
g39
sS'trials_2.thisRepN'
p1088
I0
sS'trials_2.thisTrialN'
p1089
I39
sg55
Vright_image_21_WHI.jpg
p1090
sg58
g946
sg32
g36
sg57
g33
(g775
S'\x15\x00\x00\x00\x00\x00\x00\x00'
tRp1091
sg26
F2.3499096587329404
sg37
g12
sS'trials_2.thisIndex'
p1092
g33
(g66
S"'\x00\x00\x00"
tRp1093
sg30
g31
sg25
S'a'
sS'trials_2.thisN'
p1094
I39
sg40
g41
sa(dp1095
g56
g798
sg38
g39
sS'trials_2.thisRepN'
p1096
I0
sS'trials_2.thisTrialN'
p1097
I40
sg55
Vahead_image_2_WHI.jpg
p1098
sg58
g946
sg32
g36
sg57
g33
(g775
S'\x02\x00\x00\x00\x00\x00\x00\x00'
tRp1099
sg26
F2.0497941272187745
sg37
g12
sS'trials_2.thisIndex'
p1100
g33
(g66
S'(\x00\x00\x00'
tRp1101
sg30
g31
sg25
S'a'
sS'trials_2.thisN'
p1102
I40
sg40
g41
sa(dp1103
g56
g798
sg38
g39
sS'trials_2.thisRepN'
p1104
I0
sS'trials_2.thisTrialN'
p1105
I41
sg55
Vahead_image_4_WHI.jpg
p1106
sg58
g946
sg32
g36
sg57
g33
(g775
S'\x04\x00\x00\x00\x00\x00\x00\x00'
tRp1107
sg26
F1.6672754866594914
sg37
g12
sS'trials_2.thisIndex'
p1108
g33
(g66
S')\x00\x00\x00'
tRp1109
sg30
g31
sg25
S'f'
sS'trials_2.thisN'
p1110
I41
sg40
g41
sa(dp1111
g56
g789
sg38
g39
sS'trials_2.thisRepN'
p1112
I0
sS'trials_2.thisTrialN'
p1113
I42
sg55
Vright_word_10_WHI.jpg
p1114
sg58
Vword
p1115
sg32
g36
sg57
g33
(g775
S'\n\x00\x00\x00\x00\x00\x00\x00'
tRp1116
sg26
F2.4001491333765443
sg37
g12
sS'trials_2.thisIndex'
p1117
g33
(g66
S'*\x00\x00\x00'
tRp1118
sg30
g31
sg25
S'f'
sS'trials_2.thisN'
p1119
I42
sg40
g41
sa(dp1120
g56
g789
sg38
g39
sS'trials_2.thisRepN'
p1121
I0
sS'trials_2.thisTrialN'
p1122
I43
sg55
Vright_word_5_WHI.jpg
p1123
sg58
g1115
sg32
g36
sg57
g33
(g775
S'\x05\x00\x00\x00\x00\x00\x00\x00'
tRp1124
sg26
F1.9669331760233035
sg37
g12
sS'trials_2.thisIndex'
p1125
g33
(g66
S'+\x00\x00\x00'
tRp1126
sg30
g31
sg25
S'f'
sS'trials_2.thisN'
p1127
I43
sg40
g41
sa(dp1128
g56
g770
sg38
g39
sS'trials_2.thisRepN'
p1129
I0
sS'trials_2.thisTrialN'
p1130
I44
sg55
Vleft_word_7_WHI.jpg
p1131
sg58
g1115
sg32
g36
sg57
g33
(g775
S'\x07\x00\x00\x00\x00\x00\x00\x00'
tRp1132
sg26
F1.884826816531131
sg37
g12
sS'trials_2.thisIndex'
p1133
g33
(g66
S',\x00\x00\x00'
tRp1134
sg30
g31
sg25
S'a'
sS'trials_2.thisN'
p1135
I44
sg40
g41
sa(dp1136
g56
g789
sg38
g39
sS'trials_2.thisRepN'
p1137
I0
sS'trials_2.thisTrialN'
p1138
I45
sg55
Vright_word_21_WHI.jpg
p1139
sg58
g1115
sg32
g36
sg57
g33
(g775
S'\x15\x00\x00\x00\x00\x00\x00\x00'
tRp1140
sg26
F2.4834759590448812
sg37
g12
sS'trials_2.thisIndex'
p1141
g33
(g66
S'-\x00\x00\x00'
tRp1142
sg30
g31
sg25
S'a'
sS'trials_2.thisN'
p1143
I45
sg40
g41
sa(dp1144
g56
g770
sg38
g39
sS'trials_2.thisRepN'
p1145
I0
sS'trials_2.thisTrialN'
p1146
I46
sg55
Vleft_word_20_WHI.jpg
p1147
sg58
g1115
sg32
g36
sg57
g33
(g775
S'\x14\x00\x00\x00\x00\x00\x00\x00'
tRp1148
sg26
F1.8671342963498319
sg37
g12
sS'trials_2.thisIndex'
p1149
g33
(g66
S'.\x00\x00\x00'
tRp1150
sg30
g31
sg25
S'a'
sS'trials_2.thisN'
p1151
I46
sg40
g41
sa(dp1152
g56
g770
sg38
g39
sS'trials_2.thisRepN'
p1153
I0
sS'trials_2.thisTrialN'
p1154
I47
sg55
Vleft_word_8_WHI.jpg
p1155
sg58
g1115
sg32
g36
sg57
g33
(g775
S'\x08\x00\x00\x00\x00\x00\x00\x00'
tRp1156
sg26
F1.4343204011529451
sg37
g12
sS'trials_2.thisIndex'
p1157
g33
(g66
S'/\x00\x00\x00'
tRp1158
sg30
g31
sg25
S'f'
sS'trials_2.thisN'
p1159
I47
sg40
g41
sa(dp1160
g56
g798
sg38
g39
sS'trials_2.thisRepN'
p1161
I0
sS'trials_2.thisTrialN'
p1162
I48
sg55
Vahead_word_16_WHI.jpg
p1163
sg58
g1115
sg32
g36
sg57
g33
(g775
S'\x10\x00\x00\x00\x00\x00\x00\x00'
tRp1164
sg26
F1.6828568458004156
sg37
g12
sS'trials_2.thisIndex'
p1165
g33
(g66
S'0\x00\x00\x00'
tRp1166
sg30
g31
sg25
S'a'
sS'trials_2.thisN'
p1167
I48
sg40
g41
sa(dp1168
g56
g770
sg38
g39
sS'trials_2.thisRepN'
p1169
I0
sS'trials_2.thisTrialN'
p1170
I49
sg55
Vleft_word_6_WHI.jpg
p1171
sg58
g1115
sg32
g36
sg57
g33
(g775
S'\x06\x00\x00\x00\x00\x00\x00\x00'
tRp1172
sg26
F1.9667961803643266
sg37
g12
sS'trials_2.thisIndex'
p1173
g33
(g66
S'1\x00\x00\x00'
tRp1174
sg30
g31
sg25
S'a'
sS'trials_2.thisN'
p1175
I49
sg40
g41
sa(dp1176
g56
g798
sg38
g39
sS'trials_2.thisRepN'
p1177
I0
sS'trials_2.thisTrialN'
p1178
I50
sg55
Vahead_word_10_WHI.jpg
p1179
sg58
g1115
sg32
g36
sg57
g33
(g775
S'\n\x00\x00\x00\x00\x00\x00\x00'
tRp1180
sg26
F1.849712197566987
sg37
g12
sS'trials_2.thisIndex'
p1181
g33
(g66
S'2\x00\x00\x00'
tRp1182
sg30
g31
sg25
S'a'
sS'trials_2.thisN'
p1183
I50
sg40
g41
sa(dp1184
g56
g789
sg38
g39
sS'trials_2.thisRepN'
p1185
I0
sS'trials_2.thisTrialN'
p1186
I51
sg55
Vright_word_7_WHI.jpg
p1187
sg58
g1115
sg32
g36
sg57
g33
(g775
S'\x07\x00\x00\x00\x00\x00\x00\x00'
tRp1188
sg26
F1.9836502157268114
sg37
g12
sS'trials_2.thisIndex'
p1189
g33
(g66
S'3\x00\x00\x00'
tRp1190
sg30
g31
sg25
S'a'
sS'trials_2.thisN'
p1191
I51
sg40
g41
sa(dp1192
g56
g798
sg38
g39
sS'trials_2.thisRepN'
p1193
I0
sS'trials_2.thisTrialN'
p1194
I52
sg55
Vahead_word_17_WHI.jpg
p1195
sg58
g1115
sg32
g36
sg57
g33
(g775
S'\x11\x00\x00\x00\x00\x00\x00\x00'
tRp1196
sg26
F1.6667132243746892
sg37
g12
sS'trials_2.thisIndex'
p1197
g33
(g66
S'4\x00\x00\x00'
tRp1198
sg30
g31
sg25
S'a'
sS'trials_2.thisN'
p1199
I52
sg40
g41
sa(dp1200
g56
g789
sg38
g39
sS'trials_2.thisRepN'
p1201
I0
sS'trials_2.thisTrialN'
p1202
I53
sg55
Vright_word_13_WHI.jpg
p1203
sg58
g1115
sg32
g36
sg57
g33
(g775
S'\r\x00\x00\x00\x00\x00\x00\x00'
tRp1204
sg26
F2.6333608068380272
sg37
g12
sS'trials_2.thisIndex'
p1205
g33
(g66
S'5\x00\x00\x00'
tRp1206
sg30
g31
sg25
S'a'
sS'trials_2.thisN'
p1207
I53
sg40
g41
sa(dp1208
g56
g798
sg38
g39
sS'trials_2.thisRepN'
p1209
I0
sS'trials_2.thisTrialN'
p1210
I54
sg55
Vahead_word_19_WHI.jpg
p1211
sg58
g1115
sg32
g36
sg57
g33
(g775
S'\x13\x00\x00\x00\x00\x00\x00\x00'
tRp1212
sg26
F2.0332261316361837
sg37
g12
sS'trials_2.thisIndex'
p1213
g33
(g66
S'6\x00\x00\x00'
tRp1214
sg30
g31
sg25
S'a'
sS'trials_2.thisN'
p1215
I54
sg40
g41
sa(dp1216
g56
g770
sg38
g39
sS'trials_2.thisRepN'
p1217
I0
sS'trials_2.thisTrialN'
p1218
I55
sg55
Vleft_word_12_WHI.jpg
p1219
sg58
g1115
sg32
g36
sg57
g33
(g775
S'\x0c\x00\x00\x00\x00\x00\x00\x00'
tRp1220
sg26
F1.8005450374330394
sg37
g12
sS'trials_2.thisIndex'
p1221
g33
(g66
S'7\x00\x00\x00'
tRp1222
sg30
g31
sg25
S'a'
sS'trials_2.thisN'
p1223
I55
sg40
g41
sa(dp1224
g56
g770
sg38
g39
sS'trials_2.thisRepN'
p1225
I0
sS'trials_2.thisTrialN'
p1226
I56
sg55
Vleft_word_21_WHI.jpg
p1227
sg58
g1115
sg32
g36
sg57
g33
(g775
S'\x15\x00\x00\x00\x00\x00\x00\x00'
tRp1228
sg26
F1.5175213871698361
sg37
g12
sS'trials_2.thisIndex'
p1229
g33
(g66
S'8\x00\x00\x00'
tRp1230
sg30
g31
sg25
S'f'
sS'trials_2.thisN'
p1231
I56
sg40
g41
sa(dp1232
g56
g798
sg38
g39
sS'trials_2.thisRepN'
p1233
I0
sS'trials_2.thisTrialN'
p1234
I57
sg55
Vahead_word_3_WHI.jpg
p1235
sg58
g1115
sg32
g36
sg57
g33
(g775
S'\x03\x00\x00\x00\x00\x00\x00\x00'
tRp1236
sg26
F1.3502456773858285
sg37
g12
sS'trials_2.thisIndex'
p1237
g33
(g66
S'9\x00\x00\x00'
tRp1238
sg30
g31
sg25
S'a'
sS'trials_2.thisN'
p1239
I57
sg40
g41
sa(dp1240
g56
g770
sg38
g39
sS'trials_2.thisRepN'
p1241
I0
sS'trials_2.thisTrialN'
p1242
I58
sg55
Vleft_word_16_WHI.jpg
p1243
sg58
g1115
sg32
g36
sg57
g33
(g775
S'\x10\x00\x00\x00\x00\x00\x00\x00'
tRp1244
sg26
F2.4334408622817136
sg37
g12
sS'trials_2.thisIndex'
p1245
g33
(g66
S':\x00\x00\x00'
tRp1246
sg30
g31
sg25
S'a'
sS'trials_2.thisN'
p1247
I58
sg40
g41
sa(dp1248
g56
g798
sg38
g39
sS'trials_2.thisRepN'
p1249
I0
sS'trials_2.thisTrialN'
p1250
I59
sg55
Vahead_word_9_WHI.jpg
p1251
sg58
g1115
sg32
g36
sg57
g33
(g775
S'\t\x00\x00\x00\x00\x00\x00\x00'
tRp1252
sg26
F1.5666626653837739
sg37
g12
sS'trials_2.thisIndex'
p1253
g33
(g66
S';\x00\x00\x00'
tRp1254
sg30
g31
sg25
S'a'
sS'trials_2.thisN'
p1255
I59
sg40
g41
sa(dp1256
g56
g789
sg38
g39
sS'trials_2.thisRepN'
p1257
I0
sS'trials_2.thisTrialN'
p1258
I60
sg55
Vright_word_18_WHI.jpg
p1259
sg58
g1115
sg32
g36
sg57
g33
(g775
S'\x12\x00\x00\x00\x00\x00\x00\x00'
tRp1260
sg26
F1.7342556517542107
sg37
g12
sS'trials_2.thisIndex'
p1261
g33
(g66
S'<\x00\x00\x00'
tRp1262
sg30
g31
sg25
S'a'
sS'trials_2.thisN'
p1263
I60
sg40
g41
sa(dp1264
g56
g798
sg38
g39
sS'trials_2.thisRepN'
p1265
I0
sS'trials_2.thisTrialN'
p1266
I61
sg55
Vahead_word_2_WHI.jpg
p1267
sg58
g1115
sg32
g36
sg57
g33
(g775
S'\x02\x00\x00\x00\x00\x00\x00\x00'
tRp1268
sg26
F1.4839726240752498
sg37
g12
sS'trials_2.thisIndex'
p1269
g33
(g66
S'=\x00\x00\x00'
tRp1270
sg30
g31
sg25
S'a'
sS'trials_2.thisN'
p1271
I61
sg40
g41
sa(dp1272
g56
g789
sg38
g39
sS'trials_2.thisRepN'
p1273
I0
sS'trials_2.thisTrialN'
p1274
I62
sg55
Vright_word_4_WHI.jpg
p1275
sg58
g1115
sg32
g36
sg57
g33
(g775
S'\x04\x00\x00\x00\x00\x00\x00\x00'
tRp1276
sg26
F1.8164499205013271
sg37
g12
sS'trials_2.thisIndex'
p1277
g33
(g66
S'>\x00\x00\x00'
tRp1278
sg30
g31
sg25
S'a'
sS'trials_2.thisN'
p1279
I62
sg40
g41
sa(dp1280
g56
g798
sg38
g39
sS'trials_2.thisRepN'
p1281
I0
sS'trials_2.thisTrialN'
p1282
I63
sg55
Vahead_image_3_WHI.jpg
p1283
sg58
g946
sg32
g36
sg57
g33
(g775
S'\x03\x00\x00\x00\x00\x00\x00\x00'
tRp1284
sg26
F5.4321610462066019
sg37
g12
sS'trials_2.thisIndex'
p1285
g33
(g66
S'?\x00\x00\x00'
tRp1286
sg30
g31
sg25
S'f'
sS'trials_2.thisN'
p1287
I63
sg40
g41
sa(dp1288
g56
g798
sg38
g39
sS'trials_2.thisRepN'
p1289
I0
sS'trials_2.thisTrialN'
p1290
I64
sg55
Vahead_image_11_WHI.jpg
p1291
sg58
g946
sg32
g36
sg57
g33
(g775
S'\x0b\x00\x00\x00\x00\x00\x00\x00'
tRp1292
sg26
F3.9326548106619157
sg37
g12
sS'trials_2.thisIndex'
p1293
g33
(g66
S'@\x00\x00\x00'
tRp1294
sg30
g31
sg25
S'f'
sS'trials_2.thisN'
p1295
I64
sg40
g41
sa(dp1296
g56
g789
sg38
g39
sS'trials_2.thisRepN'
p1297
I0
sS'trials_2.thisTrialN'
p1298
I65
sg55
Vright_image_14_WHI.jpg
p1299
sg58
g946
sg32
g36
sg57
g33
(g775
S'\x0e\x00\x00\x00\x00\x00\x00\x00'
tRp1300
sg26
F2.0168451105710119
sg37
g12
sS'trials_2.thisIndex'
p1301
g33
(g66
S'A\x00\x00\x00'
tRp1302
sg30
g31
sg25
S'a'
sS'trials_2.thisN'
p1303
I65
sg40
g41
sa(dp1304
g56
g798
sg38
g39
sS'trials_2.thisRepN'
p1305
I0
sS'trials_2.thisTrialN'
p1306
I66
sg55
Vahead_image_7_WHI.jpg
p1307
sg58
g946
sg32
g36
sg57
g33
(g775
S'\x07\x00\x00\x00\x00\x00\x00\x00'
tRp1308
sg26
F2.183868248554063
sg37
g12
sS'trials_2.thisIndex'
p1309
g33
(g66
S'B\x00\x00\x00'
tRp1310
sg30
g31
sg25
S'a'
sS'trials_2.thisN'
p1311
I66
sg40
g41
sa(dp1312
g56
g789
sg38
g39
sS'trials_2.thisRepN'
p1313
I0
sS'trials_2.thisTrialN'
p1314
I67
sg55
Vright_image_10_WHI.jpg
p1315
sg58
g946
sg32
g36
sg57
g33
(g775
S'\n\x00\x00\x00\x00\x00\x00\x00'
tRp1316
sg26
F3.38223349324835
sg37
g12
sS'trials_2.thisIndex'
p1317
g33
(g66
S'C\x00\x00\x00'
tRp1318
sg30
g31
sg25
S'a'
sS'trials_2.thisN'
p1319
I67
sg40
g41
sa(dp1320
g56
g789
sg38
g39
sS'trials_2.thisRepN'
p1321
I0
sS'trials_2.thisTrialN'
p1322
I68
sg55
Vright_image_20_WHI.jpg
p1323
sg58
g946
sg32
g36
sg57
g33
(g775
S'\x14\x00\x00\x00\x00\x00\x00\x00'
tRp1324
sg26
F2.5004964419058524
sg37
g12
sS'trials_2.thisIndex'
p1325
g33
(g66
S'D\x00\x00\x00'
tRp1326
sg30
g31
sg25
S'f'
sS'trials_2.thisN'
p1327
I68
sg40
g41
sa(dp1328
g56
g770
sg38
g39
sS'trials_2.thisRepN'
p1329
I0
sS'trials_2.thisTrialN'
p1330
I69
sg55
Vleft_image_1_WHI.jpg
p1331
sg58
g946
sg32
g36
sg57
g33
(g775
S'\x01\x00\x00\x00\x00\x00\x00\x00'
tRp1332
sg26
F3.466164527766523
sg37
g12
sS'trials_2.thisIndex'
p1333
g33
(g66
S'E\x00\x00\x00'
tRp1334
sg30
g31
sg25
S'f'
sS'trials_2.thisN'
p1335
I69
sg40
g41
sa(dp1336
g56
g770
sg38
g39
sS'trials_2.thisRepN'
p1337
I0
sS'trials_2.thisTrialN'
p1338
I70
sg55
Vleft_image_13_WHI.jpg
p1339
sg58
g946
sg32
g36
sg57
g33
(g775
S'\r\x00\x00\x00\x00\x00\x00\x00'
tRp1340
sg26
F4.1658173977339175
sg37
g12
sS'trials_2.thisIndex'
p1341
g33
(g66
S'F\x00\x00\x00'
tRp1342
sg30
g31
sg25
S'f'
sS'trials_2.thisN'
p1343
I70
sg40
g41
sa(dp1344
g56
g770
sg38
g39
sS'trials_2.thisRepN'
p1345
I0
sS'trials_2.thisTrialN'
p1346
I71
sg55
Vleft_image_6_WHI.jpg
p1347
sg58
g946
sg32
g36
sg57
g33
(g775
S'\x06\x00\x00\x00\x00\x00\x00\x00'
tRp1348
sg26
F3.7160606654215371
sg37
g12
sS'trials_2.thisIndex'
p1349
g33
(g66
S'G\x00\x00\x00'
tRp1350
sg30
g31
sg25
S'f'
sS'trials_2.thisN'
p1351
I71
sg40
g41
sa(dp1352
g56
g770
sg38
g39
sS'trials_2.thisRepN'
p1353
I0
sS'trials_2.thisTrialN'
p1354
I72
sg55
Vleft_image_16_WHI.jpg
p1355
sg58
g946
sg32
g36
sg57
g33
(g775
S'\x10\x00\x00\x00\x00\x00\x00\x00'
tRp1356
sg26
F4.8324578850006219
sg37
g12
sS'trials_2.thisIndex'
p1357
g33
(g66
S'H\x00\x00\x00'
tRp1358
sg30
g31
sg25
S'f'
sS'trials_2.thisN'
p1359
I72
sg40
g41
sa(dp1360
g56
g789
sg38
g39
sS'trials_2.thisRepN'
p1361
I0
sS'trials_2.thisTrialN'
p1362
I73
sg55
Vright_image_19_WHI.jpg
p1363
sg58
g946
sg32
g36
sg57
g33
(g775
S'\x13\x00\x00\x00\x00\x00\x00\x00'
tRp1364
sg26
F2.933166201604763
sg37
g12
sS'trials_2.thisIndex'
p1365
g33
(g66
S'I\x00\x00\x00'
tRp1366
sg30
g31
sg25
S'f'
sS'trials_2.thisN'
p1367
I73
sg40
g41
sa(dp1368
g56
g770
sg38
g39
sS'trials_2.thisRepN'
p1369
I0
sS'trials_2.thisTrialN'
p1370
I74
sg55
Vleft_image_8_WHI.jpg
p1371
sg58
g946
sg32
g36
sg57
g33
(g775
S'\x08\x00\x00\x00\x00\x00\x00\x00'
tRp1372
sg26
F2.4833710926759522
sg37
g12
sS'trials_2.thisIndex'
p1373
g33
(g66
S'J\x00\x00\x00'
tRp1374
sg30
g31
sg25
S'f'
sS'trials_2.thisN'
p1375
I74
sg40
g41
sa(dp1376
g56
g789
sg38
g39
sS'trials_2.thisRepN'
p1377
I0
sS'trials_2.thisTrialN'
p1378
I75
sg55
Vright_image_7_WHI.jpg
p1379
sg58
g946
sg32
g36
sg57
g33
(g775
S'\x07\x00\x00\x00\x00\x00\x00\x00'
tRp1380
sg26
F3.2667747162195155
sg37
g12
sS'trials_2.thisIndex'
p1381
g33
(g66
S'K\x00\x00\x00'
tRp1382
sg30
g31
sg25
S'f'
sS'trials_2.thisN'
p1383
I75
sg40
g41
sa(dp1384
g56
g770
sg38
g39
sS'trials_2.thisRepN'
p1385
I0
sS'trials_2.thisTrialN'
p1386
I76
sg55
Vleft_image_17_WHI.jpg
p1387
sg58
g946
sg32
g36
sg57
g33
(g775
S'\x11\x00\x00\x00\x00\x00\x00\x00'
tRp1388
sg26
F3.3499640999943949
sg37
g12
sS'trials_2.thisIndex'
p1389
g33
(g66
S'L\x00\x00\x00'
tRp1390
sg30
g31
sg25
S'f'
sS'trials_2.thisN'
p1391
I76
sg40
g41
sa(dp1392
g56
g789
sg38
g39
sS'trials_2.thisRepN'
p1393
I0
sS'trials_2.thisTrialN'
p1394
I77
sg55
Vright_image_6_WHI.jpg
p1395
sg58
g946
sg32
g36
sg57
g33
(g775
S'\x06\x00\x00\x00\x00\x00\x00\x00'
tRp1396
sg26
F4.8156158981000772
sg37
g12
sS'trials_2.thisIndex'
p1397
g33
(g66
S'M\x00\x00\x00'
tRp1398
sg30
g31
sg25
S'f'
sS'trials_2.thisN'
p1399
I77
sg40
g41
sa(dp1400
g56
g770
sg38
g39
sS'trials_2.thisRepN'
p1401
I0
sS'trials_2.thisTrialN'
p1402
I78
sg55
Vleft_image_12_WHI.jpg
p1403
sg58
g946
sg32
g36
sg57
g33
(g775
S'\x0c\x00\x00\x00\x00\x00\x00\x00'
tRp1404
sg26
F4.9492906347149983
sg37
g12
sS'trials_2.thisIndex'
p1405
g33
(g66
S'N\x00\x00\x00'
tRp1406
sg30
g31
sg25
S'f'
sS'trials_2.thisN'
p1407
I78
sg40
g41
sa(dp1408
g56
g789
sg38
g39
sS'trials_2.thisRepN'
p1409
I0
sS'trials_2.thisTrialN'
p1410
I79
sg55
Vright_image_13_WHI.jpg
p1411
sg58
g946
sg32
g36
sg57
g33
(g775
S'\r\x00\x00\x00\x00\x00\x00\x00'
tRp1412
sg26
F4.3151863921812037
sg37
g12
sS'trials_2.thisIndex'
p1413
g33
(g66
S'O\x00\x00\x00'
tRp1414
sg30
g31
sg25
S'f'
sS'trials_2.thisN'
p1415
I79
sg40
g41
sa(dp1416
g56
g798
sg38
g39
sS'trials_2.thisRepN'
p1417
I0
sS'trials_2.thisTrialN'
p1418
I80
sg55
Vahead_image_16_WHI.jpg
p1419
sg58
g946
sg32
g36
sg57
g33
(g775
S'\x10\x00\x00\x00\x00\x00\x00\x00'
tRp1420
sg26
F2.6666962672461523
sg37
g12
sS'trials_2.thisIndex'
p1421
g33
(g66
S'P\x00\x00\x00'
tRp1422
sg30
g31
sg25
S'a'
sS'trials_2.thisN'
p1423
I80
sg40
g41
sa(dp1424
g56
g798
sg38
g39
sS'trials_2.thisRepN'
p1425
I0
sS'trials_2.thisTrialN'
p1426
I81
sg55
Vahead_image_13_WHI.jpg
p1427
sg58
g946
sg32
g36
sg57
g33
(g775
S'\r\x00\x00\x00\x00\x00\x00\x00'
tRp1428
sg26
F2.1668941746465862
sg37
g12
sS'trials_2.thisIndex'
p1429
g33
(g66
S'Q\x00\x00\x00'
tRp1430
sg30
g31
sg25
S'f'
sS'trials_2.thisN'
p1431
I81
sg40
g41
sa(dp1432
g56
g798
sg38
g39
sS'trials_2.thisRepN'
p1433
I0
sS'trials_2.thisTrialN'
p1434
I82
sg55
Vahead_image_10_WHI.jpg
p1435
sg58
g946
sg32
g36
sg57
g33
(g775
S'\n\x00\x00\x00\x00\x00\x00\x00'
tRp1436
sg26
F2.7498535217455355
sg37
g12
sS'trials_2.thisIndex'
p1437
g33
(g66
S'R\x00\x00\x00'
tRp1438
sg30
g31
sg25
S'f'
sS'trials_2.thisN'
p1439
I82
sg40
g41
sa(dp1440
g56
g798
sg38
g39
sS'trials_2.thisRepN'
p1441
I0
sS'trials_2.thisTrialN'
p1442
I83
sg55
Vahead_image_20_WHI.jpg
p1443
sg58
g946
sg32
g36
sg57
g33
(g775
S'\x14\x00\x00\x00\x00\x00\x00\x00'
tRp1444
sg26
F3.3164126594783738
sg37
g12
sS'trials_2.thisIndex'
p1445
g33
(g66
S'S\x00\x00\x00'
tRp1446
sg30
g31
sg25
S'f'
sS'trials_2.thisN'
p1447
I83
sg40
g41
sa(dp1448
g56
g770
sg38
g39
sS'trials_2.thisRepN'
p1449
I0
sS'trials_2.thisTrialN'
p1450
I84
sg55
Vleft_word_2_WHI.jpg
p1451
sg58
g1115
sg32
g36
sg57
g33
(g775
S'\x02\x00\x00\x00\x00\x00\x00\x00'
tRp1452
sg26
F2.6169253445114009
sg37
g12
sS'trials_2.thisIndex'
p1453
g33
(g66
S'T\x00\x00\x00'
tRp1454
sg30
g31
sg25
S'f'
sS'trials_2.thisN'
p1455
I84
sg40
g41
sa(dp1456
g56
g789
sg38
g39
sS'trials_2.thisRepN'
p1457
I0
sS'trials_2.thisTrialN'
p1458
I85
sg55
Vright_word_16_WHI.jpg
p1459
sg58
g1115
sg32
g36
sg57
g33
(g775
S'\x10\x00\x00\x00\x00\x00\x00\x00'
tRp1460
sg26
F1.3838283547083847
sg37
g12
sS'trials_2.thisIndex'
p1461
g33
(g66
S'U\x00\x00\x00'
tRp1462
sg30
g31
sg25
S'a'
sS'trials_2.thisN'
p1463
I85
sg40
g41
sa(dp1464
g56
g798
sg38
g39
sS'trials_2.thisRepN'
p1465
I0
sS'trials_2.thisTrialN'
p1466
I86
sg55
Vahead_word_20_WHI.jpg
p1467
sg58
g1115
sg32
g36
sg57
g33
(g775
S'\x14\x00\x00\x00\x00\x00\x00\x00'
tRp1468
sg26
F1.3678395785391331
sg37
g12
sS'trials_2.thisIndex'
p1469
g33
(g66
S'V\x00\x00\x00'
tRp1470
sg30
g31
sg25
S'a'
sS'trials_2.thisN'
p1471
I86
sg40
g41
sa(dp1472
g56
g798
sg38
g39
sS'trials_2.thisRepN'
p1473
I0
sS'trials_2.thisTrialN'
p1474
I87
sg55
Vahead_word_7_WHI.jpg
p1475
sg58
g1115
sg32
g36
sg57
g33
(g775
S'\x07\x00\x00\x00\x00\x00\x00\x00'
tRp1476
sg26
F1.4839529895107262
sg37
g12
sS'trials_2.thisIndex'
p1477
g33
(g66
S'W\x00\x00\x00'
tRp1478
sg30
g31
sg25
S'f'
sS'trials_2.thisN'
p1479
I87
sg40
g41
sa(dp1480
g56
g770
sg38
g39
sS'trials_2.thisRepN'
p1481
I0
sS'trials_2.thisTrialN'
p1482
I88
sg55
Vleft_word_3_WHI.jpg
p1483
sg58
g1115
sg32
g36
sg57
g33
(g775
S'\x03\x00\x00\x00\x00\x00\x00\x00'
tRp1484
sg26
F1.4837570901872823
sg37
g12
sS'trials_2.thisIndex'
p1485
g33
(g66
S'X\x00\x00\x00'
tRp1486
sg30
g31
sg25
S'a'
sS'trials_2.thisN'
p1487
I88
sg40
g41
sa(dp1488
g56
g798
sg38
g39
sS'trials_2.thisRepN'
p1489
I0
sS'trials_2.thisTrialN'
p1490
I89
sg55
Vahead_word_14_WHI.jpg
p1491
sg58
g1115
sg32
g36
sg57
g33
(g775
S'\x0e\x00\x00\x00\x00\x00\x00\x00'
tRp1492
sg26
F1.433993307306082
sg37
g12
sS'trials_2.thisIndex'
p1493
g33
(g66
S'Y\x00\x00\x00'
tRp1494
sg30
g31
sg25
S'a'
sS'trials_2.thisN'
p1495
I89
sg40
g41
sa(dp1496
g56
g770
sg38
g39
sS'trials_2.thisRepN'
p1497
I0
sS'trials_2.thisTrialN'
p1498
I90
sg55
Vleft_word_10_WHI.jpg
p1499
sg58
g1115
sg32
g36
sg57
g33
(g775
S'\n\x00\x00\x00\x00\x00\x00\x00'
tRp1500
sg26
F1.8841855697683059
sg37
g12
sS'trials_2.thisIndex'
p1501
g33
(g66
S'Z\x00\x00\x00'
tRp1502
sg30
g31
sg25
S'a'
sS'trials_2.thisN'
p1503
I90
sg40
g41
sa(dp1504
g56
g770
sg38
g39
sS'trials_2.thisRepN'
p1505
I0
sS'trials_2.thisTrialN'
p1506
I91
sg55
Vleft_word_5_WHI.jpg
p1507
sg58
g1115
sg32
g36
sg57
g33
(g775
S'\x05\x00\x00\x00\x00\x00\x00\x00'
tRp1508
sg26
F1.2007463808840839
sg37
g12
sS'trials_2.thisIndex'
p1509
g33
(g66
S'[\x00\x00\x00'
tRp1510
sg30
g31
sg25
S'f'
sS'trials_2.thisN'
p1511
I91
sg40
g41
sa(dp1512
g56
g770
sg38
g39
sS'trials_2.thisRepN'
p1513
I0
sS'trials_2.thisTrialN'
p1514
I92
sg55
Vleft_word_1_WHI.jpg
p1515
sg58
g1115
sg32
g36
sg57
g33
(g775
S'\x01\x00\x00\x00\x00\x00\x00\x00'
tRp1516
sg26
F1.2175366039446089
sg37
g12
sS'trials_2.thisIndex'
p1517
g33
(g66
S'\\\x00\x00\x00'
tRp1518
sg30
g31
sg25
S'f'
sS'trials_2.thisN'
p1519
I92
sg40
g41
sa(dp1520
g56
g798
sg38
g39
sS'trials_2.thisRepN'
p1521
I0
sS'trials_2.thisTrialN'
p1522
I93
sg55
Vahead_word_4_WHI.jpg
p1523
sg58
g1115
sg32
g36
sg57
g33
(g775
S'\x04\x00\x00\x00\x00\x00\x00\x00'
tRp1524
sg26
F1.2347253192419885
sg37
g12
sS'trials_2.thisIndex'
p1525
g33
(g66
S']\x00\x00\x00'
tRp1526
sg30
g31
sg25
S'a'
sS'trials_2.thisN'
p1527
I93
sg40
g41
sa(dp1528
g56
g770
sg38
g39
sS'trials_2.thisRepN'
p1529
I0
sS'trials_2.thisTrialN'
p1530
I94
sg55
Vleft_word_11_WHI.jpg
p1531
sg58
g1115
sg32
g36
sg57
g33
(g775
S'\x0b\x00\x00\x00\x00\x00\x00\x00'
tRp1532
sg26
F1.8671195704228012
sg37
g12
sS'trials_2.thisIndex'
p1533
g33
(g66
S'^\x00\x00\x00'
tRp1534
sg30
g31
sg25
S'a'
sS'trials_2.thisN'
p1535
I94
sg40
g41
sa(dp1536
g56
g798
sg38
g39
sS'trials_2.thisRepN'
p1537
I0
sS'trials_2.thisTrialN'
p1538
I95
sg55
Vahead_word_1_WHI.jpg
p1539
sg58
g1115
sg32
g36
sg57
g33
(g775
S'\x01\x00\x00\x00\x00\x00\x00\x00'
tRp1540
sg26
F1.6342202649248065
sg37
g12
sS'trials_2.thisIndex'
p1541
g33
(g66
S'_\x00\x00\x00'
tRp1542
sg30
g31
sg25
S'a'
sS'trials_2.thisN'
p1543
I95
sg40
g41
sa(dp1544
g56
g789
sg38
g39
sS'trials_2.thisRepN'
p1545
I0
sS'trials_2.thisTrialN'
p1546
I96
sg55
Vright_word_9_WHI.jpg
p1547
sg58
g1115
sg32
g36
sg57
g33
(g775
S'\t\x00\x00\x00\x00\x00\x00\x00'
tRp1548
sg26
F1.6507690721919062
sg37
g12
sS'trials_2.thisIndex'
p1549
g33
(g66
S'`\x00\x00\x00'
tRp1550
sg30
g31
sg25
S'a'
sS'trials_2.thisN'
p1551
I96
sg40
g41
sa(dp1552
g56
g789
sg38
g39
sS'trials_2.thisRepN'
p1553
I0
sS'trials_2.thisTrialN'
p1554
I97
sg55
Vright_word_11_WHI.jpg
p1555
sg58
g1115
sg32
g36
sg57
g33
(g775
S'\x0b\x00\x00\x00\x00\x00\x00\x00'
tRp1556
sg26
F0.084528995997970924
sg37
g12
sS'trials_2.thisIndex'
p1557
g33
(g66
S'a\x00\x00\x00'
tRp1558
sg30
g31
sg25
S'a'
sS'trials_2.thisN'
p1559
I97
sg40
g41
sa(dp1560
g56
g789
sg38
g39
sS'trials_2.thisRepN'
p1561
I0
sS'trials_2.thisTrialN'
p1562
I98
sg55
Vright_word_3_WHI.jpg
p1563
sg58
g1115
sg32
g36
sg57
g33
(g775
S'\x03\x00\x00\x00\x00\x00\x00\x00'
tRp1564
sg26
F1.4507429225195665
sg37
g12
sS'trials_2.thisIndex'
p1565
g33
(g66
S'b\x00\x00\x00'
tRp1566
sg30
g31
sg25
S'f'
sS'trials_2.thisN'
p1567
I98
sg40
g41
sa(dp1568
g56
g789
sg38
g39
sS'trials_2.thisRepN'
p1569
I0
sS'trials_2.thisTrialN'
p1570
I99
sg55
Vright_word_2_WHI.jpg
p1571
sg58
g1115
sg32
g36
sg57
g33
(g775
S'\x02\x00\x00\x00\x00\x00\x00\x00'
tRp1572
sg26
F1.5672128791920841
sg37
g12
sS'trials_2.thisIndex'
p1573
g33
(g66
S'c\x00\x00\x00'
tRp1574
sg30
g31
sg25
S'f'
sS'trials_2.thisN'
p1575
I99
sg40
g41
sa(dp1576
g56
g789
sg38
g39
sS'trials_2.thisRepN'
p1577
I0
sS'trials_2.thisTrialN'
p1578
I100
sg55
Vright_word_20_WHI.jpg
p1579
sg58
g1115
sg32
g36
sg57
g33
(g775
S'\x14\x00\x00\x00\x00\x00\x00\x00'
tRp1580
sg26
F1.583837993486668
sg37
g12
sS'trials_2.thisIndex'
p1581
g33
(g66
S'd\x00\x00\x00'
tRp1582
sg30
g31
sg25
S'f'
sS'trials_2.thisN'
p1583
I100
sg40
g41
sa(dp1584
g56
g789
sg38
g39
sS'trials_2.thisRepN'
p1585
I0
sS'trials_2.thisTrialN'
p1586
I101
sg55
Vright_word_14_WHI.jpg
p1587
sg58
g1115
sg32
g36
sg57
g33
(g775
S'\x0e\x00\x00\x00\x00\x00\x00\x00'
tRp1588
sg26
F1.3339182051131502
sg37
g12
sS'trials_2.thisIndex'
p1589
g33
(g66
S'e\x00\x00\x00'
tRp1590
sg30
g31
sg25
S'f'
sS'trials_2.thisN'
p1591
I101
sg40
g41
sa(dp1592
g56
g798
sg38
g39
sS'trials_2.thisRepN'
p1593
I0
sS'trials_2.thisTrialN'
p1594
I102
sg55
Vahead_word_11_WHI.jpg
p1595
sg58
g1115
sg32
g36
sg57
g33
(g775
S'\x0b\x00\x00\x00\x00\x00\x00\x00'
tRp1596
sg26
F1.3008161281904904
sg37
g12
sS'trials_2.thisIndex'
p1597
g33
(g66
S'f\x00\x00\x00'
tRp1598
sg30
g31
sg25
S'a'
sS'trials_2.thisN'
p1599
I102
sg40
g41
sa(dp1600
g56
g770
sg38
g39
sS'trials_2.thisRepN'
p1601
I0
sS'trials_2.thisTrialN'
p1602
I103
sg55
Vleft_word_15_WHI.jpg
p1603
sg58
g1115
sg32
g36
sg57
g33
(g775
S'\x0f\x00\x00\x00\x00\x00\x00\x00'
tRp1604
sg26
F2.517104152837419
sg37
g12
sS'trials_2.thisIndex'
p1605
g33
(g66
S'g\x00\x00\x00'
tRp1606
sg30
g31
sg25
S'a'
sS'trials_2.thisN'
p1607
I103
sg40
g41
sa(dp1608
g56
g798
sg38
g39
sS'trials_2.thisRepN'
p1609
I0
sS'trials_2.thisTrialN'
p1610
I104
sg55
Vahead_word_6_WHI.jpg
p1611
sg58
g1115
sg32
g36
sg57
g33
(g775
S'\x06\x00\x00\x00\x00\x00\x00\x00'
tRp1612
sg26
F1.8831757288280642
sg37
g12
sS'trials_2.thisIndex'
p1613
g33
(g66
S'h\x00\x00\x00'
tRp1614
sg30
g31
sg25
S'a'
sS'trials_2.thisN'
p1615
I104
sg40
g41
sa(dp1616
g56
g789
sg38
g39
sS'trials_2.thisRepN'
p1617
I0
sS'trials_2.thisTrialN'
p1618
I105
sg55
Vright_schema_13_WHI.jpg
p1619
sg58
g774
sg32
g36
sg57
g33
(g775
S'\r\x00\x00\x00\x00\x00\x00\x00'
tRp1620
sg26
F2.9330305446783314
sg37
g12
sS'trials_2.thisIndex'
p1621
g33
(g66
S'i\x00\x00\x00'
tRp1622
sg30
g31
sg25
S'f'
sS'trials_2.thisN'
p1623
I105
sg40
g41
sa(dp1624
g56
g789
sg38
g39
sS'trials_2.thisRepN'
p1625
I0
sS'trials_2.thisTrialN'
p1626
I106
sg55
Vright_schema_8_WHI.jpg
p1627
sg58
g774
sg32
g36
sg57
g33
(g775
S'\x08\x00\x00\x00\x00\x00\x00\x00'
tRp1628
sg26
F1.817089828546159
sg37
g12
sS'trials_2.thisIndex'
p1629
g33
(g66
S'j\x00\x00\x00'
tRp1630
sg30
g31
sg25
S'f'
sS'trials_2.thisN'
p1631
I106
sg40
g41
sa(dp1632
g56
g798
sg38
g39
sS'trials_2.thisRepN'
p1633
I0
sS'trials_2.thisTrialN'
p1634
I107
sg55
Vahead_schema_1_WHI.jpg
p1635
sg58
g774
sg32
g36
sg57
g33
(g775
S'\x01\x00\x00\x00\x00\x00\x00\x00'
tRp1636
sg26
F1.5171510080253938
sg37
g12
sS'trials_2.thisIndex'
p1637
g33
(g66
S'k\x00\x00\x00'
tRp1638
sg30
g31
sg25
S'a'
sS'trials_2.thisN'
p1639
I107
sg40
g41
sa(dp1640
g56
g798
sg38
g39
sS'trials_2.thisRepN'
p1641
I0
sS'trials_2.thisTrialN'
p1642
I108
sg55
Vahead_schema_18_WHI.jpg
p1643
sg58
g774
sg32
g36
sg57
g33
(g775
S'\x12\x00\x00\x00\x00\x00\x00\x00'
tRp1644
sg26
F1.8338854064786574
sg37
g12
sS'trials_2.thisIndex'
p1645
g33
(g66
S'l\x00\x00\x00'
tRp1646
sg30
g31
sg25
S'f'
sS'trials_2.thisN'
p1647
I108
sg40
g41
sa(dp1648
g56
g798
sg38
g39
sS'trials_2.thisRepN'
p1649
I0
sS'trials_2.thisTrialN'
p1650
I109
sg55
Vahead_schema_16_WHI.jpg
p1651
sg58
g774
sg32
g36
sg57
g33
(g775
S'\x10\x00\x00\x00\x00\x00\x00\x00'
tRp1652
sg26
F1.4674229243246373
sg37
g12
sS'trials_2.thisIndex'
p1653
g33
(g66
S'm\x00\x00\x00'
tRp1654
sg30
g31
sg25
S'f'
sS'trials_2.thisN'
p1655
I109
sg40
g41
sa(dp1656
g56
g789
sg38
g39
sS'trials_2.thisRepN'
p1657
I0
sS'trials_2.thisTrialN'
p1658
I110
sg55
Vright_schema_4_WHI.jpg
p1659
sg58
g774
sg32
g36
sg57
g33
(g775
S'\x04\x00\x00\x00\x00\x00\x00\x00'
tRp1660
sg26
F1.334118120605126
sg37
g12
sS'trials_2.thisIndex'
p1661
g33
(g66
S'n\x00\x00\x00'
tRp1662
sg30
g31
sg25
S'a'
sS'trials_2.thisN'
p1663
I110
sg40
g41
sa(dp1664
g56
g798
sg38
g39
sS'trials_2.thisRepN'
p1665
I0
sS'trials_2.thisTrialN'
p1666
I111
sg55
Vahead_schema_20_WHI.jpg
p1667
sg58
g774
sg32
g36
sg57
g33
(g775
S'\x14\x00\x00\x00\x00\x00\x00\x00'
tRp1668
sg26
F1.750393025809899
sg37
g12
sS'trials_2.thisIndex'
p1669
g33
(g66
S'o\x00\x00\x00'
tRp1670
sg30
g31
sg25
S'a'
sS'trials_2.thisN'
p1671
I111
sg40
g41
sa(dp1672
g56
g798
sg38
g39
sS'trials_2.thisRepN'
p1673
I0
sS'trials_2.thisTrialN'
p1674
I112
sg55
Vahead_schema_2_WHI.jpg
p1675
sg58
g774
sg32
g36
sg57
g33
(g775
S'\x02\x00\x00\x00\x00\x00\x00\x00'
tRp1676
sg26
F2.1502427321975119
sg37
g12
sS'trials_2.thisIndex'
p1677
g33
(g66
S'p\x00\x00\x00'
tRp1678
sg30
g31
sg25
S'f'
sS'trials_2.thisN'
p1679
I112
sg40
g41
sa(dp1680
g56
g770
sg38
g39
sS'trials_2.thisRepN'
p1681
I0
sS'trials_2.thisTrialN'
p1682
I113
sg55
Vleft_schema_17_WHI.jpg
p1683
sg58
g774
sg32
g36
sg57
g33
(g775
S'\x11\x00\x00\x00\x00\x00\x00\x00'
tRp1684
sg26
F1.5174245531088673
sg37
g12
sS'trials_2.thisIndex'
p1685
g33
(g66
S'q\x00\x00\x00'
tRp1686
sg30
g31
sg25
S'a'
sS'trials_2.thisN'
p1687
I113
sg40
g41
sa(dp1688
g56
g789
sg38
g39
sS'trials_2.thisRepN'
p1689
I0
sS'trials_2.thisTrialN'
p1690
I114
sg55
Vright_schema_10_WHI.jpg
p1691
sg58
g774
sg32
g36
sg57
g33
(g775
S'\n\x00\x00\x00\x00\x00\x00\x00'
tRp1692
sg26
F1.5522040458890842
sg37
g12
sS'trials_2.thisIndex'
p1693
g33
(g66
S'r\x00\x00\x00'
tRp1694
sg30
g31
sg25
S'a'
sS'trials_2.thisN'
p1695
I114
sg40
g41
sa(dp1696
g56
g770
sg38
g39
sS'trials_2.thisRepN'
p1697
I0
sS'trials_2.thisTrialN'
p1698
I115
sg55
Vleft_schema_8_WHI.jpg
p1699
sg58
g774
sg32
g36
sg57
g33
(g775
S'\x08\x00\x00\x00\x00\x00\x00\x00'
tRp1700
sg26
F2.3169396688026609
sg37
g12
sS'trials_2.thisIndex'
p1701
g33
(g66
S's\x00\x00\x00'
tRp1702
sg30
g31
sg25
S'a'
sS'trials_2.thisN'
p1703
I115
sg40
g41
sa(dp1704
g56
g789
sg38
g39
sS'trials_2.thisRepN'
p1705
I0
sS'trials_2.thisTrialN'
p1706
I116
sg55
Vright_schema_11_WHI.jpg
p1707
sg58
g774
sg32
g36
sg57
g33
(g775
S'\x0b\x00\x00\x00\x00\x00\x00\x00'
tRp1708
sg26
F3.1499022511561634
sg37
g12
sS'trials_2.thisIndex'
p1709
g33
(g66
S't\x00\x00\x00'
tRp1710
sg30
g31
sg25
S'a'
sS'trials_2.thisN'
p1711
I116
sg40
g41
sa(dp1712
g56
g798
sg38
g39
sS'trials_2.thisRepN'
p1713
I0
sS'trials_2.thisTrialN'
p1714
I117
sg55
Vahead_schema_9_WHI.jpg
p1715
sg58
g774
sg32
g36
sg57
g33
(g775
S'\t\x00\x00\x00\x00\x00\x00\x00'
tRp1716
sg26
F2.254282229783712
sg37
g12
sS'trials_2.thisIndex'
p1717
g33
(g66
S'u\x00\x00\x00'
tRp1718
sg30
g31
sg25
S'a'
sS'trials_2.thisN'
p1719
I117
sg40
g41
sa(dp1720
g56
g770
sg38
g39
sS'trials_2.thisRepN'
p1721
I0
sS'trials_2.thisTrialN'
p1722
I118
sg55
Vleft_schema_16_WHI.jpg
p1723
sg58
g774
sg32
g36
sg57
g33
(g775
S'\x10\x00\x00\x00\x00\x00\x00\x00'
tRp1724
sg26
F1.9175915360829094
sg37
g12
sS'trials_2.thisIndex'
p1725
g33
(g66
S'v\x00\x00\x00'
tRp1726
sg30
g31
sg25
S'a'
sS'trials_2.thisN'
p1727
I118
sg40
g41
sa(dp1728
g56
g770
sg38
g39
sS'trials_2.thisRepN'
p1729
I0
sS'trials_2.thisTrialN'
p1730
I119
sg55
Vleft_schema_2_WHI.jpg
p1731
sg58
g774
sg32
g36
sg57
g33
(g775
S'\x02\x00\x00\x00\x00\x00\x00\x00'
tRp1732
sg26
F1.8503516593627864
sg37
g12
sS'trials_2.thisIndex'
p1733
g33
(g66
S'w\x00\x00\x00'
tRp1734
sg30
g31
sg25
S'f'
sS'trials_2.thisN'
p1735
I119
sg40
g41
sa(dp1736
g56
g798
sg38
g39
sS'trials_2.thisRepN'
p1737
I0
sS'trials_2.thisTrialN'
p1738
I120
sg55
Vahead_schema_11_WHI.jpg
p1739
sg58
g774
sg32
g36
sg57
g33
(g775
S'\x0b\x00\x00\x00\x00\x00\x00\x00'
tRp1740
sg26
F2.1507224401138956
sg37
g12
sS'trials_2.thisIndex'
p1741
g33
(g66
S'x\x00\x00\x00'
tRp1742
sg30
g31
sg25
S'a'
sS'trials_2.thisN'
p1743
I120
sg40
g41
sa(dp1744
g56
g789
sg38
g39
sS'trials_2.thisRepN'
p1745
I0
sS'trials_2.thisTrialN'
p1746
I121
sg55
Vright_schema_21_WHI.jpg
p1747
sg58
g774
sg32
g36
sg57
g33
(g775
S'\x15\x00\x00\x00\x00\x00\x00\x00'
tRp1748
sg26
F2.433624266894185
sg37
g12
sS'trials_2.thisIndex'
p1749
g33
(g66
S'y\x00\x00\x00'
tRp1750
sg30
g31
sg25
S'a'
sS'trials_2.thisN'
p1751
I121
sg40
g41
sa(dp1752
g56
g770
sg38
g39
sS'trials_2.thisRepN'
p1753
I0
sS'trials_2.thisTrialN'
p1754
I122
sg55
Vleft_schema_13_WHI.jpg
p1755
sg58
g774
sg32
g36
sg57
g33
(g775
S'\r\x00\x00\x00\x00\x00\x00\x00'
tRp1756
sg26
F2.0170231602969579
sg37
g12
sS'trials_2.thisIndex'
p1757
g33
(g66
S'z\x00\x00\x00'
tRp1758
sg30
g31
sg25
S'a'
sS'trials_2.thisN'
p1759
I122
sg40
g41
sa(dp1760
g56
g789
sg38
g39
sS'trials_2.thisRepN'
p1761
I0
sS'trials_2.thisTrialN'
p1762
I123
sg55
Vright_schema_16_WHI.jpg
p1763
sg58
g774
sg32
g36
sg57
g33
(g775
S'\x10\x00\x00\x00\x00\x00\x00\x00'
tRp1764
sg26
F2.5338363647169899
sg37
g12
sS'trials_2.thisIndex'
p1765
g33
(g66
S'{\x00\x00\x00'
tRp1766
sg30
g31
sg25
S'a'
sS'trials_2.thisN'
p1767
I123
sg40
g41
sa(dp1768
g56
g770
sg38
g39
sS'trials_2.thisRepN'
p1769
I0
sS'trials_2.thisTrialN'
p1770
I124
sg55
Vleft_schema_7_WHI.jpg
p1771
sg58
g774
sg32
g36
sg57
g33
(g775
S'\x07\x00\x00\x00\x00\x00\x00\x00'
tRp1772
sg26
F7.3476423137180973
sg37
g12
sS'trials_2.thisIndex'
p1773
g33
(g66
S'|\x00\x00\x00'
tRp1774
sg30
g31
sg25
S'a'
sS'trials_2.thisN'
p1775
I124
sg40
g41
sa(dp1776
g56
g770
sg38
g39
sS'trials_2.thisRepN'
p1777
I0
sS'trials_2.thisTrialN'
p1778
I125
sg55
Vleft_schema_5_WHI.jpg
p1779
sg58
g774
sg32
g36
sg57
g33
(g775
S'\x05\x00\x00\x00\x00\x00\x00\x00'
tRp1780
sg26
F1.451104376843432
sg37
g12
sS'trials_2.thisIndex'
p1781
g33
(g66
S'}\x00\x00\x00'
tRp1782
sg30
g31
sg25
S'f'
sS'trials_2.thisN'
p1783
I125
sg40
g41
sa(dp1784
g56
g789
sg38
g39
sS'trials_2.thisRepN'
p1785
I0
sS'trials_2.thisTrialN'
p1786
I126
sg55
Vright_word_19_WHI.jpg
p1787
sg58
g1115
sg32
g36
sg57
g33
(g775
S'\x13\x00\x00\x00\x00\x00\x00\x00'
tRp1788
sg26
F2.4154895229585236
sg37
g12
sS'trials_2.thisIndex'
p1789
g33
(g66
S'~\x00\x00\x00'
tRp1790
sg30
g31
sg25
S'f'
sS'trials_2.thisN'
p1791
I126
sg40
g41
sa(dp1792
g56
g789
sg38
g39
sS'trials_2.thisRepN'
p1793
I0
sS'trials_2.thisTrialN'
p1794
I127
sg55
Vright_word_17_WHI.jpg
p1795
sg58
g1115
sg32
g36
sg57
g33
(g775
S'\x11\x00\x00\x00\x00\x00\x00\x00'
tRp1796
sg26
F1.5341085710679181
sg37
g12
sS'trials_2.thisIndex'
p1797
g33
(g66
S'\x7f\x00\x00\x00'
tRp1798
sg30
g31
sg25
S'f'
sS'trials_2.thisN'
p1799
I127
sg40
g41
sa(dp1800
g56
g789
sg38
g39
sS'trials_2.thisRepN'
p1801
I0
sS'trials_2.thisTrialN'
p1802
I128
sg55
Vright_word_6_WHI.jpg
p1803
sg58
g1115
sg32
g36
sg57
g33
(g775
S'\x06\x00\x00\x00\x00\x00\x00\x00'
tRp1804
sg26
F1.2178253211750416
sg37
g12
sS'trials_2.thisIndex'
p1805
g33
(g66
S'\x80\x00\x00\x00'
tRp1806
sg30
g31
sg25
S'f'
sS'trials_2.thisN'
p1807
I128
sg40
g41
sa(dp1808
g56
g798
sg38
g39
sS'trials_2.thisRepN'
p1809
I0
sS'trials_2.thisTrialN'
p1810
I129
sg55
Vahead_word_21_WHI.jpg
p1811
sg58
g1115
sg32
g36
sg57
g33
(g775
S'\x15\x00\x00\x00\x00\x00\x00\x00'
tRp1812
sg26
F1.3839479470043443
sg37
g12
sS'trials_2.thisIndex'
p1813
g33
(g66
S'\x81\x00\x00\x00'
tRp1814
sg30
g31
sg25
S'a'
sS'trials_2.thisN'
p1815
I129
sg40
g41
sa(dp1816
g56
g798
sg38
g39
sS'trials_2.thisRepN'
p1817
I0
sS'trials_2.thisTrialN'
p1818
I130
sg55
Vahead_word_18_WHI.jpg
p1819
sg58
g1115
sg32
g36
sg57
g33
(g775
S'\x12\x00\x00\x00\x00\x00\x00\x00'
tRp1820
sg26
F1.3511354797665263
sg37
g12
sS'trials_2.thisIndex'
p1821
g33
(g66
S'\x82\x00\x00\x00'
tRp1822
sg30
g31
sg25
S'f'
sS'trials_2.thisN'
p1823
I130
sg40
g41
sa(dp1824
g56
g798
sg38
g39
sS'trials_2.thisRepN'
p1825
I0
sS'trials_2.thisTrialN'
p1826
I131
sg55
Vahead_word_8_WHI.jpg
p1827
sg58
g1115
sg32
g36
sg57
g33
(g775
S'\x08\x00\x00\x00\x00\x00\x00\x00'
tRp1828
sg26
F1.2676948629377875
sg37
g12
sS'trials_2.thisIndex'
p1829
g33
(g66
S'\x83\x00\x00\x00'
tRp1830
sg30
g31
sg25
S'f'
sS'trials_2.thisN'
p1831
I131
sg40
g41
sa(dp1832
g56
g770
sg38
g39
sS'trials_2.thisRepN'
p1833
I0
sS'trials_2.thisTrialN'
p1834
I132
sg55
Vleft_word_4_WHI.jpg
p1835
sg58
g1115
sg32
g36
sg57
g33
(g775
S'\x04\x00\x00\x00\x00\x00\x00\x00'
tRp1836
sg26
F1.3676936580886832
sg37
g12
sS'trials_2.thisIndex'
p1837
g33
(g66
S'\x84\x00\x00\x00'
tRp1838
sg30
g31
sg25
S'a'
sS'trials_2.thisN'
p1839
I132
sg40
g41
sa(dp1840
g56
g770
sg38
g39
sS'trials_2.thisRepN'
p1841
I0
sS'trials_2.thisTrialN'
p1842
I133
sg55
Vleft_word_18_WHI.jpg
p1843
sg58
g1115
sg32
g36
sg57
g33
(g775
S'\x12\x00\x00\x00\x00\x00\x00\x00'
tRp1844
sg26
F1.2340095504332567
sg37
g12
sS'trials_2.thisIndex'
p1845
g33
(g66
S'\x85\x00\x00\x00'
tRp1846
sg30
g31
sg25
S'f'
sS'trials_2.thisN'
p1847
I133
sg40
g41
sa(dp1848
g56
g770
sg38
g39
sS'trials_2.thisRepN'
p1849
I0
sS'trials_2.thisTrialN'
p1850
I134
sg55
Vleft_word_19_WHI.jpg
p1851
sg58
g1115
sg32
g36
sg57
g33
(g775
S'\x13\x00\x00\x00\x00\x00\x00\x00'
tRp1852
sg26
F1.3842580837517744
sg37
g12
sS'trials_2.thisIndex'
p1853
g33
(g66
S'\x86\x00\x00\x00'
tRp1854
sg30
g31
sg25
S'f'
sS'trials_2.thisN'
p1855
I134
sg40
g41
sa(dp1856
g56
g798
sg38
g39
sS'trials_2.thisRepN'
p1857
I0
sS'trials_2.thisTrialN'
p1858
I135
sg55
Vahead_word_15_WHI.jpg
p1859
sg58
g1115
sg32
g36
sg57
g33
(g775
S'\x0f\x00\x00\x00\x00\x00\x00\x00'
tRp1860
sg26
F1.250772999090259
sg37
g12
sS'trials_2.thisIndex'
p1861
g33
(g66
S'\x87\x00\x00\x00'
tRp1862
sg30
g31
sg25
S'a'
sS'trials_2.thisN'
p1863
I135
sg40
g41
sa(dp1864
g56
g789
sg38
g39
sS'trials_2.thisRepN'
p1865
I0
sS'trials_2.thisTrialN'
p1866
I136
sg55
Vright_word_8_WHI.jpg
p1867
sg58
g1115
sg32
g36
sg57
g33
(g775
S'\x08\x00\x00\x00\x00\x00\x00\x00'
tRp1868
sg26
F1.5503691073390655
sg37
g12
sS'trials_2.thisIndex'
p1869
g33
(g66
S'\x88\x00\x00\x00'
tRp1870
sg30
g31
sg25
S'a'
sS'trials_2.thisN'
p1871
I136
sg40
g41
sa(dp1872
g56
g770
sg38
g39
sS'trials_2.thisRepN'
p1873
I0
sS'trials_2.thisTrialN'
p1874
I137
sg55
Vleft_word_13_WHI.jpg
p1875
sg58
g1115
sg32
g36
sg57
g33
(g775
S'\r\x00\x00\x00\x00\x00\x00\x00'
tRp1876
sg26
F1.5341420390468556
sg37
g12
sS'trials_2.thisIndex'
p1877
g33
(g66
S'\x89\x00\x00\x00'
tRp1878
sg30
g31
sg25
S'a'
sS'trials_2.thisN'
p1879
I137
sg40
g41
sa(dp1880
g56
g770
sg38
g39
sS'trials_2.thisRepN'
p1881
I0
sS'trials_2.thisTrialN'
p1882
I138
sg55
Vleft_word_14_WHI.jpg
p1883
sg58
g1115
sg32
g36
sg57
g33
(g775
S'\x0e\x00\x00\x00\x00\x00\x00\x00'
tRp1884
sg26
F1.7343814914056566
sg37
g12
sS'trials_2.thisIndex'
p1885
g33
(g66
S'\x8a\x00\x00\x00'
tRp1886
sg30
g31
sg25
S'f'
sS'trials_2.thisN'
p1887
I138
sg40
g41
sa(dp1888
g56
g798
sg38
g39
sS'trials_2.thisRepN'
p1889
I0
sS'trials_2.thisTrialN'
p1890
I139
sg55
Vahead_word_5_WHI.jpg
p1891
sg58
g1115
sg32
g36
sg57
g33
(g775
S'\x05\x00\x00\x00\x00\x00\x00\x00'
tRp1892
sg26
F1.6504102952894755
sg37
g12
sS'trials_2.thisIndex'
p1893
g33
(g66
S'\x8b\x00\x00\x00'
tRp1894
sg30
g31
sg25
S'a'
sS'trials_2.thisN'
p1895
I139
sg40
g41
sa(dp1896
g56
g789
sg38
g39
sS'trials_2.thisRepN'
p1897
I0
sS'trials_2.thisTrialN'
p1898
I140
sg55
Vright_word_12_WHI.jpg
p1899
sg58
g1115
sg32
g36
sg57
g33
(g775
S'\x0c\x00\x00\x00\x00\x00\x00\x00'
tRp1900
sg26
F1.7670850760914618
sg37
g12
sS'trials_2.thisIndex'
p1901
g33
(g66
S'\x8c\x00\x00\x00'
tRp1902
sg30
g31
sg25
S'a'
sS'trials_2.thisN'
p1903
I140
sg40
g41
sa(dp1904
g56
g798
sg38
g39
sS'trials_2.thisRepN'
p1905
I0
sS'trials_2.thisTrialN'
p1906
I141
sg55
Vahead_word_13_WHI.jpg
p1907
sg58
g1115
sg32
g36
sg57
g33
(g775
S'\r\x00\x00\x00\x00\x00\x00\x00'
tRp1908
sg26
F1.6503745960944798
sg37
g12
sS'trials_2.thisIndex'
p1909
g33
(g66
S'\x8d\x00\x00\x00'
tRp1910
sg30
g31
sg25
S'a'
sS'trials_2.thisN'
p1911
I141
sg40
g41
sa(dp1912
g56
g770
sg38
g39
sS'trials_2.thisRepN'
p1913
I0
sS'trials_2.thisTrialN'
p1914
I142
sg55
Vleft_word_17_WHI.jpg
p1915
sg58
g1115
sg32
g36
sg57
g33
(g775
S'\x11\x00\x00\x00\x00\x00\x00\x00'
tRp1916
sg26
F1.5674989189719781
sg37
g12
sS'trials_2.thisIndex'
p1917
g33
(g66
S'\x8e\x00\x00\x00'
tRp1918
sg30
g31
sg25
S'a'
sS'trials_2.thisN'
p1919
I142
sg40
g41
sa(dp1920
g56
g770
sg38
g39
sS'trials_2.thisRepN'
p1921
I0
sS'trials_2.thisTrialN'
p1922
I143
sg55
Vleft_word_9_WHI.jpg
p1923
sg58
g1115
sg32
g36
sg57
g33
(g775
S'\t\x00\x00\x00\x00\x00\x00\x00'
tRp1924
sg26
F1.4344087566569215
sg37
g12
sS'trials_2.thisIndex'
p1925
g33
(g66
S'\x8f\x00\x00\x00'
tRp1926
sg30
g31
sg25
S'f'
sS'trials_2.thisN'
p1927
I143
sg40
g41
sa(dp1928
g56
g789
sg38
g39
sS'trials_2.thisRepN'
p1929
I0
sS'trials_2.thisTrialN'
p1930
I144
sg55
Vright_word_15_WHI.jpg
p1931
sg58
g1115
sg32
g36
sg57
g33
(g775
S'\x0f\x00\x00\x00\x00\x00\x00\x00'
tRp1932
sg26
F1.4008582085953094
sg37
g12
sS'trials_2.thisIndex'
p1933
g33
(g66
S'\x90\x00\x00\x00'
tRp1934
sg30
g31
sg25
S'a'
sS'trials_2.thisN'
p1935
I144
sg40
g41
sa(dp1936
g56
g798
sg38
g39
sS'trials_2.thisRepN'
p1937
I0
sS'trials_2.thisTrialN'
p1938
I145
sg55
Vahead_word_12_WHI.jpg
p1939
sg58
g1115
sg32
g36
sg57
g33
(g775
S'\x0c\x00\x00\x00\x00\x00\x00\x00'
tRp1940
sg26
F1.9534540531312814
sg37
g12
sS'trials_2.thisIndex'
p1941
g33
(g66
S'\x91\x00\x00\x00'
tRp1942
sg30
g31
sg25
S'a'
sS'trials_2.thisN'
p1943
I145
sg40
g41
sa(dp1944
g56
g789
sg38
g39
sS'trials_2.thisRepN'
p1945
I0
sS'trials_2.thisTrialN'
p1946
I146
sg55
Vright_word_1_WHI.jpg
p1947
sg58
g1115
sg32
g36
sg57
g33
(g775
S'\x01\x00\x00\x00\x00\x00\x00\x00'
tRp1948
sg26
F1.8676117730647093
sg37
g12
sS'trials_2.thisIndex'
p1949
g33
(g66
S'\x92\x00\x00\x00'
tRp1950
sg30
g31
sg25
S'a'
sS'trials_2.thisN'
p1951
I146
sg40
g41
sa(dp1952
g56
g789
sg38
g39
sS'trials_2.thisRepN'
p1953
I0
sS'trials_2.thisTrialN'
p1954
I147
sg55
Vright_schema_18_WHI.jpg
p1955
sg58
g774
sg32
g36
sg57
g33
(g775
S'\x12\x00\x00\x00\x00\x00\x00\x00'
tRp1956
sg26
F2.4163512122322572
sg37
g12
sS'trials_2.thisIndex'
p1957
g33
(g66
S'\x93\x00\x00\x00'
tRp1958
sg30
g31
sg25
S'f'
sS'trials_2.thisN'
p1959
I147
sg40
g41
sa(dp1960
g56
g789
sg38
g39
sS'trials_2.thisRepN'
p1961
I0
sS'trials_2.thisTrialN'
p1962
I148
sg55
Vright_schema_3_WHI.jpg
p1963
sg58
g774
sg32
g36
sg57
g33
(g775
S'\x03\x00\x00\x00\x00\x00\x00\x00'
tRp1964
sg26
F1.8000488186517032
sg37
g12
sS'trials_2.thisIndex'
p1965
g33
(g66
S'\x94\x00\x00\x00'
tRp1966
sg30
g31
sg25
S'f'
sS'trials_2.thisN'
p1967
I148
sg40
g41
sa(dp1968
g56
g770
sg38
g39
sS'trials_2.thisRepN'
p1969
I0
sS'trials_2.thisTrialN'
p1970
I149
sg55
Vleft_schema_9_WHI.jpg
p1971
sg58
g774
sg32
g36
sg57
g33
(g775
S'\t\x00\x00\x00\x00\x00\x00\x00'
tRp1972
sg26
F1.5003433816164033
sg37
g12
sS'trials_2.thisIndex'
p1973
g33
(g66
S'\x95\x00\x00\x00'
tRp1974
sg30
g31
sg25
S'a'
sS'trials_2.thisN'
p1975
I149
sg40
g41
sa(dp1976
g56
g798
sg38
g39
sS'trials_2.thisRepN'
p1977
I0
sS'trials_2.thisTrialN'
p1978
I150
sg55
Vahead_schema_8_WHI.jpg
p1979
sg58
g774
sg32
g36
sg57
g33
(g775
S'\x08\x00\x00\x00\x00\x00\x00\x00'
tRp1980
sg26
F1.7337522931047715
sg37
g12
sS'trials_2.thisIndex'
p1981
g33
(g66
S'\x96\x00\x00\x00'
tRp1982
sg30
g31
sg25
S'a'
sS'trials_2.thisN'
p1983
I150
sg40
g41
sa(dp1984
g56
g798
sg38
g39
sS'trials_2.thisRepN'
p1985
I0
sS'trials_2.thisTrialN'
p1986
I151
sg55
Vahead_schema_15_WHI.jpg
p1987
sg58
g774
sg32
g36
sg57
g33
(g775
S'\x0f\x00\x00\x00\x00\x00\x00\x00'
tRp1988
sg26
F1.6510229826963041
sg37
g12
sS'trials_2.thisIndex'
p1989
g33
(g66
S'\x97\x00\x00\x00'
tRp1990
sg30
g31
sg25
S'f'
sS'trials_2.thisN'
p1991
I151
sg40
g41
sa(dp1992
g56
g789
sg38
g39
sS'trials_2.thisRepN'
p1993
I0
sS'trials_2.thisTrialN'
p1994
I152
sg55
Vright_schema_15_WHI.jpg
p1995
sg58
g774
sg32
g36
sg57
g33
(g775
S'\x0f\x00\x00\x00\x00\x00\x00\x00'
tRp1996
sg26
F1.5843908847455168
sg37
g12
sS'trials_2.thisIndex'
p1997
g33
(g66
S'\x98\x00\x00\x00'
tRp1998
sg30
g31
sg25
S'a'
sS'trials_2.thisN'
p1999
I152
sg40
g41
sa(dp2000
g56
g798
sg38
g39
sS'trials_2.thisRepN'
p2001
I0
sS'trials_2.thisTrialN'
p2002
I153
sg55
Vahead_schema_14_WHI.jpg
p2003
sg58
g774
sg32
g36
sg57
g33
(g775
S'\x0e\x00\x00\x00\x00\x00\x00\x00'
tRp2004
sg26
F1.7000268190167844
sg37
g12
sS'trials_2.thisIndex'
p2005
g33
(g66
S'\x99\x00\x00\x00'
tRp2006
sg30
g31
sg25
S'a'
sS'trials_2.thisN'
p2007
I153
sg40
g41
sa(dp2008
g56
g770
sg38
g39
sS'trials_2.thisRepN'
p2009
I0
sS'trials_2.thisTrialN'
p2010
I154
sg55
Vleft_schema_6_WHI.jpg
p2011
sg58
g774
sg32
g36
sg57
g33
(g775
S'\x06\x00\x00\x00\x00\x00\x00\x00'
tRp2012
sg26
F2.4830930852040183
sg37
g12
sS'trials_2.thisIndex'
p2013
g33
(g66
S'\x9a\x00\x00\x00'
tRp2014
sg30
g31
sg25
S'a'
sS'trials_2.thisN'
p2015
I154
sg40
g41
sa(dp2016
g56
g789
sg38
g39
sS'trials_2.thisRepN'
p2017
I0
sS'trials_2.thisTrialN'
p2018
I155
sg55
Vright_schema_14_WHI.jpg
p2019
sg58
g774
sg32
g36
sg57
g33
(g775
S'\x0e\x00\x00\x00\x00\x00\x00\x00'
tRp2020
sg26
F1.7841573227779008
sg37
g12
sS'trials_2.thisIndex'
p2021
g33
(g66
S'\x9b\x00\x00\x00'
tRp2022
sg30
g31
sg25
S'a'
sS'trials_2.thisN'
p2023
I155
sg40
g41
sa(dp2024
g56
g789
sg38
g39
sS'trials_2.thisRepN'
p2025
I0
sS'trials_2.thisTrialN'
p2026
I156
sg55
Vright_schema_20_WHI.jpg
p2027
sg58
g774
sg32
g36
sg57
g33
(g775
S'\x14\x00\x00\x00\x00\x00\x00\x00'
tRp2028
sg26
F1.5670165336341597
sg37
g12
sS'trials_2.thisIndex'
p2029
g33
(g66
S'\x9c\x00\x00\x00'
tRp2030
sg30
g31
sg25
S'f'
sS'trials_2.thisN'
p2031
I156
sg40
g41
sa(dp2032
g56
g789
sg38
g39
sS'trials_2.thisRepN'
p2033
I0
sS'trials_2.thisTrialN'
p2034
I157
sg55
Vright_schema_12_WHI.jpg
p2035
sg58
g774
sg32
g36
sg57
g33
(g775
S'\x0c\x00\x00\x00\x00\x00\x00\x00'
tRp2036
sg26
F1.4840502698207274
sg37
g12
sS'trials_2.thisIndex'
p2037
g33
(g66
S'\x9d\x00\x00\x00'
tRp2038
sg30
g31
sg25
S'f'
sS'trials_2.thisN'
p2039
I157
sg40
g41
sa(dp2040
g56
g770
sg38
g39
sS'trials_2.thisRepN'
p2041
I0
sS'trials_2.thisTrialN'
p2042
I158
sg55
Vleft_schema_15_WHI.jpg
p2043
sg58
g774
sg32
g36
sg57
g33
(g775
S'\x0f\x00\x00\x00\x00\x00\x00\x00'
tRp2044
sg26
F1.3340444909990765
sg37
g12
sS'trials_2.thisIndex'
p2045
g33
(g66
S'\x9e\x00\x00\x00'
tRp2046
sg30
g31
sg25
S'a'
sS'trials_2.thisN'
p2047
I158
sg40
g41
sa(dp2048
g56
g789
sg38
g39
sS'trials_2.thisRepN'
p2049
I0
sS'trials_2.thisTrialN'
p2050
I159
sg55
Vright_schema_2_WHI.jpg
p2051
sg58
g774
sg32
g36
sg57
g33
(g775
S'\x02\x00\x00\x00\x00\x00\x00\x00'
tRp2052
sg26
F1.6169351617863867
sg37
g12
sS'trials_2.thisIndex'
p2053
g33
(g66
S'\x9f\x00\x00\x00'
tRp2054
sg30
g31
sg25
S'a'
sS'trials_2.thisN'
p2055
I159
sg40
g41
sa(dp2056
g56
g798
sg38
g39
sS'trials_2.thisRepN'
p2057
I0
sS'trials_2.thisTrialN'
p2058
I160
sg55
Vahead_schema_3_WHI.jpg
p2059
sg58
g774
sg32
g36
sg57
g33
(g775
S'\x03\x00\x00\x00\x00\x00\x00\x00'
tRp2060
sg26
F1.6338913860963657
sg37
g12
sS'trials_2.thisIndex'
p2061
g33
(g66
S'\xa0\x00\x00\x00'
tRp2062
sg30
g31
sg25
S'a'
sS'trials_2.thisN'
p2063
I160
sg40
g41
sa(dp2064
g56
g798
sg38
g39
sS'trials_2.thisRepN'
p2065
I0
sS'trials_2.thisTrialN'
p2066
I161
sg55
Vahead_schema_21_WHI.jpg
p2067
sg58
g774
sg32
g36
sg57
g33
(g775
S'\x15\x00\x00\x00\x00\x00\x00\x00'
tRp2068
sg26
F1.4843715625611367
sg37
g12
sS'trials_2.thisIndex'
p2069
g33
(g66
S'\xa1\x00\x00\x00'
tRp2070
sg30
g31
sg25
S'f'
sS'trials_2.thisN'
p2071
I161
sg40
g41
sa(dp2072
g56
g770
sg38
g39
sS'trials_2.thisRepN'
p2073
I0
sS'trials_2.thisTrialN'
p2074
I162
sg55
Vleft_schema_21_WHI.jpg
p2075
sg58
g774
sg32
g36
sg57
g33
(g775
S'\x15\x00\x00\x00\x00\x00\x00\x00'
tRp2076
sg26
F1.4839480808732333
sg37
g12
sS'trials_2.thisIndex'
p2077
g33
(g66
S'\xa2\x00\x00\x00'
tRp2078
sg30
g31
sg25
S'a'
sS'trials_2.thisN'
p2079
I162
sg40
g41
sa(dp2080
g56
g770
sg38
g39
sS'trials_2.thisRepN'
p2081
I0
sS'trials_2.thisTrialN'
p2082
I163
sg55
Vleft_schema_19_WHI.jpg
p2083
sg58
g774
sg32
g36
sg57
g33
(g775
S'\x13\x00\x00\x00\x00\x00\x00\x00'
tRp2084
sg26
F2.2340474808297586
sg37
g12
sS'trials_2.thisIndex'
p2085
g33
(g66
S'\xa3\x00\x00\x00'
tRp2086
sg30
g31
sg25
S'f'
sS'trials_2.thisN'
p2087
I163
sg40
g41
sa(dp2088
g56
g798
sg38
g39
sS'trials_2.thisRepN'
p2089
I0
sS'trials_2.thisTrialN'
p2090
I164
sg55
Vahead_schema_17_WHI.jpg
p2091
sg58
g774
sg32
g36
sg57
g33
(g775
S'\x11\x00\x00\x00\x00\x00\x00\x00'
tRp2092
sg26
F1.5167480533855269
sg37
g12
sS'trials_2.thisIndex'
p2093
g33
(g66
S'\xa4\x00\x00\x00'
tRp2094
sg30
g31
sg25
S'a'
sS'trials_2.thisN'
p2095
I164
sg40
g41
sa(dp2096
g56
g798
sg38
g39
sS'trials_2.thisRepN'
p2097
I0
sS'trials_2.thisTrialN'
p2098
I165
sg55
Vahead_schema_19_WHI.jpg
p2099
sg58
g774
sg32
g36
sg57
g33
(g775
S'\x13\x00\x00\x00\x00\x00\x00\x00'
tRp2100
sg26
F1.4009407629928319
sg37
g12
sS'trials_2.thisIndex'
p2101
g33
(g66
S'\xa5\x00\x00\x00'
tRp2102
sg30
g31
sg25
S'f'
sS'trials_2.thisN'
p2103
I165
sg40
g41
sa(dp2104
g56
g770
sg38
g39
sS'trials_2.thisRepN'
p2105
I0
sS'trials_2.thisTrialN'
p2106
I166
sg55
Vleft_schema_14_WHI.jpg
p2107
sg58
g774
sg32
g36
sg57
g33
(g775
S'\x0e\x00\x00\x00\x00\x00\x00\x00'
tRp2108
sg26
F1.500661104437313
sg37
g12
sS'trials_2.thisIndex'
p2109
g33
(g66
S'\xa6\x00\x00\x00'
tRp2110
sg30
g31
sg25
S'a'
sS'trials_2.thisN'
p2111
I166
sg40
g41
sa(dp2112
g56
g770
sg38
g39
sS'trials_2.thisRepN'
p2113
I0
sS'trials_2.thisTrialN'
p2114
I167
sg55
Vleft_schema_1_WHI.jpg
p2115
sg58
g774
sg32
g36
sg57
g33
(g775
S'\x01\x00\x00\x00\x00\x00\x00\x00'
tRp2116
sg26
F2.0827650096034631
sg37
g12
sS'trials_2.thisIndex'
p2117
g33
(g66
S'\xa7\x00\x00\x00'
tRp2118
sg30
g31
sg25
S'f'
sS'trials_2.thisN'
p2119
I167
sg40
g41
sa(dp2120
g56
g770
sg38
g39
sS'trials_2.thisRepN'
p2121
I0
sS'trials_2.thisTrialN'
p2122
I168
sg55
Vleft_image_4_WHI.jpg
p2123
sg58
g946
sg32
g36
sg57
g33
(g775
S'\x04\x00\x00\x00\x00\x00\x00\x00'
tRp2124
sg26
F5.8984264241880737
sg37
g12
sS'trials_2.thisIndex'
p2125
g33
(g66
S'\xa8\x00\x00\x00'
tRp2126
sg30
g31
sg25
S'f'
sS'trials_2.thisN'
p2127
I168
sg40
g41
sa(dp2128
g56
g798
sg38
g39
sS'trials_2.thisRepN'
p2129
I0
sS'trials_2.thisTrialN'
p2130
I169
sg55
Vahead_image_5_WHI.jpg
p2131
sg58
g946
sg32
g36
sg57
g33
(g775
S'\x05\x00\x00\x00\x00\x00\x00\x00'
tRp2132
sg26
F2.2330621830915334
sg37
g12
sS'trials_2.thisIndex'
p2133
g33
(g66
S'\xa9\x00\x00\x00'
tRp2134
sg30
g31
sg25
S'a'
sS'trials_2.thisN'
p2135
I169
sg40
g41
sa(dp2136
g56
g789
sg38
g39
sS'trials_2.thisRepN'
p2137
I0
sS'trials_2.thisTrialN'
p2138
I170
sg55
Vright_image_15_WHI.jpg
p2139
sg58
g946
sg32
g36
sg57
g33
(g775
S'\x0f\x00\x00\x00\x00\x00\x00\x00'
tRp2140
sg26
F5.531458352212212
sg37
g12
sS'trials_2.thisIndex'
p2141
g33
(g66
S'\xaa\x00\x00\x00'
tRp2142
sg30
g31
sg25
S'a'
sS'trials_2.thisN'
p2143
I170
sg40
g41
sa(dp2144
g56
g770
sg38
g39
sS'trials_2.thisRepN'
p2145
I0
sS'trials_2.thisTrialN'
p2146
I171
sg55
Vleft_image_18_WHI.jpg
p2147
sg58
g946
sg32
g36
sg57
g33
(g775
S'\x12\x00\x00\x00\x00\x00\x00\x00'
tRp2148
sg26
F3.9831004481529817
sg37
g12
sS'trials_2.thisIndex'
p2149
g33
(g66
S'\xab\x00\x00\x00'
tRp2150
sg30
g31
sg25
S'f'
sS'trials_2.thisN'
p2151
I171
sg40
g41
sa(dp2152
g56
g798
sg38
g39
sS'trials_2.thisRepN'
p2153
I0
sS'trials_2.thisTrialN'
p2154
I172
sg55
Vahead_image_1_WHI.jpg
p2155
sg58
g946
sg32
g36
sg57
g33
(g775
S'\x01\x00\x00\x00\x00\x00\x00\x00'
tRp2156
sg26
F1.8173839006340131
sg37
g12
sS'trials_2.thisIndex'
p2157
g33
(g66
S'\xac\x00\x00\x00'
tRp2158
sg30
g31
sg25
S'a'
sS'trials_2.thisN'
p2159
I172
sg40
g41
sa(dp2160
g56
g798
sg38
g39
sS'trials_2.thisRepN'
p2161
I0
sS'trials_2.thisTrialN'
p2162
I173
sg55
Vahead_image_14_WHI.jpg
p2163
sg58
g946
sg32
g36
sg57
g33
(g775
S'\x0e\x00\x00\x00\x00\x00\x00\x00'
tRp2164
sg26
F2.0331752602796769
sg37
g12
sS'trials_2.thisIndex'
p2165
g33
(g66
S'\xad\x00\x00\x00'
tRp2166
sg30
g31
sg25
S'f'
sS'trials_2.thisN'
p2167
I173
sg40
g41
sa(dp2168
g56
g770
sg38
g39
sS'trials_2.thisRepN'
p2169
I0
sS'trials_2.thisTrialN'
p2170
I174
sg55
Vleft_image_9_WHI.jpg
p2171
sg58
g946
sg32
g36
sg57
g33
(g775
S'\t\x00\x00\x00\x00\x00\x00\x00'
tRp2172
sg26
F2.4170049537060549
sg37
g12
sS'trials_2.thisIndex'
p2173
g33
(g66
S'\xae\x00\x00\x00'
tRp2174
sg30
g31
sg25
S'a'
sS'trials_2.thisN'
p2175
I174
sg40
g41
sa(dp2176
g56
g770
sg38
g39
sS'trials_2.thisRepN'
p2177
I0
sS'trials_2.thisTrialN'
p2178
I175
sg55
Vleft_image_14_WHI.jpg
p2179
sg58
g946
sg32
g36
sg57
g33
(g775
S'\x0e\x00\x00\x00\x00\x00\x00\x00'
tRp2180
sg26
F1.9171502048120601
sg37
g12
sS'trials_2.thisIndex'
p2181
g33
(g66
S'\xaf\x00\x00\x00'
tRp2182
sg30
g31
sg25
S'f'
sS'trials_2.thisN'
p2183
I175
sg40
g41
sa(dp2184
g56
g770
sg38
g39
sS'trials_2.thisRepN'
p2185
I0
sS'trials_2.thisTrialN'
p2186
I176
sg55
Vleft_image_3_WHI.jpg
p2187
sg58
g946
sg32
g36
sg57
g33
(g775
S'\x03\x00\x00\x00\x00\x00\x00\x00'
tRp2188
sg26
F5.9981605990615208
sg37
g12
sS'trials_2.thisIndex'
p2189
g33
(g66
S'\xb0\x00\x00\x00'
tRp2190
sg30
g31
sg25
S'a'
sS'trials_2.thisN'
p2191
I176
sg40
g41
sa(dp2192
g56
g798
sg38
g39
sS'trials_2.thisRepN'
p2193
I0
sS'trials_2.thisTrialN'
p2194
I177
sg55
Vahead_image_9_WHI.jpg
p2195
sg58
g946
sg32
g36
sg57
g33
(g775
S'\t\x00\x00\x00\x00\x00\x00\x00'
tRp2196
sg26
F2.0002958570694318
sg37
g12
sS'trials_2.thisIndex'
p2197
g33
(g66
S'\xb1\x00\x00\x00'
tRp2198
sg30
g31
sg25
S'a'
sS'trials_2.thisN'
p2199
I177
sg40
g41
sa(dp2200
g56
g789
sg38
g39
sS'trials_2.thisRepN'
p2201
I0
sS'trials_2.thisTrialN'
p2202
I178
sg55
Vright_image_4_WHI.jpg
p2203
sg58
g946
sg32
g36
sg57
g33
(g775
S'\x04\x00\x00\x00\x00\x00\x00\x00'
tRp2204
sg26
F2.5165668799745617
sg37
g12
sS'trials_2.thisIndex'
p2205
g33
(g66
S'\xb2\x00\x00\x00'
tRp2206
sg30
g31
sg25
S'a'
sS'trials_2.thisN'
p2207
I178
sg40
g41
sa(dp2208
g56
g789
sg38
g39
sS'trials_2.thisRepN'
p2209
I0
sS'trials_2.thisTrialN'
p2210
I179
sg55
Vright_image_16_WHI.jpg
p2211
sg58
g946
sg32
g36
sg57
g33
(g775
S'\x10\x00\x00\x00\x00\x00\x00\x00'
tRp2212
sg26
F5.4152896074810997
sg37
g12
sS'trials_2.thisIndex'
p2213
g33
(g66
S'\xb3\x00\x00\x00'
tRp2214
sg30
g31
sg25
S'f'
sS'trials_2.thisN'
p2215
I179
sg40
g41
sa(dp2216
g56
g770
sg38
g39
sS'trials_2.thisRepN'
p2217
I0
sS'trials_2.thisTrialN'
p2218
I180
sg55
Vleft_image_21_WHI.jpg
p2219
sg58
g946
sg32
g36
sg57
g33
(g775
S'\x15\x00\x00\x00\x00\x00\x00\x00'
tRp2220
sg26
F3.1166640710434876
sg37
g12
sS'trials_2.thisIndex'
p2221
g33
(g66
S'\xb4\x00\x00\x00'
tRp2222
sg30
g31
sg25
S'f'
sS'trials_2.thisN'
p2223
I180
sg40
g41
sa(dp2224
g56
g798
sg38
g39
sS'trials_2.thisRepN'
p2225
I0
sS'trials_2.thisTrialN'
p2226
I181
sg55
Vahead_image_12_WHI.jpg
p2227
sg58
g946
sg32
g36
sg57
g33
(g775
S'\x0c\x00\x00\x00\x00\x00\x00\x00'
tRp2228
sg26
F1.7504291712393751
sg37
g12
sS'trials_2.thisIndex'
p2229
g33
(g66
S'\xb5\x00\x00\x00'
tRp2230
sg30
g31
sg25
S'a'
sS'trials_2.thisN'
p2231
I181
sg40
g41
sa(dp2232
g56
g798
sg38
g39
sS'trials_2.thisRepN'
p2233
I0
sS'trials_2.thisTrialN'
p2234
I182
sg55
Vahead_image_21_WHI.jpg
p2235
sg58
g946
sg32
g36
sg57
g33
(g775
S'\x15\x00\x00\x00\x00\x00\x00\x00'
tRp2236
sg26
F2.1835108103841776
sg37
g12
sS'trials_2.thisIndex'
p2237
g33
(g66
S'\xb6\x00\x00\x00'
tRp2238
sg30
g31
sg25
S'f'
sS'trials_2.thisN'
p2239
I182
sg40
g41
sa(dp2240
g56
g789
sg38
g39
sS'trials_2.thisRepN'
p2241
I0
sS'trials_2.thisTrialN'
p2242
I183
sg55
Vright_image_17_WHI.jpg
p2243
sg58
g946
sg32
g36
sg57
g33
(g775
S'\x11\x00\x00\x00\x00\x00\x00\x00'
tRp2244
sg26
F2.0171797905059066
sg37
g12
sS'trials_2.thisIndex'
p2245
g33
(g66
S'\xb7\x00\x00\x00'
tRp2246
sg30
g31
sg25
S'a'
sS'trials_2.thisN'
p2247
I183
sg40
g41
sa(dp2248
g56
g789
sg38
g39
sS'trials_2.thisRepN'
p2249
I0
sS'trials_2.thisTrialN'
p2250
I184
sg55
Vright_image_12_WHI.jpg
p2251
sg58
g946
sg32
g36
sg57
g33
(g775
S'\x0c\x00\x00\x00\x00\x00\x00\x00'
tRp2252
sg26
F3.5828674216754735
sg37
g12
sS'trials_2.thisIndex'
p2253
g33
(g66
S'\xb8\x00\x00\x00'
tRp2254
sg30
g31
sg25
S'f'
sS'trials_2.thisN'
p2255
I184
sg40
g41
sa(dp2256
g56
g770
sg38
g39
sS'trials_2.thisRepN'
p2257
I0
sS'trials_2.thisTrialN'
p2258
I185
sg55
Vleft_image_2_WHI.jpg
p2259
sg58
g946
sg32
g36
sg57
g33
(g775
S'\x02\x00\x00\x00\x00\x00\x00\x00'
tRp2260
sg26
F5.3651750800054288
sg37
g12
sS'trials_2.thisIndex'
p2261
g33
(g66
S'\xb9\x00\x00\x00'
tRp2262
sg30
g31
sg25
S'f'
sS'trials_2.thisN'
p2263
I185
sg40
g41
sa(dp2264
g56
g789
sg38
g39
sS'trials_2.thisRepN'
p2265
I0
sS'trials_2.thisTrialN'
p2266
I186
sg55
Vright_image_9_WHI.jpg
p2267
sg58
g946
sg32
g36
sg57
g33
(g775
S'\t\x00\x00\x00\x00\x00\x00\x00'
tRp2268
sg26
F2.5336297556350473
sg37
g12
sS'trials_2.thisIndex'
p2269
g33
(g66
S'\xba\x00\x00\x00'
tRp2270
sg30
g31
sg25
S'f'
sS'trials_2.thisN'
p2271
I186
sg40
g41
sa(dp2272
g56
g798
sg38
g39
sS'trials_2.thisRepN'
p2273
I0
sS'trials_2.thisTrialN'
p2274
I187
sg55
Vahead_image_6_WHI.jpg
p2275
sg58
g946
sg32
g36
sg57
g33
(g775
S'\x06\x00\x00\x00\x00\x00\x00\x00'
tRp2276
sg26
F1.6170458292763215
sg37
g12
sS'trials_2.thisIndex'
p2277
g33
(g66
S'\xbb\x00\x00\x00'
tRp2278
sg30
g31
sg25
S'a'
sS'trials_2.thisN'
p2279
I187
sg40
g41
sa(dp2280
g56
g789
sg38
g39
sS'trials_2.thisRepN'
p2281
I0
sS'trials_2.thisTrialN'
p2282
I188
sg55
Vright_image_1_WHI.jpg
p2283
sg58
g946
sg32
g36
sg57
g33
(g775
S'\x01\x00\x00\x00\x00\x00\x00\x00'
tRp2284
sg26
F2.3665093373565469
sg37
g12
sS'trials_2.thisIndex'
p2285
g33
(g66
S'\xbc\x00\x00\x00'
tRp2286
sg30
g31
sg25
S'a'
sS'trials_2.thisN'
p2287
I188
sg40
g41
sasS'loops'
p2288
(lp2289
g1
(cpsychopy.data
TrialHandler
p2290
g3
NtRp2291
(dp2292
S'origin'
p2293
NsS'thisTrial'
p2294
(lp2295
sS'_exp'
p2296
I87513424
sg11
S'repeat_spatial_practice'
p2297
sg6
I-1
sS'thisRepN'
p2298
I2
sg27
I01
sg28
g29
sS'data'
p2299
g1
(cpsychopy.data
DataHandler
p2300
c__builtin__
dict
p2301
(dp2302
g22
cnumpy.ma.core
_mareconstruct
p2303
(cnumpy.ma.core
MaskedArray
p2304
cnumpy
ndarray
p2305
(I0
tp2306
S'b'
tRp2307
(I1
(I1
I2
tg34
(S'f4'
I0
I1
tRp2308
(I3
S'<'
NNNI-1
I-1
I0
tbI00
S'\xcd\x9c9@D\xea\x1e@'
S'\x00\x00'
Ntbsg18
g2303
(g2304
g2305
g2306
S'b'
tRp2309
(I1
(I1
I2
tg2308
I00
S'\xbd^\x00?\xa5\xe0\nA'
S'\x00\x00'
NtbsS'ran'
p2310
g2303
(g2304
g2305
g2306
S'b'
tRp2311
(I1
(I1
I2
tg2308
I00
S'\x00\x00\x80?\x00\x00\x80?'
S'\x00\x00'
Ntbsg17
cnumpy.core.multiarray
_reconstruct
p2312
(g2305
(I0
tS'b'
tRp2313
(I1
(I1
I2
tg34
(S'O4'
I0
I1
tRp2314
(I3
S'|'
NNNI-1
I-1
I63
tbI00
(lp2315
S'd'
aS'd'
atbsS'order'
p2316
g2303
(g2304
g2305
g2306
S'b'
tRp2317
(I1
(I1
I2
tg2308
I00
S'\x00\x00\x00\x00\x00\x00\x80?'
S'\x00\x00'
Ntbsg21
g2312
(g2305
(I0
tS'b'
tRp2318
(I1
(I1
I2
tg2314
I00
(lp2319
S'd'
aS'd'
atbstRp2320
(dp2321
S'isNumeric'
p2322
(dp2323
g22
I01
sg2310
I01
sg17
I00
sg21
I00
sg2316
I01
sg18
I01
ssS'trials'
p2324
g2291
sS'dataTypes'
p2325
(lp2326
g2310
ag2316
ag17
ag18
ag21
ag22
asS'dataShape'
p2327
(lp2328
I1
aI2
asbsS'method'
p2329
S'random'
p2330
sS'sequenceIndices'
p2331
g2312
(g2305
(I0
tS'b'
tRp2332
(I1
(I1
I2
tg66
I01
S'\x00\x00\x00\x00\x00\x00\x00\x00'
tbsS'finished'
p2333
I01
sS'nReps'
p2334
I2
sS'nRemaining'
p2335
I-1
sS'trialList'
p2336
(lp2337
NasS'seed'
p2338
NsS'thisIndex'
p2339
g418
sS'thisN'
p2340
I2
sS'thisTrialN'
p2341
I0
sS'nTotal'
p2342
I2
sS'_warnUseOfNext'
p2343
I01
sbag1
(g2290
g3
NtRp2344
(dp2345
g2293
Nsg2294
(lp2346
sg2296
I87513424
sg11
g2324
sg6
I-1
sg2298
I1
sg27
I01
sg28
g29
sg2299
g1
(g2300
g2301
(dp2347
g2310
g2303
(g2304
g2305
g2306
S'b'
tRp2348
(I1
(I9
I1
tg2308
I00
S'\x00\x00\x80?\x00\x00\x80?\x00\x00\x80?\x00\x00\x80?\x00\x00\x80?\x00\x00\x80?\x00\x00\x80?\x00\x00\x80?\x00\x00\x80?'
S'\x00\x00\x00\x00\x00\x00\x00\x00\x00'
Ntbsg19
g2312
(g2305
(I0
tS'b'
tRp2349
(I1
(I9
I1
tg2314
I00
(lp2350
S'a'
aS'f'
aS'a'
aS'f'
aS'a'
aS'f'
aS'f'
aS'f'
aS'a'
atbsg2316
g2303
(g2304
g2305
g2306
S'b'
tRp2351
(I1
(I9
I1
tg2308
I00
S'\x00\x00@@\x00\x00\x00A\x00\x00\xa0@\x00\x00\x00\x00\x00\x00\xe0@\x00\x00\xc0@\x00\x00\x00@\x00\x00\x80@\x00\x00\x80?'
S'\x00\x00\x00\x00\x00\x00\x00\x00\x00'
Ntbsg20
g2303
(g2304
g2305
g2306
S'b'
tRp2352
(I1
(I9
I1
tg2308
I00
S'\x05\x8b\x91>\xd3\xe1o>\xedn_>\xcd4\x1e?\x98\xe5^>[L=>\x9a\xc0o>\x8b\xa2N>\x067\xe7>'
S'\x00\x00\x00\x00\x00\x00\x00\x00\x00'
NtbstRp2353
(dp2354
g2322
(dp2355
g2310
I01
sg20
I01
sg2316
I01
sg19
I00
ssg2324
g2344
sg2325
(lp2356
g2310
ag2316
ag19
ag20
asg2327
(lp2357
I9
aI1
asbsg2329
g2330
sg2331
g2312
(g2305
(I0
tS'b'
tRp2358
(I1
(I9
I1
tg66
I01
S'\x03\x00\x00\x00\x08\x00\x00\x00\x06\x00\x00\x00\x00\x00\x00\x00\x07\x00\x00\x00\x02\x00\x00\x00\x05\x00\x00\x00\x04\x00\x00\x00\x01\x00\x00\x00'
tbsg2333
I01
sg2334
I1
sg2335
I-1
sg2336
(lp2359
g1
(cpsychopy.data
TrialType
p2360
g2301
(dp2361
g50
g113
sg51
g70
sg52
I2
sg53
g78
sg54
g72
stRp2362
ag1
(g2360
g2301
(dp2363
g50
g174
sg51
g118
sg52
I1
sg53
g78
sg54
g72
stRp2364
ag1
(g2360
g2301
(dp2365
g50
g138
sg51
g118
sg52
I3
sg53
g78
sg54
g72
stRp2366
ag1
(g2360
g2301
(dp2367
g50
g64
sg51
g70
sg52
I3
sg53
g78
sg54
g72
stRp2368
ag1
(g2360
g2301
(dp2369
g50
g162
sg51
g70
sg52
I1
sg53
g78
sg54
g72
stRp2370
ag1
(g2360
g2301
(dp2371
g50
g150
sg51
g81
sg52
I3
sg53
g78
sg54
g72
stRp2372
ag1
(g2360
g2301
(dp2373
g50
g101
sg51
g81
sg52
I1
sg53
g78
sg54
g72
stRp2374
ag1
(g2360
g2301
(dp2375
g50
g126
sg51
g118
sg52
I2
sg53
g78
sg54
g72
stRp2376
ag1
(g2360
g2301
(dp2377
g50
g89
sg51
g81
sg52
I2
sg53
g78
sg54
g72
stRp2378
asg2338
Nsg2339
g176
sg2340
I9
sg2341
I0
sg2342
I9
sg2343
I01
sbag1
(g2290
g3
NtRp2379
(dp2380
g2293
Nsg2294
(lp2381
sg2296
I87513424
sg11
S'trials_3'
p2382
sg6
I-1
sg2298
I1
sg27
I01
sg28
g29
sg2299
g1
(g2300
g2301
(dp2383
g2310
g2303
(g2304
g2305
g2306
S'b'
tRp2384
(I1
(I9
I1
tg2308
I00
S'\x00\x00\x80?\x00\x00\x80?\x00\x00\x80?\x00\x00\x80?\x00\x00\x80?\x00\x00\x80?\x00\x00\x80?\x00\x00\x80?\x00\x00\x80?'
S'\x00\x00\x00\x00\x00\x00\x00\x00\x00'
Ntbsg19
g2312
(g2305
(I0
tS'b'
tRp2385
(I1
(I9
I1
tg2314
I00
(lp2386
S'a'
aS'f'
aS'a'
aS'a'
aS'f'
aS'f'
aS'a'
aS'f'
aS'a'
atbsg2316
g2303
(g2304
g2305
g2306
S'b'
tRp2387
(I1
(I9
I1
tg2308
I00
S'\x00\x00\x00A\x00\x00\xa0@\x00\x00\x00\x00\x00\x00\xc0@\x00\x00\xe0@\x00\x00@@\x00\x00\x00@\x00\x00\x80?\x00\x00\x80@'
S'\x00\x00\x00\x00\x00\x00\x00\x00\x00'
Ntbsg20
g2303
(g2304
g2305
g2306
S'b'
tRp2388
(I1
(I9
I1
tg2308
I00
S'*V\x9a>\xa8\x05\xd3=\xf3L\xe6>\x0cS,>S*\x89>\x106\x1b>\xdb6,>\xc5^<>W\xec+>'
S'\x00\x00\x00\x00\x00\x00\x00\x00\x00'
NtbstRp2389
(dp2390
g2322
(dp2391
g2310
I01
sg20
I01
sg2316
I01
sg19
I00
ssg2324
g2379
sg2325
(lp2392
g2310
ag2316
ag19
ag20
asg2327
(lp2393
I9
aI1
asbsg2329
g2330
sg2331
g2312
(g2305
(I0
tS'b'
tRp2394
(I1
(I9
I1
tg66
I01
S'\x02\x00\x00\x00\x07\x00\x00\x00\x06\x00\x00\x00\x05\x00\x00\x00\x08\x00\x00\x00\x01\x00\x00\x00\x03\x00\x00\x00\x04\x00\x00\x00\x00\x00\x00\x00'
tbsg2333
I01
sg2334
I1
sg2335
I-1
sg2336
(lp2395
g1
(g2360
g2301
(dp2396
g179
g286
sg186
g187
sg193
I1
sg195
g196
sg189
g190
stRp2397
ag1
(g2360
g2301
(dp2398
g179
g250
sg186
g212
sg193
I3
sg195
g196
sg189
g190
stRp2399
ag1
(g2360
g2301
(dp2400
g179
g180
sg186
g187
sg193
I3
sg195
g196
sg189
g190
stRp2401
ag1
(g2360
g2301
(dp2402
g179
g262
sg186
g212
sg193
I2
sg195
g196
sg189
g190
stRp2403
ag1
(g2360
g2301
(dp2404
g179
g274
sg186
g199
sg193
I3
sg195
g196
sg189
g190
stRp2405
ag1
(g2360
g2301
(dp2406
g179
g226
sg186
g187
sg193
I2
sg195
g196
sg189
g190
stRp2407
ag1
(g2360
g2301
(dp2408
g179
g214
sg186
g212
sg193
I1
sg195
g196
sg189
g190
stRp2409
ag1
(g2360
g2301
(dp2410
g179
g201
sg186
g199
sg193
I2
sg195
g196
sg189
g190
stRp2411
ag1
(g2360
g2301
(dp2412
g179
g238
sg186
g199
sg193
I1
sg195
g196
sg189
g190
stRp2413
asg2338
Nsg2339
g293
sg2340
I9
sg2341
I0
sg2342
I9
sg2343
I01
sbag1
(g2290
g3
NtRp2414
(dp2415
g2293
Nsg2294
(lp2416
sg2296
I87513424
sg11
S'trials_4'
p2417
sg6
I-1
sg2298
I1
sg27
I01
sg28
g29
sg2299
g1
(g2300
g2301
(dp2418
g2310
g2303
(g2304
g2305
g2306
S'b'
tRp2419
(I1
(I9
I1
tg2308
I00
S'\x00\x00\x80?\x00\x00\x80?\x00\x00\x80?\x00\x00\x80?\x00\x00\x80?\x00\x00\x80?\x00\x00\x80?\x00\x00\x80?\x00\x00\x80?'
S'\x00\x00\x00\x00\x00\x00\x00\x00\x00'
Ntbsg19
g2312
(g2305
(I0
tS'b'
tRp2420
(I1
(I9
I1
tg2314
I00
(lp2421
S'f'
aS'a'
aS'f'
aS'f'
aS'a'
aS'f'
aS'a'
aS'a'
aS'a'
atbsg2316
g2303
(g2304
g2305
g2306
S'b'
tRp2422
(I1
(I9
I1
tg2308
I00
S'\x00\x00\x00\x00\x00\x00\x00A\x00\x00@@\x00\x00\x00@\x00\x00\x80?\x00\x00\xc0@\x00\x00\xa0@\x00\x00\x80@\x00\x00\xe0@'
S'\x00\x00\x00\x00\x00\x00\x00\x00\x00'
Ntbsg20
g2303
(g2304
g2305
g2306
S'b'
tRp2423
(I1
(I9
I1
tg2308
I00
S'O\xec>@\x19\x88(@\xca\xd6m@B\xfdo@\x0f\xf6?@\xf8\xba\n@fT5@\xae\x8dy@\x85\xa4\x82@'
S'\x00\x00\x00\x00\x00\x00\x00\x00\x00'
NtbstRp2424
(dp2425
g2322
(dp2426
g2310
I01
sg20
I01
sg2316
I01
sg19
I00
ssg2324
g2414
sg2325
(lp2427
g2310
ag2316
ag19
ag20
asg2327
(lp2428
I9
aI1
asbsg2329
g2330
sg2331
g2312
(g2305
(I0
tS'b'
tRp2429
(I1
(I9
I1
tg66
I01
S'\x00\x00\x00\x00\x04\x00\x00\x00\x03\x00\x00\x00\x02\x00\x00\x00\x07\x00\x00\x00\x06\x00\x00\x00\x05\x00\x00\x00\x08\x00\x00\x00\x01\x00\x00\x00'
tbsg2333
I01
sg2334
I1
sg2335
I-1
sg2336
(lp2430
g1
(g2360
g2301
(dp2431
g297
g298
sg300
g301
sg308
I1
sg311
g312
sg303
g304
stRp2432
ag1
(g2360
g2301
(dp2433
g297
g407
sg300
g301
sg308
I2
sg311
g312
sg303
g304
stRp2434
ag1
(g2360
g2301
(dp2435
g297
g347
sg300
g332
sg308
I3
sg311
g312
sg303
g304
stRp2436
ag1
(g2360
g2301
(dp2437
g297
g335
sg300
g332
sg308
I1
sg311
g312
sg303
g304
stRp2438
ag1
(g2360
g2301
(dp2439
g297
g322
sg300
g319
sg308
I3
sg311
g312
sg303
g304
stRp2440
ag1
(g2360
g2301
(dp2441
g297
g383
sg300
g319
sg308
I1
sg311
g312
sg303
g304
stRp2442
ag1
(g2360
g2301
(dp2443
g297
g371
sg300
g301
sg308
I3
sg311
g312
sg303
g304
stRp2444
ag1
(g2360
g2301
(dp2445
g297
g359
sg300
g319
sg308
I2
sg311
g312
sg303
g304
stRp2446
ag1
(g2360
g2301
(dp2447
g297
g395
sg300
g332
sg308
I2
sg311
g312
sg303
g304
stRp2448
asg2338
Nsg2339
g403
sg2340
I9
sg2341
I0
sg2342
I9
sg2343
I01
sbag1
(g2290
g3
NtRp2449
(dp2450
g2293
Nsg2294
(lp2451
sg2296
I87513424
sg11
g2324
sg6
I-1
sg2298
I1
sg27
I01
sg28
g29
sg2299
g1
(g2300
g2301
(dp2452
g2310
g2303
(g2304
g2305
g2306
S'b'
tRp2453
(I1
(I9
I1
tg2308
I00
S'\x00\x00\x80?\x00\x00\x80?\x00\x00\x80?\x00\x00\x80?\x00\x00\x80?\x00\x00\x80?\x00\x00\x80?\x00\x00\x80?\x00\x00\x80?'
S'\x00\x00\x00\x00\x00\x00\x00\x00\x00'
Ntbsg19
g2312
(g2305
(I0
tS'b'
tRp2454
(I1
(I9
I1
tg2314
I00
(lp2455
S'a'
aS'a'
aS'f'
aS'f'
aS'a'
aS'f'
aS'a'
aS'f'
aS'a'
atbsg2316
g2303
(g2304
g2305
g2306
S'b'
tRp2456
(I1
(I9
I1
tg2308
I00
S'\x00\x00\x80@\x00\x00\xc0@\x00\x00\x00\x00\x00\x00\x00@\x00\x00\xe0@\x00\x00\xa0@\x00\x00\x80?\x00\x00\x00A\x00\x00@@'
S'\x00\x00\x00\x00\x00\x00\x00\x00\x00'
Ntbsg20
g2303
(g2304
g2305
g2306
S'b'
tRp2457
(I1
(I9
I1
tg2308
I00
S'\xb5\xb7\xd9?J\xd2\x9b?\x91\x0cq@q\xec\xcc?\xf4b\xd5?\xfbJ\xb3?\xc2$\x12@\xac*\x91?gL\x14@'
S'\x00\x00\x00\x00\x00\x00\x00\x00\x00'
NtbstRp2458
(dp2459
g2322
(dp2460
g2310
I01
sg20
I01
sg2316
I01
sg19
I00
ssg2324
g2449
sg2325
(lp2461
g2310
ag2316
ag19
ag20
asg2327
(lp2462
I9
aI1
asbsg2329
g2330
sg2331
g2312
(g2305
(I0
tS'b'
tRp2463
(I1
(I9
I1
tg66
I01
S'\x02\x00\x00\x00\x06\x00\x00\x00\x03\x00\x00\x00\x08\x00\x00\x00\x00\x00\x00\x00\x05\x00\x00\x00\x01\x00\x00\x00\x04\x00\x00\x00\x07\x00\x00\x00'
tbsg2333
I01
sg2334
I1
sg2335
I-1
sg2336
(lp2464
g1
(g2360
g2301
(dp2465
g415
g481
sg421
g422
sg428
I1
sg432
g433
sg424
g425
stRp2466
ag1
(g2360
g2301
(dp2467
g415
g505
sg421
g436
sg428
I3
sg432
g433
sg424
g425
stRp2468
ag1
(g2360
g2301
(dp2469
g415
g416
sg421
g422
sg428
I3
sg432
g433
sg424
g425
stRp2470
ag1
(g2360
g2301
(dp2471
g415
g456
sg421
g436
sg428
I2
sg432
g433
sg424
g425
stRp2472
ag1
(g2360
g2301
(dp2473
g415
g517
sg421
g461
sg428
I3
sg432
g433
sg424
g425
stRp2474
ag1
(g2360
g2301
(dp2475
g415
g493
sg421
g422
sg428
I2
sg432
g433
sg424
g425
stRp2476
ag1
(g2360
g2301
(dp2477
g415
g444
sg421
g436
sg428
I1
sg432
g433
sg424
g425
stRp2478
ag1
(g2360
g2301
(dp2479
g415
g529
sg421
g461
sg428
I2
sg432
g433
sg424
g425
stRp2480
ag1
(g2360
g2301
(dp2481
g415
g469
sg421
g461
sg428
I1
sg432
g433
sg424
g425
stRp2482
asg2338
Nsg2339
g531
sg2340
I9
sg2341
I0
sg2342
I9
sg2343
I01
sbag1
(g2290
g3
NtRp2483
(dp2484
g2293
Nsg2294
(lp2485
sg2296
I87513424
sg11
g2382
sg6
I-1
sg2298
I1
sg27
I01
sg28
g29
sg2299
g1
(g2300
g2301
(dp2486
g2310
g2303
(g2304
g2305
g2306
S'b'
tRp2487
(I1
(I9
I1
tg2308
I00
S'\x00\x00\x80?\x00\x00\x80?\x00\x00\x80?\x00\x00\x80?\x00\x00\x80?\x00\x00\x80?\x00\x00\x80?\x00\x00\x80?\x00\x00\x80?'
S'\x00\x00\x00\x00\x00\x00\x00\x00\x00'
Ntbsg19
g2312
(g2305
(I0
tS'b'
tRp2488
(I1
(I9
I1
tg2314
I00
(lp2489
S'f'
aS'f'
aS'a'
aS'f'
aS'f'
aS'a'
aS'a'
aS'f'
aS'f'
atbsg2316
g2303
(g2304
g2305
g2306
S'b'
tRp2490
(I1
(I9
I1
tg2308
I00
S'\x00\x00\xe0@\x00\x00\x00A\x00\x00\x80@\x00\x00@@\x00\x00\xa0@\x00\x00\x80?\x00\x00\xc0@\x00\x00\x00@\x00\x00\x00\x00'
S'\x00\x00\x00\x00\x00\x00\x00\x00\x00'
Ntbsg20
g2303
(g2304
g2305
g2306
S'b'
tRp2491
(I1
(I9
I1
tg2308
I00
S'oA\xd3?\x0bjw@\xa95\x03@\x18J\xb5@&\x171@t\x07\x99@F(\x02@\xc7\xf8\xff?p\xda\x85@'
S'\x00\x00\x00\x00\x00\x00\x00\x00\x00'
NtbstRp2492
(dp2493
g2322
(dp2494
g2310
I01
sg20
I01
sg2316
I01
sg19
I00
ssg2324
g2483
sg2325
(lp2495
g2310
ag2316
ag19
ag20
asg2327
(lp2496
I9
aI1
asbsg2329
g2330
sg2331
g2312
(g2305
(I0
tS'b'
tRp2497
(I1
(I9
I1
tg66
I01
S'\x08\x00\x00\x00\x05\x00\x00\x00\x07\x00\x00\x00\x03\x00\x00\x00\x02\x00\x00\x00\x04\x00\x00\x00\x06\x00\x00\x00\x00\x00\x00\x00\x01\x00\x00\x00'
tbsg2333
I01
sg2334
I1
sg2335
I-1
sg2336
(lp2498
g1
(g2360
g2301
(dp2499
g534
g629
sg541
g615
sg548
I1
sg550
g551
sg544
g545
stRp2500
ag1
(g2360
g2301
(dp2501
g534
g641
sg541
g615
sg548
I2
sg550
g551
sg544
g545
stRp2502
ag1
(g2360
g2301
(dp2503
g534
g592
sg541
g542
sg548
I3
sg550
g551
sg544
g545
stRp2504
ag1
(g2360
g2301
(dp2505
g534
g580
sg541
g542
sg548
I1
sg550
g551
sg544
g545
stRp2506
ag1
(g2360
g2301
(dp2507
g534
g604
sg541
g554
sg548
I3
sg550
g551
sg544
g545
stRp2508
ag1
(g2360
g2301
(dp2509
g534
g556
sg541
g554
sg548
I1
sg550
g551
sg544
g545
stRp2510
ag1
(g2360
g2301
(dp2511
g534
g617
sg541
g615
sg548
I3
sg550
g551
sg544
g545
stRp2512
ag1
(g2360
g2301
(dp2513
g534
g568
sg541
g554
sg548
I2
sg550
g551
sg544
g545
stRp2514
ag1
(g2360
g2301
(dp2515
g534
g535
sg541
g542
sg548
I2
sg550
g551
sg544
g545
stRp2516
asg2338
Nsg2339
g648
sg2340
I9
sg2341
I0
sg2342
I9
sg2343
I01
sbag1
(g2290
g3
NtRp2517
(dp2518
g2293
Nsg2294
(lp2519
sg2296
I87513424
sg11
g2417
sg6
I-1
sg2298
I1
sg27
I01
sg28
g29
sg2299
g1
(g2300
g2301
(dp2520
g2310
g2303
(g2304
g2305
g2306
S'b'
tRp2521
(I1
(I9
I1
tg2308
I00
S'\x00\x00\x80?\x00\x00\x80?\x00\x00\x80?\x00\x00\x80?\x00\x00\x80?\x00\x00\x80?\x00\x00\x80?\x00\x00\x80?\x00\x00\x80?'
S'\x00\x00\x00\x00\x00\x00\x00\x00\x00'
Ntbsg19
g2312
(g2305
(I0
tS'b'
tRp2522
(I1
(I9
I1
tg2314
I00
(lp2523
S'a'
aS'a'
aS'f'
aS'f'
aS'f'
aS'a'
aS'a'
aS'a'
aS'f'
atbsg2316
g2303
(g2304
g2305
g2306
S'b'
tRp2524
(I1
(I9
I1
tg2308
I00
S'\x00\x00\xc0@\x00\x00\x00@\x00\x00\xa0@\x00\x00\x00\x00\x00\x00\x80?\x00\x00@@\x00\x00\xe0@\x00\x00\x80@\x00\x00\x00A'
S'\x00\x00\x00\x00\x00\x00\x00\x00\x00'
Ntbsg20
g2303
(g2304
g2305
g2306
S'b'
tRp2525
(I1
(I9
I1
tg2308
I00
S'\xab_\xa4?\xa6\x7f\x95?\xab\x97\t@\xccuW@!\xdc\x9b?\xfd\x8f\xa8?\x99N\xe4?\x0e\x8f\xa1@\xdf\x1f\xc0?'
S'\x00\x00\x00\x00\x00\x00\x00\x00\x00'
NtbstRp2526
(dp2527
g2322
(dp2528
g2310
I01
sg20
I01
sg2316
I01
sg19
I00
ssg2324
g2517
sg2325
(lp2529
g2310
ag2316
ag19
ag20
asg2327
(lp2530
I9
aI1
asbsg2329
g2330
sg2331
g2312
(g2305
(I0
tS'b'
tRp2531
(I1
(I9
I1
tg66
I01
S'\x03\x00\x00\x00\x04\x00\x00\x00\x01\x00\x00\x00\x05\x00\x00\x00\x07\x00\x00\x00\x02\x00\x00\x00\x00\x00\x00\x00\x06\x00\x00\x00\x08\x00\x00\x00'
tbsg2333
I01
sg2334
I1
sg2335
I-1
sg2336
(lp2532
g1
(g2360
g2301
(dp2533
g652
g738
sg655
g656
sg663
I2
sg666
g667
sg658
g659
stRp2534
ag1
(g2360
g2301
(dp2535
g652
g689
sg655
g686
sg663
I1
sg666
g667
sg658
g659
stRp2536
ag1
(g2360
g2301
(dp2537
g652
g726
sg655
g686
sg663
I3
sg666
g667
sg658
g659
stRp2538
ag1
(g2360
g2301
(dp2539
g652
g653
sg655
g656
sg663
I3
sg666
g667
sg658
g659
stRp2540
ag1
(g2360
g2301
(dp2541
g652
g676
sg655
g656
sg663
I1
sg666
g667
sg658
g659
stRp2542
ag1
(g2360
g2301
(dp2543
g652
g702
sg655
g699
sg663
I3
sg666
g667
sg658
g659
stRp2544
ag1
(g2360
g2301
(dp2545
g652
g750
sg655
g699
sg663
I1
sg666
g667
sg658
g659
stRp2546
ag1
(g2360
g2301
(dp2547
g652
g714
sg655
g686
sg663
I2
sg666
g667
sg658
g659
stRp2548
ag1
(g2360
g2301
(dp2549
g652
g762
sg655
g699
sg663
I2
sg666
g667
sg658
g659
stRp2550
asg2338
Nsg2339
g758
sg2340
I9
sg2341
I0
sg2342
I9
sg2343
I01
sbag1
(g2290
g3
NtRp2551
(dp2552
g2293
Nsg2294
(lp2553
sg2296
I87513424
sg11
S'trials_2'
p2554
sg6
I-1
sg2298
I1
sg27
I01
sg28
g29
sg2299
g1
(g2300
g2301
(dp2555
g2310
g2303
(g2304
g2305
g2306
S'b'
tRp2556
(I1
(I189
I1
tg2308
I00
S'\x00\x00\x80?\x00\x00\x80?\x00\x00\x80?\x00\x00\x80?\x00\x00\x80?\x00\x00\x80?\x00\x00\x80?\x00\x00\x80?\x00\x00\x80?\x00\x00\x80?\x00\x00\x80?\x00\x00\x80?\x00\x00\x80?\x00\x00\x80?\x00\x00\x80?\x00\x00\x80?\x00\x00\x80?\x00\x00\x80?\x00\x00\x80?\x00\x00\x80?\x00\x00\x80?\x00\x00\x80?\x00\x00\x80?\x00\x00\x80?\x00\x00\x80?\x00\x00\x80?\x00\x00\x80?\x00\x00\x80?\x00\x00\x80?\x00\x00\x80?\x00\x00\x80?\x00\x00\x80?\x00\x00\x80?\x00\x00\x80?\x00\x00\x80?\x00\x00\x80?\x00\x00\x80?\x00\x00\x80?\x00\x00\x80?\x00\x00\x80?\x00\x00\x80?\x00\x00\x80?\x00\x00\x80?\x00\x00\x80?\x00\x00\x80?\x00\x00\x80?\x00\x00\x80?\x00\x00\x80?\x00\x00\x80?\x00\x00\x80?\x00\x00\x80?\x00\x00\x80?\x00\x00\x80?\x00\x00\x80?\x00\x00\x80?\x00\x00\x80?\x00\x00\x80?\x00\x00\x80?\x00\x00\x80?\x00\x00\x80?\x00\x00\x80?\x00\x00\x80?\x00\x00\x80?\x00\x00\x80?\x00\x00\x80?\x00\x00\x80?\x00\x00\x80?\x00\x00\x80?\x00\x00\x80?\x00\x00\x80?\x00\x00\x80?\x00\x00\x80?\x00\x00\x80?\x00\x00\x80?\x00\x00\x80?\x00\x00\x80?\x00\x00\x80?\x00\x00\x80?\x00\x00\x80?\x00\x00\x80?\x00\x00\x80?\x00\x00\x80?\x00\x00\x80?\x00\x00\x80?\x00\x00\x80?\x00\x00\x80?\x00\x00\x80?\x00\x00\x80?\x00\x00\x80?\x00\x00\x80?\x00\x00\x80?\x00\x00\x80?\x00\x00\x80?\x00\x00\x80?\x00\x00\x80?\x00\x00\x80?\x00\x00\x80?\x00\x00\x80?\x00\x00\x80?\x00\x00\x80?\x00\x00\x80?\x00\x00\x80?\x00\x00\x80?\x00\x00\x80?\x00\x00\x80?\x00\x00\x80?\x00\x00\x80?\x00\x00\x80?\x00\x00\x80?\x00\x00\x80?\x00\x00\x80?\x00\x00\x80?\x00\x00\x80?\x00\x00\x80?\x00\x00\x80?\x00\x00\x80?\x00\x00\x80?\x00\x00\x80?\x00\x00\x80?\x00\x00\x80?\x00\x00\x80?\x00\x00\x80?\x00\x00\x80?\x00\x00\x80?\x00\x00\x80?\x00\x00\x80?\x00\x00\x80?\x00\x00\x80?\x00\x00\x80?\x00\x00\x80?\x00\x00\x80?\x00\x00\x80?\x00\x00\x80?\x00\x00\x80?\x00\x00\x80?\x00\x00\x80?\x00\x00\x80?\x00\x00\x80?\x00\x00\x80?\x00\x00\x80?\x00\x00\x80?\x00\x00\x80?\x00\x00\x80?\x00\x00\x80?\x00\x00\x80?\x00\x00\x80?\x00\x00\x80?\x00\x00\x80?\x00\x00\x80?\x00\x00\x80?\x00\x00\x80?\x00\x00\x80?\x00\x00\x80?\x00\x00\x80?\x00\x00\x80?\x00\x00\x80?\x00\x00\x80?\x00\x00\x80?\x00\x00\x80?\x00\x00\x80?\x00\x00\x80?\x00\x00\x80?\x00\x00\x80?\x00\x00\x80?\x00\x00\x80?\x00\x00\x80?\x00\x00\x80?\x00\x00\x80?\x00\x00\x80?\x00\x00\x80?\x00\x00\x80?\x00\x00\x80?\x00\x00\x80?\x00\x00\x80?\x00\x00\x80?\x00\x00\x80?\x00\x00\x80?\x00\x00\x80?\x00\x00\x80?\x00\x00\x80?\x00\x00\x80?\x00\x00\x80?\x00\x00\x80?\x00\x00\x80?\x00\x00\x80?\x00\x00\x80?\x00\x00\x80?\x00\x00\x80?\x00\x00\x80?'
S'\x00\x00\x00\x00\x00\x00\x00\x00\x00\x00\x00\x00\x00\x00\x00\x00\x00\x00\x00\x00\x00\x00\x00\x00\x00\x00\x00\x00\x00\x00\x00\x00\x00\x00\x00\x00\x00\x00\x00\x00\x00\x00\x00\x00\x00\x00\x00\x00\x00\x00\x00\x00\x00\x00\x00\x00\x00\x00\x00\x00\x00\x00\x00\x00\x00\x00\x00\x00\x00\x00\x00\x00\x00\x00\x00\x00\x00\x00\x00\x00\x00\x00\x00\x00\x00\x00\x00\x00\x00\x00\x00\x00\x00\x00\x00\x00\x00\x00\x00\x00\x00\x00\x00\x00\x00\x00\x00\x00\x00\x00\x00\x00\x00\x00\x00\x00\x00\x00\x00\x00\x00\x00\x00\x00\x00\x00\x00\x00\x00\x00\x00\x00\x00\x00\x00\x00\x00\x00\x00\x00\x00\x00\x00\x00\x00\x00\x00\x00\x00\x00\x00\x00\x00\x00\x00\x00\x00\x00\x00\x00\x00\x00\x00\x00\x00\x00\x00\x00\x00\x00\x00\x00\x00\x00\x00\x00\x00\x00\x00\x00\x00\x00\x00\x00\x00\x00\x00\x00\x00'
Ntbsg26
g2303
(g2304
g2305
g2306
S'b'
tRp2557
(I1
(I189
I1
tg2308
I00
S'\xca\x82h@\r\xc7\xea?\xc5\x8c\xb7?\x07z\xe6?\xdf\x98\xe8?\t\x88\xd7?O\xbe\xf9?\x97k\xb5?nk\xb5?\xe7\xff/@\xae\x91i@\xca_\xb5?TT\xe4?H\x01\xcf?w\xf0\xdd?\xd1V\xe4?FI\xd3?\x03r\x06@{\x8c\xd7?"E\xd3?\xd3W\xe4?\xbb\xc3\xed@_\x8b\xb9@f\x04\xd1@\x102C@J\xd2}@W\x1d"@\xdb\xcb\\@\xc1\xec\xfd?\xbbe\x16@\xa8M\x04@\xe4aF@o\xcd\x1c@\x11\xb5\xea?\xe7\x9a\t@\x8a>\x04@8{\x07@|@\xd3?}_\x96@\xebd\x16@\xd4/\x03@Hi\xd5?\x0b\x9c\x19@w\xc4\xfb?\x01B\xf1?E\xf1\x1e@B\xfe\xee?\xd0\x97\xb7?\xdag\xd7?\xfa\xbf\xfb?_\xc3\xec?@\xe8\xfd?\xdcV\xd5?\xfc\x88(@` \x02@Cx\xe6?$>\xc2?\xda\xd4\xac?\x7f\xbd\x1b@g\x88\xc8?\x17\xfc\xdd?\xd1\xf2\xbd?n\x81\xe8?C\xd4\xad@\x9e\xb0{@\xfe\x13\x01@\x7f\xc4\x0b@\x83vX@"\x08 @\xa4\xd5]@`N\x85@\xf0\xd3m@\x7f\xa3\x9a@\xff\xb8;@\x8d\xef\x1e@\xd6\x12Q@\xd0eV@\x87\x19\x9a@\x97`\x9e@\x02\x16\x8a@\'\xab*@e\xae\n@\x9a\xfd/@\x1b@T@\xb4{\'@J!\xb1?^\x15\xaf?,\xf2\xbd?\xc1\xeb\xbd?\x18\x8d\xb7?\xfe,\xf1?\x0f\xb2\x99?=\xd8\x9b?{\x0b\x9e?\xc6\xfd\xee?!.\xd1?gL\xd3?\x8a\x1d\xad=\xf2\xb1\xb9?n\x9a\xc8?4\xbb\xca?\xd5\xbd\xaa?%\x81\xa6?<\x18!@\xe7\x0b\xf1?\xc6\xb6;@f\x96\xe8?\x012\xc2?\xc2\xbc\xea?\x84\xd4\xbb?b\xc4\xaa?\xe1\x0c\xe0?\x94\x9d\t@\xf8:\xc2?\x9f\xae\xc6?\xbdH\x14@\x00\x98I@)F\x10@\xa4s\xf5?S\xd8\xec?p\xa5\t@\x80\xc0\x1b@\xe8\x16\x01@`*"@\xe3\x1f\xeb@\xca\xbd\xb9?a\x97\x1a@\xab]\xc4?\xb3\xe1\x9b?5%\xb1?\x02\xf2\xac?\xd3C\xa2?\x96\x10\xaf?\x06\xf4\x9d?^/\xb1?T\x19\xa0?\x7fr\xc6?\xc4^\xc4?6\x00\xde?\xa5@\xd3?\xd8/\xe2?z?\xd3?\xce\xa3\xc8?\xb5\x9a\xb7?RO\xb3?\xc8\n\xfa?\xe7\r\xef?\x80\xa5\x1a@\x00h\xe6?@\x0b\xc0?\x98\xeb\xdd?\xb9T\xd3?R\xcd\xca?{\x9a\xd9?\xff\xea\x1e@D_\xe4?\xff\x93\xc8?\\\xf5\xbd?\xf8\xc1\xaa?\xbb\xf7\xce?Z#\xd1?\xe3\xff\xbd?\x03\xf2\xbd?\xa2\xfa\x0e@\xcd$\xc2?\x07R\xb3?\xaa\x15\xc0?\x06L\x05@\xe9\xbf\xbc@~\xea\x0e@\xb5\x01\xb1@\x1e\xeb~@\t\xa0\xe8?\x8b\x1f\x02@6\xb0\x1a@.e\xf5?\xee\xf0\xbf@\xd9\x04\x00@o\x0f!@\rJ\xad@mwG@\x10\x0e\xe0?\xa4\xbe\x0b@y\x19\x01@\xb3Me@\x84\xaf\xab@\xfd&"@\\\xfb\xce?\xe4t\x17@'
S'\x00\x00\x00\x00\x00\x00\x00\x00\x00\x00\x00\x00\x00\x00\x00\x00\x00\x00\x00\x00\x00\x00\x00\x00\x00\x00\x00\x00\x00\x00\x00\x00\x00\x00\x00\x00\x00\x00\x00\x00\x00\x00\x00\x00\x00\x00\x00\x00\x00\x00\x00\x00\x00\x00\x00\x00\x00\x00\x00\x00\x00\x00\x00\x00\x00\x00\x00\x00\x00\x00\x00\x00\x00\x00\x00\x00\x00\x00\x00\x00\x00\x00\x00\x00\x00\x00\x00\x00\x00\x00\x00\x00\x00\x00\x00\x00\x00\x00\x00\x00\x00\x00\x00\x00\x00\x00\x00\x00\x00\x00\x00\x00\x00\x00\x00\x00\x00\x00\x00\x00\x00\x00\x00\x00\x00\x00\x00\x00\x00\x00\x00\x00\x00\x00\x00\x00\x00\x00\x00\x00\x00\x00\x00\x00\x00\x00\x00\x00\x00\x00\x00\x00\x00\x00\x00\x00\x00\x00\x00\x00\x00\x00\x00\x00\x00\x00\x00\x00\x00\x00\x00\x00\x00\x00\x00\x00\x00\x00\x00\x00\x00\x00\x00\x00\x00\x00\x00\x00\x00'
Ntbsg25
g2312
(g2305
(I0
tS'b'
tRp2558
(I1
(I189
I1
tg2314
I00
(lp2559
S'f'
aS'f'
aS'a'
aS'a'
aS'a'
aS'a'
aS'f'
aS'a'
aS'a'
aS'a'
aS'f'
aS'f'
aS'a'
aS'a'
aS'a'
aS'a'
aS'a'
aS'a'
aS'f'
aS'a'
aS'a'
aS'f'
aS'a'
aS'a'
aS'a'
aS'a'
aS'f'
aS'f'
aS'a'
aS'a'
aS'f'
aS'a'
aS'f'
aS'a'
aS'a'
aS'a'
aS'a'
aS'f'
aS'a'
aS'a'
aS'a'
aS'f'
aS'f'
aS'f'
aS'a'
aS'a'
aS'a'
aS'f'
aS'a'
aS'a'
aS'a'
aS'a'
aS'a'
aS'a'
aS'a'
aS'a'
aS'f'
aS'a'
aS'a'
aS'a'
aS'a'
aS'a'
aS'a'
aS'f'
aS'f'
aS'a'
aS'a'
aS'a'
aS'f'
aS'f'
aS'f'
aS'f'
aS'f'
aS'f'
aS'f'
aS'f'
aS'f'
aS'f'
aS'f'
aS'f'
aS'a'
aS'f'
aS'f'
aS'f'
aS'f'
aS'a'
aS'a'
aS'f'
aS'a'
aS'a'
aS'a'
aS'f'
aS'f'
aS'a'
aS'a'
aS'a'
aS'a'
aS'a'
aS'f'
aS'f'
aS'f'
aS'f'
aS'a'
aS'a'
aS'a'
aS'f'
aS'f'
aS'a'
aS'f'
aS'f'
aS'a'
aS'a'
aS'f'
aS'a'
aS'a'
aS'a'
aS'a'
aS'a'
aS'a'
aS'f'
aS'a'
aS'a'
aS'a'
aS'a'
aS'a'
aS'f'
aS'f'
aS'f'
aS'f'
aS'a'
aS'f'
aS'f'
aS'a'
aS'f'
aS'f'
aS'a'
aS'a'
aS'a'
aS'f'
aS'a'
aS'a'
aS'a'
aS'a'
aS'f'
aS'a'
aS'a'
aS'a'
aS'f'
aS'f'
aS'a'
aS'a'
aS'f'
aS'a'
aS'a'
aS'a'
aS'a'
aS'f'
aS'f'
aS'a'
aS'a'
aS'a'
aS'f'
aS'a'
aS'f'
aS'a'
aS'f'
aS'a'
aS'f'
aS'f'
aS'a'
aS'a'
aS'f'
aS'a'
aS'f'
aS'a'
aS'f'
aS'a'
aS'a'
aS'a'
aS'f'
aS'f'
aS'a'
aS'f'
aS'a'
aS'f'
aS'f'
aS'f'
aS'a'
aS'a'
atbsg2316
g2303
(g2304
g2305
g2306
S'b'
tRp2560
(I1
(I189
I1
tg2308
I00
S'\x00\x00\x00\x00\x00\x00\x80?\x00\x00\x00@\x00\x00@@\x00\x00\x80@\x00\x00\xa0@\x00\x00\xc0@\x00\x00\xe0@\x00\x00\x00A\x00\x00\x10A\x00\x00 A\x00\x000A\x00\x00@A\x00\x00PA\x00\x00`A\x00\x00pA\x00\x00\x80A\x00\x00\x88A\x00\x00\x90A\x00\x00\x98A\x00\x00\xa0A\x00\x00\xa8A\x00\x00\xb0A\x00\x00\xb8A\x00\x00\xc0A\x00\x00\xc8A\x00\x00\xd0A\x00\x00\xd8A\x00\x00\xe0A\x00\x00\xe8A\x00\x00\xf0A\x00\x00\xf8A\x00\x00\x00B\x00\x00\x04B\x00\x00\x08B\x00\x00\x0cB\x00\x00\x10B\x00\x00\x14B\x00\x00\x18B\x00\x00\x1cB\x00\x00 B\x00\x00$B\x00\x00(B\x00\x00,B\x00\x000B\x00\x004B\x00\x008B\x00\x00<B\x00\x00@B\x00\x00DB\x00\x00HB\x00\x00LB\x00\x00PB\x00\x00TB\x00\x00XB\x00\x00\\B\x00\x00`B\x00\x00dB\x00\x00hB\x00\x00lB\x00\x00pB\x00\x00tB\x00\x00xB\x00\x00|B\x00\x00\x80B\x00\x00\x82B\x00\x00\x84B\x00\x00\x86B\x00\x00\x88B\x00\x00\x8aB\x00\x00\x8cB\x00\x00\x8eB\x00\x00\x90B\x00\x00\x92B\x00\x00\x94B\x00\x00\x96B\x00\x00\x98B\x00\x00\x9aB\x00\x00\x9cB\x00\x00\x9eB\x00\x00\xa0B\x00\x00\xa2B\x00\x00\xa4B\x00\x00\xa6B\x00\x00\xa8B\x00\x00\xaaB\x00\x00\xacB\x00\x00\xaeB\x00\x00\xb0B\x00\x00\xb2B\x00\x00\xb4B\x00\x00\xb6B\x00\x00\xb8B\x00\x00\xbaB\x00\x00\xbcB\x00\x00\xbeB\x00\x00\xc0B\x00\x00\xc2B\x00\x00\xc4B\x00\x00\xc6B\x00\x00\xc8B\x00\x00\xcaB\x00\x00\xccB\x00\x00\xceB\x00\x00\xd0B\x00\x00\xd2B\x00\x00\xd4B\x00\x00\xd6B\x00\x00\xd8B\x00\x00\xdaB\x00\x00\xdcB\x00\x00\xdeB\x00\x00\xe0B\x00\x00\xe2B\x00\x00\xe4B\x00\x00\xe6B\x00\x00\xe8B\x00\x00\xeaB\x00\x00\xecB\x00\x00\xeeB\x00\x00\xf0B\x00\x00\xf2B\x00\x00\xf4B\x00\x00\xf6B\x00\x00\xf8B\x00\x00\xfaB\x00\x00\xfcB\x00\x00\xfeB\x00\x00\x00C\x00\x00\x01C\x00\x00\x02C\x00\x00\x03C\x00\x00\x04C\x00\x00\x05C\x00\x00\x06C\x00\x00\x07C\x00\x00\x08C\x00\x00\tC\x00\x00\nC\x00\x00\x0bC\x00\x00\x0cC\x00\x00\rC\x00\x00\x0eC\x00\x00\x0fC\x00\x00\x10C\x00\x00\x11C\x00\x00\x12C\x00\x00\x13C\x00\x00\x14C\x00\x00\x15C\x00\x00\x16C\x00\x00\x17C\x00\x00\x18C\x00\x00\x19C\x00\x00\x1aC\x00\x00\x1bC\x00\x00\x1cC\x00\x00\x1dC\x00\x00\x1eC\x00\x00\x1fC\x00\x00 C\x00\x00!C\x00\x00"C\x00\x00#C\x00\x00$C\x00\x00%C\x00\x00&C\x00\x00\'C\x00\x00(C\x00\x00)C\x00\x00*C\x00\x00+C\x00\x00,C\x00\x00-C\x00\x00.C\x00\x00/C\x00\x000C\x00\x001C\x00\x002C\x00\x003C\x00\x004C\x00\x005C\x00\x006C\x00\x007C\x00\x008C\x00\x009C\x00\x00:C\x00\x00;C\x00\x00<C'
S'\x00\x00\x00\x00\x00\x00\x00\x00\x00\x00\x00\x00\x00\x00\x00\x00\x00\x00\x00\x00\x00\x00\x00\x00\x00\x00\x00\x00\x00\x00\x00\x00\x00\x00\x00\x00\x00\x00\x00\x00\x00\x00\x00\x00\x00\x00\x00\x00\x00\x00\x00\x00\x00\x00\x00\x00\x00\x00\x00\x00\x00\x00\x00\x00\x00\x00\x00\x00\x00\x00\x00\x00\x00\x00\x00\x00\x00\x00\x00\x00\x00\x00\x00\x00\x00\x00\x00\x00\x00\x00\x00\x00\x00\x00\x00\x00\x00\x00\x00\x00\x00\x00\x00\x00\x00\x00\x00\x00\x00\x00\x00\x00\x00\x00\x00\x00\x00\x00\x00\x00\x00\x00\x00\x00\x00\x00\x00\x00\x00\x00\x00\x00\x00\x00\x00\x00\x00\x00\x00\x00\x00\x00\x00\x00\x00\x00\x00\x00\x00\x00\x00\x00\x00\x00\x00\x00\x00\x00\x00\x00\x00\x00\x00\x00\x00\x00\x00\x00\x00\x00\x00\x00\x00\x00\x00\x00\x00\x00\x00\x00\x00\x00\x00\x00\x00\x00\x00\x00\x00'
NtbstRp2561
(dp2562
g2322
(dp2563
g2310
I01
sg26
I01
sg25
I00
sg2316
I01
ssg2324
g2551
sg2325
(lp2564
g2310
ag2316
ag25
ag26
asg2327
(lp2565
I189
aI1
asbsg2329
S'sequential'
p2566
sg2331
g2312
(g2305
(I0
tS'b'
tRp2567
(I1
(I189
I1
tg66
I00
S'\x00\x00\x00\x00\x01\x00\x00\x00\x02\x00\x00\x00\x03\x00\x00\x00\x04\x00\x00\x00\x05\x00\x00\x00\x06\x00\x00\x00\x07\x00\x00\x00\x08\x00\x00\x00\t\x00\x00\x00\n\x00\x00\x00\x0b\x00\x00\x00\x0c\x00\x00\x00\r\x00\x00\x00\x0e\x00\x00\x00\x0f\x00\x00\x00\x10\x00\x00\x00\x11\x00\x00\x00\x12\x00\x00\x00\x13\x00\x00\x00\x14\x00\x00\x00\x15\x00\x00\x00\x16\x00\x00\x00\x17\x00\x00\x00\x18\x00\x00\x00\x19\x00\x00\x00\x1a\x00\x00\x00\x1b\x00\x00\x00\x1c\x00\x00\x00\x1d\x00\x00\x00\x1e\x00\x00\x00\x1f\x00\x00\x00 \x00\x00\x00!\x00\x00\x00"\x00\x00\x00#\x00\x00\x00$\x00\x00\x00%\x00\x00\x00&\x00\x00\x00\'\x00\x00\x00(\x00\x00\x00)\x00\x00\x00*\x00\x00\x00+\x00\x00\x00,\x00\x00\x00-\x00\x00\x00.\x00\x00\x00/\x00\x00\x000\x00\x00\x001\x00\x00\x002\x00\x00\x003\x00\x00\x004\x00\x00\x005\x00\x00\x006\x00\x00\x007\x00\x00\x008\x00\x00\x009\x00\x00\x00:\x00\x00\x00;\x00\x00\x00<\x00\x00\x00=\x00\x00\x00>\x00\x00\x00?\x00\x00\x00@\x00\x00\x00A\x00\x00\x00B\x00\x00\x00C\x00\x00\x00D\x00\x00\x00E\x00\x00\x00F\x00\x00\x00G\x00\x00\x00H\x00\x00\x00I\x00\x00\x00J\x00\x00\x00K\x00\x00\x00L\x00\x00\x00M\x00\x00\x00N\x00\x00\x00O\x00\x00\x00P\x00\x00\x00Q\x00\x00\x00R\x00\x00\x00S\x00\x00\x00T\x00\x00\x00U\x00\x00\x00V\x00\x00\x00W\x00\x00\x00X\x00\x00\x00Y\x00\x00\x00Z\x00\x00\x00[\x00\x00\x00\\\x00\x00\x00]\x00\x00\x00^\x00\x00\x00_\x00\x00\x00`\x00\x00\x00a\x00\x00\x00b\x00\x00\x00c\x00\x00\x00d\x00\x00\x00e\x00\x00\x00f\x00\x00\x00g\x00\x00\x00h\x00\x00\x00i\x00\x00\x00j\x00\x00\x00k\x00\x00\x00l\x00\x00\x00m\x00\x00\x00n\x00\x00\x00o\x00\x00\x00p\x00\x00\x00q\x00\x00\x00r\x00\x00\x00s\x00\x00\x00t\x00\x00\x00u\x00\x00\x00v\x00\x00\x00w\x00\x00\x00x\x00\x00\x00y\x00\x00\x00z\x00\x00\x00{\x00\x00\x00|\x00\x00\x00}\x00\x00\x00~\x00\x00\x00\x7f\x00\x00\x00\x80\x00\x00\x00\x81\x00\x00\x00\x82\x00\x00\x00\x83\x00\x00\x00\x84\x00\x00\x00\x85\x00\x00\x00\x86\x00\x00\x00\x87\x00\x00\x00\x88\x00\x00\x00\x89\x00\x00\x00\x8a\x00\x00\x00\x8b\x00\x00\x00\x8c\x00\x00\x00\x8d\x00\x00\x00\x8e\x00\x00\x00\x8f\x00\x00\x00\x90\x00\x00\x00\x91\x00\x00\x00\x92\x00\x00\x00\x93\x00\x00\x00\x94\x00\x00\x00\x95\x00\x00\x00\x96\x00\x00\x00\x97\x00\x00\x00\x98\x00\x00\x00\x99\x00\x00\x00\x9a\x00\x00\x00\x9b\x00\x00\x00\x9c\x00\x00\x00\x9d\x00\x00\x00\x9e\x00\x00\x00\x9f\x00\x00\x00\xa0\x00\x00\x00\xa1\x00\x00\x00\xa2\x00\x00\x00\xa3\x00\x00\x00\xa4\x00\x00\x00\xa5\x00\x00\x00\xa6\x00\x00\x00\xa7\x00\x00\x00\xa8\x00\x00\x00\xa9\x00\x00\x00\xaa\x00\x00\x00\xab\x00\x00\x00\xac\x00\x00\x00\xad\x00\x00\x00\xae\x00\x00\x00\xaf\x00\x00\x00\xb0\x00\x00\x00\xb1\x00\x00\x00\xb2\x00\x00\x00\xb3\x00\x00\x00\xb4\x00\x00\x00\xb5\x00\x00\x00\xb6\x00\x00\x00\xb7\x00\x00\x00\xb8\x00\x00\x00\xb9\x00\x00\x00\xba\x00\x00\x00\xbb\x00\x00\x00\xbc\x00\x00\x00'
tbsg2333
I01
sg2334
I1
sg2335
I-1
sg2336
(lp2568
g1
(g2360
g2301
(dp2569
g55
g773
sg56
g770
sg57
g776
sg58
g774
stRp2570
ag1
(g2360
g2301
(dp2571
g55
g783
sg56
g770
sg57
g784
sg58
g774
stRp2572
ag1
(g2360
g2301
(dp2573
g55
g792
sg56
g789
sg57
g793
sg58
g774
stRp2574
ag1
(g2360
g2301
(dp2575
g55
g801
sg56
g798
sg57
g802
sg58
g774
stRp2576
ag1
(g2360
g2301
(dp2577
g55
g809
sg56
g789
sg57
g810
sg58
g774
stRp2578
ag1
(g2360
g2301
(dp2579
g55
g817
sg56
g798
sg57
g818
sg58
g774
stRp2580
ag1
(g2360
g2301
(dp2581
g55
g825
sg56
g798
sg57
g826
sg58
g774
stRp2582
ag1
(g2360
g2301
(dp2583
g55
g833
sg56
g770
sg57
g834
sg58
g774
stRp2584
ag1
(g2360
g2301
(dp2585
g55
g841
sg56
g789
sg57
g842
sg58
g774
stRp2586
ag1
(g2360
g2301
(dp2587
g55
g849
sg56
g770
sg57
g850
sg58
g774
stRp2588
ag1
(g2360
g2301
(dp2589
g55
g857
sg56
g789
sg57
g858
sg58
g774
stRp2590
ag1
(g2360
g2301
(dp2591
g55
g865
sg56
g789
sg57
g866
sg58
g774
stRp2592
ag1
(g2360
g2301
(dp2593
g55
g873
sg56
g798
sg57
g874
sg58
g774
stRp2594
ag1
(g2360
g2301
(dp2595
g55
g881
sg56
g789
sg57
g882
sg58
g774
stRp2596
ag1
(g2360
g2301
(dp2597
g55
g889
sg56
g770
sg57
g890
sg58
g774
stRp2598
ag1
(g2360
g2301
(dp2599
g55
g897
sg56
g798
sg57
g898
sg58
g774
stRp2600
ag1
(g2360
g2301
(dp2601
g55
g905
sg56
g770
sg57
g906
sg58
g774
stRp2602
ag1
(g2360
g2301
(dp2603
g55
g913
sg56
g798
sg57
g914
sg58
g774
stRp2604
ag1
(g2360
g2301
(dp2605
g55
g921
sg56
g798
sg57
g922
sg58
g774
stRp2606
ag1
(g2360
g2301
(dp2607
g55
g929
sg56
g770
sg57
g930
sg58
g774
stRp2608
ag1
(g2360
g2301
(dp2609
g55
g937
sg56
g789
sg57
g938
sg58
g774
stRp2610
ag1
(g2360
g2301
(dp2611
g55
g945
sg56
g798
sg57
g947
sg58
g946
stRp2612
ag1
(g2360
g2301
(dp2613
g55
g954
sg56
g789
sg57
g955
sg58
g946
stRp2614
ag1
(g2360
g2301
(dp2615
g55
g962
sg56
g770
sg57
g963
sg58
g946
stRp2616
ag1
(g2360
g2301
(dp2617
g55
g970
sg56
g798
sg57
g971
sg58
g946
stRp2618
ag1
(g2360
g2301
(dp2619
g55
g978
sg56
g789
sg57
g979
sg58
g946
stRp2620
ag1
(g2360
g2301
(dp2621
g55
g986
sg56
g770
sg57
g987
sg58
g946
stRp2622
ag1
(g2360
g2301
(dp2623
g55
g994
sg56
g789
sg57
g995
sg58
g946
stRp2624
ag1
(g2360
g2301
(dp2625
g55
g1002
sg56
g798
sg57
g1003
sg58
g946
stRp2626
ag1
(g2360
g2301
(dp2627
g55
g1010
sg56
g770
sg57
g1011
sg58
g946
stRp2628
ag1
(g2360
g2301
(dp2629
g55
g1018
sg56
g789
sg57
g1019
sg58
g946
stRp2630
ag1
(g2360
g2301
(dp2631
g55
g1026
sg56
g770
sg57
g1027
sg58
g946
stRp2632
ag1
(g2360
g2301
(dp2633
g55
g1034
sg56
g770
sg57
g1035
sg58
g946
stRp2634
ag1
(g2360
g2301
(dp2635
g55
g1042
sg56
g798
sg57
g1043
sg58
g946
stRp2636
ag1
(g2360
g2301
(dp2637
g55
g1050
sg56
g789
sg57
g1051
sg58
g946
stRp2638
ag1
(g2360
g2301
(dp2639
g55
g1058
sg56
g798
sg57
g1059
sg58
g946
stRp2640
ag1
(g2360
g2301
(dp2641
g55
g1066
sg56
g770
sg57
g1067
sg58
g946
stRp2642
ag1
(g2360
g2301
(dp2643
g55
g1074
sg56
g770
sg57
g1075
sg58
g946
stRp2644
ag1
(g2360
g2301
(dp2645
g55
g1082
sg56
g789
sg57
g1083
sg58
g946
stRp2646
ag1
(g2360
g2301
(dp2647
g55
g1090
sg56
g789
sg57
g1091
sg58
g946
stRp2648
ag1
(g2360
g2301
(dp2649
g55
g1098
sg56
g798
sg57
g1099
sg58
g946
stRp2650
ag1
(g2360
g2301
(dp2651
g55
g1106
sg56
g798
sg57
g1107
sg58
g946
stRp2652
ag1
(g2360
g2301
(dp2653
g55
g1114
sg56
g789
sg57
g1116
sg58
g1115
stRp2654
ag1
(g2360
g2301
(dp2655
g55
g1123
sg56
g789
sg57
g1124
sg58
g1115
stRp2656
ag1
(g2360
g2301
(dp2657
g55
g1131
sg56
g770
sg57
g1132
sg58
g1115
stRp2658
ag1
(g2360
g2301
(dp2659
g55
g1139
sg56
g789
sg57
g1140
sg58
g1115
stRp2660
ag1
(g2360
g2301
(dp2661
g55
g1147
sg56
g770
sg57
g1148
sg58
g1115
stRp2662
ag1
(g2360
g2301
(dp2663
g55
g1155
sg56
g770
sg57
g1156
sg58
g1115
stRp2664
ag1
(g2360
g2301
(dp2665
g55
g1163
sg56
g798
sg57
g1164
sg58
g1115
stRp2666
ag1
(g2360
g2301
(dp2667
g55
g1171
sg56
g770
sg57
g1172
sg58
g1115
stRp2668
ag1
(g2360
g2301
(dp2669
g55
g1179
sg56
g798
sg57
g1180
sg58
g1115
stRp2670
ag1
(g2360
g2301
(dp2671
g55
g1187
sg56
g789
sg57
g1188
sg58
g1115
stRp2672
ag1
(g2360
g2301
(dp2673
g55
g1195
sg56
g798
sg57
g1196
sg58
g1115
stRp2674
ag1
(g2360
g2301
(dp2675
g55
g1203
sg56
g789
sg57
g1204
sg58
g1115
stRp2676
ag1
(g2360
g2301
(dp2677
g55
g1211
sg56
g798
sg57
g1212
sg58
g1115
stRp2678
ag1
(g2360
g2301
(dp2679
g55
g1219
sg56
g770
sg57
g1220
sg58
g1115
stRp2680
ag1
(g2360
g2301
(dp2681
g55
g1227
sg56
g770
sg57
g1228
sg58
g1115
stRp2682
ag1
(g2360
g2301
(dp2683
g55
g1235
sg56
g798
sg57
g1236
sg58
g1115
stRp2684
ag1
(g2360
g2301
(dp2685
g55
g1243
sg56
g770
sg57
g1244
sg58
g1115
stRp2686
ag1
(g2360
g2301
(dp2687
g55
g1251
sg56
g798
sg57
g1252
sg58
g1115
stRp2688
ag1
(g2360
g2301
(dp2689
g55
g1259
sg56
g789
sg57
g1260
sg58
g1115
stRp2690
ag1
(g2360
g2301
(dp2691
g55
g1267
sg56
g798
sg57
g1268
sg58
g1115
stRp2692
ag1
(g2360
g2301
(dp2693
g55
g1275
sg56
g789
sg57
g1276
sg58
g1115
stRp2694
ag1
(g2360
g2301
(dp2695
g55
g1283
sg56
g798
sg57
g1284
sg58
g946
stRp2696
ag1
(g2360
g2301
(dp2697
g55
g1291
sg56
g798
sg57
g1292
sg58
g946
stRp2698
ag1
(g2360
g2301
(dp2699
g55
g1299
sg56
g789
sg57
g1300
sg58
g946
stRp2700
ag1
(g2360
g2301
(dp2701
g55
g1307
sg56
g798
sg57
g1308
sg58
g946
stRp2702
ag1
(g2360
g2301
(dp2703
g55
g1315
sg56
g789
sg57
g1316
sg58
g946
stRp2704
ag1
(g2360
g2301
(dp2705
g55
g1323
sg56
g789
sg57
g1324
sg58
g946
stRp2706
ag1
(g2360
g2301
(dp2707
g55
g1331
sg56
g770
sg57
g1332
sg58
g946
stRp2708
ag1
(g2360
g2301
(dp2709
g55
g1339
sg56
g770
sg57
g1340
sg58
g946
stRp2710
ag1
(g2360
g2301
(dp2711
g55
g1347
sg56
g770
sg57
g1348
sg58
g946
stRp2712
ag1
(g2360
g2301
(dp2713
g55
g1355
sg56
g770
sg57
g1356
sg58
g946
stRp2714
ag1
(g2360
g2301
(dp2715
g55
g1363
sg56
g789
sg57
g1364
sg58
g946
stRp2716
ag1
(g2360
g2301
(dp2717
g55
g1371
sg56
g770
sg57
g1372
sg58
g946
stRp2718
ag1
(g2360
g2301
(dp2719
g55
g1379
sg56
g789
sg57
g1380
sg58
g946
stRp2720
ag1
(g2360
g2301
(dp2721
g55
g1387
sg56
g770
sg57
g1388
sg58
g946
stRp2722
ag1
(g2360
g2301
(dp2723
g55
g1395
sg56
g789
sg57
g1396
sg58
g946
stRp2724
ag1
(g2360
g2301
(dp2725
g55
g1403
sg56
g770
sg57
g1404
sg58
g946
stRp2726
ag1
(g2360
g2301
(dp2727
g55
g1411
sg56
g789
sg57
g1412
sg58
g946
stRp2728
ag1
(g2360
g2301
(dp2729
g55
g1419
sg56
g798
sg57
g1420
sg58
g946
stRp2730
ag1
(g2360
g2301
(dp2731
g55
g1427
sg56
g798
sg57
g1428
sg58
g946
stRp2732
ag1
(g2360
g2301
(dp2733
g55
g1435
sg56
g798
sg57
g1436
sg58
g946
stRp2734
ag1
(g2360
g2301
(dp2735
g55
g1443
sg56
g798
sg57
g1444
sg58
g946
stRp2736
ag1
(g2360
g2301
(dp2737
g55
g1451
sg56
g770
sg57
g1452
sg58
g1115
stRp2738
ag1
(g2360
g2301
(dp2739
g55
g1459
sg56
g789
sg57
g1460
sg58
g1115
stRp2740
ag1
(g2360
g2301
(dp2741
g55
g1467
sg56
g798
sg57
g1468
sg58
g1115
stRp2742
ag1
(g2360
g2301
(dp2743
g55
g1475
sg56
g798
sg57
g1476
sg58
g1115
stRp2744
ag1
(g2360
g2301
(dp2745
g55
g1483
sg56
g770
sg57
g1484
sg58
g1115
stRp2746
ag1
(g2360
g2301
(dp2747
g55
g1491
sg56
g798
sg57
g1492
sg58
g1115
stRp2748
ag1
(g2360
g2301
(dp2749
g55
g1499
sg56
g770
sg57
g1500
sg58
g1115
stRp2750
ag1
(g2360
g2301
(dp2751
g55
g1507
sg56
g770
sg57
g1508
sg58
g1115
stRp2752
ag1
(g2360
g2301
(dp2753
g55
g1515
sg56
g770
sg57
g1516
sg58
g1115
stRp2754
ag1
(g2360
g2301
(dp2755
g55
g1523
sg56
g798
sg57
g1524
sg58
g1115
stRp2756
ag1
(g2360
g2301
(dp2757
g55
g1531
sg56
g770
sg57
g1532
sg58
g1115
stRp2758
ag1
(g2360
g2301
(dp2759
g55
g1539
sg56
g798
sg57
g1540
sg58
g1115
stRp2760
ag1
(g2360
g2301
(dp2761
g55
g1547
sg56
g789
sg57
g1548
sg58
g1115
stRp2762
ag1
(g2360
g2301
(dp2763
g55
g1555
sg56
g789
sg57
g1556
sg58
g1115
stRp2764
ag1
(g2360
g2301
(dp2765
g55
g1563
sg56
g789
sg57
g1564
sg58
g1115
stRp2766
ag1
(g2360
g2301
(dp2767
g55
g1571
sg56
g789
sg57
g1572
sg58
g1115
stRp2768
ag1
(g2360
g2301
(dp2769
g55
g1579
sg56
g789
sg57
g1580
sg58
g1115
stRp2770
ag1
(g2360
g2301
(dp2771
g55
g1587
sg56
g789
sg57
g1588
sg58
g1115
stRp2772
ag1
(g2360
g2301
(dp2773
g55
g1595
sg56
g798
sg57
g1596
sg58
g1115
stRp2774
ag1
(g2360
g2301
(dp2775
g55
g1603
sg56
g770
sg57
g1604
sg58
g1115
stRp2776
ag1
(g2360
g2301
(dp2777
g55
g1611
sg56
g798
sg57
g1612
sg58
g1115
stRp2778
ag1
(g2360
g2301
(dp2779
g55
g1619
sg56
g789
sg57
g1620
sg58
g774
stRp2780
ag1
(g2360
g2301
(dp2781
g55
g1627
sg56
g789
sg57
g1628
sg58
g774
stRp2782
ag1
(g2360
g2301
(dp2783
g55
g1635
sg56
g798
sg57
g1636
sg58
g774
stRp2784
ag1
(g2360
g2301
(dp2785
g55
g1643
sg56
g798
sg57
g1644
sg58
g774
stRp2786
ag1
(g2360
g2301
(dp2787
g55
g1651
sg56
g798
sg57
g1652
sg58
g774
stRp2788
ag1
(g2360
g2301
(dp2789
g55
g1659
sg56
g789
sg57
g1660
sg58
g774
stRp2790
ag1
(g2360
g2301
(dp2791
g55
g1667
sg56
g798
sg57
g1668
sg58
g774
stRp2792
ag1
(g2360
g2301
(dp2793
g55
g1675
sg56
g798
sg57
g1676
sg58
g774
stRp2794
ag1
(g2360
g2301
(dp2795
g55
g1683
sg56
g770
sg57
g1684
sg58
g774
stRp2796
ag1
(g2360
g2301
(dp2797
g55
g1691
sg56
g789
sg57
g1692
sg58
g774
stRp2798
ag1
(g2360
g2301
(dp2799
g55
g1699
sg56
g770
sg57
g1700
sg58
g774
stRp2800
ag1
(g2360
g2301
(dp2801
g55
g1707
sg56
g789
sg57
g1708
sg58
g774
stRp2802
ag1
(g2360
g2301
(dp2803
g55
g1715
sg56
g798
sg57
g1716
sg58
g774
stRp2804
ag1
(g2360
g2301
(dp2805
g55
g1723
sg56
g770
sg57
g1724
sg58
g774
stRp2806
ag1
(g2360
g2301
(dp2807
g55
g1731
sg56
g770
sg57
g1732
sg58
g774
stRp2808
ag1
(g2360
g2301
(dp2809
g55
g1739
sg56
g798
sg57
g1740
sg58
g774
stRp2810
ag1
(g2360
g2301
(dp2811
g55
g1747
sg56
g789
sg57
g1748
sg58
g774
stRp2812
ag1
(g2360
g2301
(dp2813
g55
g1755
sg56
g770
sg57
g1756
sg58
g774
stRp2814
ag1
(g2360
g2301
(dp2815
g55
g1763
sg56
g789
sg57
g1764
sg58
g774
stRp2816
ag1
(g2360
g2301
(dp2817
g55
g1771
sg56
g770
sg57
g1772
sg58
g774
stRp2818
ag1
(g2360
g2301
(dp2819
g55
g1779
sg56
g770
sg57
g1780
sg58
g774
stRp2820
ag1
(g2360
g2301
(dp2821
g55
g1787
sg56
g789
sg57
g1788
sg58
g1115
stRp2822
ag1
(g2360
g2301
(dp2823
g55
g1795
sg56
g789
sg57
g1796
sg58
g1115
stRp2824
ag1
(g2360
g2301
(dp2825
g55
g1803
sg56
g789
sg57
g1804
sg58
g1115
stRp2826
ag1
(g2360
g2301
(dp2827
g55
g1811
sg56
g798
sg57
g1812
sg58
g1115
stRp2828
ag1
(g2360
g2301
(dp2829
g55
g1819
sg56
g798
sg57
g1820
sg58
g1115
stRp2830
ag1
(g2360
g2301
(dp2831
g55
g1827
sg56
g798
sg57
g1828
sg58
g1115
stRp2832
ag1
(g2360
g2301
(dp2833
g55
g1835
sg56
g770
sg57
g1836
sg58
g1115
stRp2834
ag1
(g2360
g2301
(dp2835
g55
g1843
sg56
g770
sg57
g1844
sg58
g1115
stRp2836
ag1
(g2360
g2301
(dp2837
g55
g1851
sg56
g770
sg57
g1852
sg58
g1115
stRp2838
ag1
(g2360
g2301
(dp2839
g55
g1859
sg56
g798
sg57
g1860
sg58
g1115
stRp2840
ag1
(g2360
g2301
(dp2841
g55
g1867
sg56
g789
sg57
g1868
sg58
g1115
stRp2842
ag1
(g2360
g2301
(dp2843
g55
g1875
sg56
g770
sg57
g1876
sg58
g1115
stRp2844
ag1
(g2360
g2301
(dp2845
g55
g1883
sg56
g770
sg57
g1884
sg58
g1115
stRp2846
ag1
(g2360
g2301
(dp2847
g55
g1891
sg56
g798
sg57
g1892
sg58
g1115
stRp2848
ag1
(g2360
g2301
(dp2849
g55
g1899
sg56
g789
sg57
g1900
sg58
g1115
stRp2850
ag1
(g2360
g2301
(dp2851
g55
g1907
sg56
g798
sg57
g1908
sg58
g1115
stRp2852
ag1
(g2360
g2301
(dp2853
g55
g1915
sg56
g770
sg57
g1916
sg58
g1115
stRp2854
ag1
(g2360
g2301
(dp2855
g55
g1923
sg56
g770
sg57
g1924
sg58
g1115
stRp2856
ag1
(g2360
g2301
(dp2857
g55
g1931
sg56
g789
sg57
g1932
sg58
g1115
stRp2858
ag1
(g2360
g2301
(dp2859
g55
g1939
sg56
g798
sg57
g1940
sg58
g1115
stRp2860
ag1
(g2360
g2301
(dp2861
g55
g1947
sg56
g789
sg57
g1948
sg58
g1115
stRp2862
ag1
(g2360
g2301
(dp2863
g55
g1955
sg56
g789
sg57
g1956
sg58
g774
stRp2864
ag1
(g2360
g2301
(dp2865
g55
g1963
sg56
g789
sg57
g1964
sg58
g774
stRp2866
ag1
(g2360
g2301
(dp2867
g55
g1971
sg56
g770
sg57
g1972
sg58
g774
stRp2868
ag1
(g2360
g2301
(dp2869
g55
g1979
sg56
g798
sg57
g1980
sg58
g774
stRp2870
ag1
(g2360
g2301
(dp2871
g55
g1987
sg56
g798
sg57
g1988
sg58
g774
stRp2872
ag1
(g2360
g2301
(dp2873
g55
g1995
sg56
g789
sg57
g1996
sg58
g774
stRp2874
ag1
(g2360
g2301
(dp2875
g55
g2003
sg56
g798
sg57
g2004
sg58
g774
stRp2876
ag1
(g2360
g2301
(dp2877
g55
g2011
sg56
g770
sg57
g2012
sg58
g774
stRp2878
ag1
(g2360
g2301
(dp2879
g55
g2019
sg56
g789
sg57
g2020
sg58
g774
stRp2880
ag1
(g2360
g2301
(dp2881
g55
g2027
sg56
g789
sg57
g2028
sg58
g774
stRp2882
ag1
(g2360
g2301
(dp2883
g55
g2035
sg56
g789
sg57
g2036
sg58
g774
stRp2884
ag1
(g2360
g2301
(dp2885
g55
g2043
sg56
g770
sg57
g2044
sg58
g774
stRp2886
ag1
(g2360
g2301
(dp2887
g55
g2051
sg56
g789
sg57
g2052
sg58
g774
stRp2888
ag1
(g2360
g2301
(dp2889
g55
g2059
sg56
g798
sg57
g2060
sg58
g774
stRp2890
ag1
(g2360
g2301
(dp2891
g55
g2067
sg56
g798
sg57
g2068
sg58
g774
stRp2892
ag1
(g2360
g2301
(dp2893
g55
g2075
sg56
g770
sg57
g2076
sg58
g774
stRp2894
ag1
(g2360
g2301
(dp2895
g55
g2083
sg56
g770
sg57
g2084
sg58
g774
stRp2896
ag1
(g2360
g2301
(dp2897
g55
g2091
sg56
g798
sg57
g2092
sg58
g774
stRp2898
ag1
(g2360
g2301
(dp2899
g55
g2099
sg56
g798
sg57
g2100
sg58
g774
stRp2900
ag1
(g2360
g2301
(dp2901
g55
g2107
sg56
g770
sg57
g2108
sg58
g774
stRp2902
ag1
(g2360
g2301
(dp2903
g55
g2115
sg56
g770
sg57
g2116
sg58
g774
stRp2904
ag1
(g2360
g2301
(dp2905
g55
g2123
sg56
g770
sg57
g2124
sg58
g946
stRp2906
ag1
(g2360
g2301
(dp2907
g55
g2131
sg56
g798
sg57
g2132
sg58
g946
stRp2908
ag1
(g2360
g2301
(dp2909
g55
g2139
sg56
g789
sg57
g2140
sg58
g946
stRp2910
ag1
(g2360
g2301
(dp2911
g55
g2147
sg56
g770
sg57
g2148
sg58
g946
stRp2912
ag1
(g2360
g2301
(dp2913
g55
g2155
sg56
g798
sg57
g2156
sg58
g946
stRp2914
ag1
(g2360
g2301
(dp2915
g55
g2163
sg56
g798
sg57
g2164
sg58
g946
stRp2916
ag1
(g2360
g2301
(dp2917
g55
g2171
sg56
g770
sg57
g2172
sg58
g946
stRp2918
ag1
(g2360
g2301
(dp2919
g55
g2179
sg56
g770
sg57
g2180
sg58
g946
stRp2920
ag1
(g2360
g2301
(dp2921
g55
g2187
sg56
g770
sg57
g2188
sg58
g946
stRp2922
ag1
(g2360
g2301
(dp2923
g55
g2195
sg56
g798
sg57
g2196
sg58
g946
stRp2924
ag1
(g2360
g2301
(dp2925
g55
g2203
sg56
g789
sg57
g2204
sg58
g946
stRp2926
ag1
(g2360
g2301
(dp2927
g55
g2211
sg56
g789
sg57
g2212
sg58
g946
stRp2928
ag1
(g2360
g2301
(dp2929
g55
g2219
sg56
g770
sg57
g2220
sg58
g946
stRp2930
ag1
(g2360
g2301
(dp2931
g55
g2227
sg56
g798
sg57
g2228
sg58
g946
stRp2932
ag1
(g2360
g2301
(dp2933
g55
g2235
sg56
g798
sg57
g2236
sg58
g946
stRp2934
ag1
(g2360
g2301
(dp2935
g55
g2243
sg56
g789
sg57
g2244
sg58
g946
stRp2936
ag1
(g2360
g2301
(dp2937
g55
g2251
sg56
g789
sg57
g2252
sg58
g946
stRp2938
ag1
(g2360
g2301
(dp2939
g55
g2259
sg56
g770
sg57
g2260
sg58
g946
stRp2940
ag1
(g2360
g2301
(dp2941
g55
g2267
sg56
g789
sg57
g2268
sg58
g946
stRp2942
ag1
(g2360
g2301
(dp2943
g55
g2275
sg56
g798
sg57
g2276
sg58
g946
stRp2944
ag1
(g2360
g2301
(dp2945
g55
g2283
sg56
g789
sg57
g2284
sg58
g946
stRp2946
asg2338
Nsg2339
g2286
sg2340
I189
sg2341
I0
sg2342
I189
sg2343
I01
sbasS'savePickle'
p2947
I00
sb.