ccopy_reg
_reconstructor
p1
(cpsychopy.data
ExperimentHandler
p2
c__builtin__
object
p3
NtRp4
(dp5
S'originPath'
p6
VC:\u005cUsers\u005cchatterjeelab\u005cDocuments\u005cArrows_VVA\u005cArrows_VVA_Direction.psyexp
p7
sS'dataFileName'
p8
VC:\u005cUsers\u005cchatterjeelab\u005cDocuments\u005cArrows_VVA\u005cdata_Arrows_VVA_Direction\u005c1001_2018_Jul_12_1407
p9
sS'runtimeInfo'
p10
NsS'name'
p11
S'Arrows_VVA_Direction'
p12
sS'dataNames'
p13
(lp14
S'key_resp_7.keys'
p15
aS'key_resp_7.rt'
p16
aS'key_resp_6.keys'
p17
aS'key_resp_6.rt'
p18
aS'key_resp_11.keys'
p19
aS'key_resp_11.rt'
p20
aS'key_resp_2.keys'
p21
aS'key_resp_2.rt'
p22
aS'key_resp_13.keys'
p23
aS'key_resp_13.rt'
p24
aS'direction_response.keys'
p25
aS'direction_response.rt'
p26
asS'autoLog'
p27
I01
sS'extraInfo'
p28
(dp29
S'date'
p30
V2018_Jul_12_1407
p31
sS'frameRate'
p32
cnumpy.core.multiarray
scalar
p33
(cnumpy
dtype
p34
(S'f8'
I0
I1
tRp35
(I3
S'<'
NNNI-1
I-1
I0
tbS'\xf4\xb4\x1c\xa0\xba\xf5M@'
tRp36
sS'expName'
p37
g12
sVparticipant
p38
V1001
p39
sVScr or Whi
p40
VWhi
p41
ssS'loopsUnfinished'
p42
(lp43
g1
(cpsychopy.data
TrialHandler
p44
g3
NtRp45
(dp46
S'origin'
p47
NsS'thisTrial'
p48
g1
(cpsychopy.data
TrialType
p49
c__builtin__
dict
p50
(dp51
S'Stimulus'
p52
Vright_word_10_WHI.jpg
p53
sS'direction'
p54
Vright
p55
sS'number'
p56
g33
(g34
(S'i8'
I0
I1
tRp57
(I3
S'<'
NNNI-1
I-1
I0
tbS'\n\x00\x00\x00\x00\x00\x00\x00'
tRp58
sS'format'
p59
Vword
p60
stRp61
sS'_exp'
p62
I88840560
sg11
S'trials_2'
p63
sg6
I-1
sS'thisRepN'
p64
I0
sg27
I01
sg28
g29
sS'data'
p65
g1
(cpsychopy.data
DataHandler
p66
g50
(dp67
S'ran'
p68
cnumpy.ma.core
_mareconstruct
p69
(cnumpy.ma.core
MaskedArray
p70
cnumpy
ndarray
p71
(I0
tp72
S'b'
tRp73
(I1
(I189
I1
tg34
(S'f4'
I0
I1
tRp74
(I3
S'<'
NNNI-1
I-1
I0
tbI00
S'\x00\x00\x80?\x00\x00\x80?\x00\x00\x80?\x00\x00\x80?\x00\x00\x80?\x00\x00\x80?\x00\x00\x80?\x00\x00\x80?\x00\x00\x80?\x00\x00\x80?\x00\x00\x80?\x00\x00\x80?\x00\x00\x80?\x00\x00\x80?\x00\x00\x80?\x00\x00\x80?\x00\x00\x80?\x00\x00\x80?\x00\x00\x80?\x00\x00\x80?\x00\x00\x80?\x00\x00\x80?\x00\x00\x80?\x00\x00\x80?\x00\x00\x80?\x00\x00\x80?\x00\x00\x80?\x00\x00\x80?\x00\x00\x80?\x00\x00\x80?\x00\x00\x80?\x00\x00\x80?\x00\x00\x80?\x00\x00\x80?\x00\x00\x80?\x00\x00\x80?\x00\x00\x80?\x00\x00\x80?\x00\x00\x80?\x00\x00\x80?\x00\x00\x80?\x00\x00\x80?\x00\x00\x80?\x00\x00\x00\x00\x00\x00\x00\x00\x00\x00\x00\x00\x00\x00\x00\x00\x00\x00\x00\x00\x00\x00\x00\x00\x00\x00\x00\x00\x00\x00\x00\x00\x00\x00\x00\x00\x00\x00\x00\x00\x00\x00\x00\x00\x00\x00\x00\x00\x00\x00\x00\x00\x00\x00\x00\x00\x00\x00\x00\x00\x00\x00\x00\x00\x00\x00\x00\x00\x00\x00\x00\x00\x00\x00\x00\x00\x00\x00\x00\x00\x00\x00\x00\x00\x00\x00\x00\x00\x00\x00\x00\x00\x00\x00\x00\x00\x00\x00\x00\x00\x00\x00\x00\x00\x00\x00\x00\x00\x00\x00\x00\x00\x00\x00\x00\x00\x00\x00\x00\x00\x00\x00\x00\x00\x00\x00\x00\x00\x00\x00\x00\x00\x00\x00\x00\x00\x00\x00\x00\x00\x00\x00\x00\x00\x00\x00\x00\x00\x00\x00\x00\x00\x00\x00\x00\x00\x00\x00\x00\x00\x00\x00\x00\x00\x00\x00\x00\x00\x00\x00\x00\x00\x00\x00\x00\x00\x00\x00\x00\x00\x00\x00\x00\x00\x00\x00\x00\x00\x00\x00\x00\x00\x00\x00\x00\x00\x00\x00\x00\x00\x00\x00\x00\x00\x00\x00\x00\x00\x00\x00\x00\x00\x00\x00\x00\x00\x00\x00\x00\x00\x00\x00\x00\x00\x00\x00\x00\x00\x00\x00\x00\x00\x00\x00\x00\x00\x00\x00\x00\x00\x00\x00\x00\x00\x00\x00\x00\x00\x00\x00\x00\x00\x00\x00\x00\x00\x00\x00\x00\x00\x00\x00\x00\x00\x00\x00\x00\x00\x00\x00\x00\x00\x00\x00\x00\x00\x00\x00\x00\x00\x00\x00\x00\x00\x00\x00\x00\x00\x00\x00\x00\x00\x00\x00\x00\x00\x00\x00\x00\x00\x00\x00\x00\x00\x00\x00\x00\x00\x00\x00\x00\x00\x00\x00\x00\x00\x00\x00\x00\x00\x00\x00\x00\x00\x00\x00\x00\x00\x00\x00\x00\x00\x00\x00\x00\x00\x00\x00\x00\x00\x00\x00\x00\x00\x00\x00\x00\x00\x00\x00\x00\x00\x00\x00\x00\x00\x00\x00\x00\x00\x00\x00\x00\x00\x00\x00\x00\x00\x00\x00\x00\x00\x00\x00\x00\x00\x00\x00\x00\x00\x00\x00\x00\x00\x00\x00\x00\x00\x00\x00\x00\x00\x00\x00\x00\x00\x00\x00\x00\x00\x00\x00\x00\x00\x00\x00\x00\x00\x00\x00\x00\x00\x00\x00\x00\x00\x00\x00\x00\x00\x00\x00\x00\x00\x00\x00\x00\x00\x00\x00\x00\x00\x00\x00\x00\x00\x00\x00\x00\x00\x00\x00\x00\x00\x00\x00\x00\x00\x00\x00\x00\x00\x00\x00\x00\x00\x00\x00\x00\x00\x00\x00\x00\x00\x00\x00\x00\x00\x00\x00\x00\x00\x00\x00\x00\x00\x00\x00\x00\x00\x00\x00\x00\x00\x00\x00\x00\x00\x00\x00\x00\x00\x00\x00\x00\x00\x00\x00\x00\x00\x00\x00\x00\x00\x00\x00\x00\x00\x00\x00\x00\x00\x00\x00\x00\x00\x00\x00\x00\x00\x00\x00\x00\x00\x00\x00\x00\x00\x00\x00\x00\x00\x00\x00\x00\x00\x00\x00\x00\x00\x00\x00\x00\x00\x00\x00\x00\x00\x00\x00\x00\x00\x00\x00\x00\x00\x00\x00\x00\x00\x00\x00\x00\x00\x00\x00\x00\x00\x00\x00\x00\x00\x00\x00\x00\x00\x00\x00\x00\x00\x00\x00\x00\x00'
S'\x00\x00\x00\x00\x00\x00\x00\x00\x00\x00\x00\x00\x00\x00\x00\x00\x00\x00\x00\x00\x00\x00\x00\x00\x00\x00\x00\x00\x00\x00\x00\x00\x00\x00\x00\x00\x00\x00\x00\x00\x00\x00\x00\x00\x00\x00\x00\x00\x00\x00\x00\x00\x00\x00\x00\x00\x00\x00\x00\x00\x00\x00\x00\x00\x00\x00\x00\x00\x00\x00\x00\x00\x00\x00\x00\x00\x00\x00\x00\x00\x00\x00\x00\x00\x00\x00\x00\x00\x00\x00\x00\x00\x00\x00\x00\x00\x00\x00\x00\x00\x00\x00\x00\x00\x00\x00\x00\x00\x00\x00\x00\x00\x00\x00\x00\x00\x00\x00\x00\x00\x00\x00\x00\x00\x00\x00\x00\x00\x00\x00\x00\x00\x00\x00\x00\x00\x00\x00\x00\x00\x00\x00\x00\x00\x00\x00\x00\x00\x00\x00\x00\x00\x00\x00\x00\x00\x00\x00\x00\x00\x00\x00\x00\x00\x00\x00\x00\x00\x00\x00\x00\x00\x00\x00\x00\x00\x00\x00\x00\x00\x00\x00\x00\x00\x00\x00\x00\x00\x00'
Ntbsg26
g69
(g70
g71
g72
S'b'
tRp75
(I1
(I189
I1
tg74
I00
S'aP\x00?\x0f\xd8\x91>\x8a\x12N>\xed\xc7\x1a>\xdf\xb8\xae=\xe7\x10N>\xb9\x86+>\xa1"\n>d\xe7\x1a>\xdfJ\n>@\x05=>h\xf9\x1a>\x13\x0f=>\xe8\xc0\x1a>\xa5L\x1c>\xbf!N>\xbe-\n>\xd1\nN>%\xdd\t>^\x89<>h\xf1+>u\xc07?i\x8c<>\xe29\xad=\x96\x06S=\xcfxR=7o\x8d<E\xb5P=\xdbv\xcf=\xf3\xb9\x8b=\x96\xcb\xae=h\xca\x8e<H\xbe\xb29\xa9\xc4Q=\xbd\xfc\x92<\xbe\\\xad9\xf08\r=G1\xac9V\x07\r=\xa7\xd7^>\x9f\x85,>K\xbb\x1a>\x00\x00\x00\x00\x00\x00\x00\x00\x00\x00\x00\x00\x00\x00\x00\x00\x00\x00\x00\x00\x00\x00\x00\x00\x00\x00\x00\x00\x00\x00\x00\x00\x00\x00\x00\x00\x00\x00\x00\x00\x00\x00\x00\x00\x00\x00\x00\x00\x00\x00\x00\x00\x00\x00\x00\x00\x00\x00\x00\x00\x00\x00\x00\x00\x00\x00\x00\x00\x00\x00\x00\x00\x00\x00\x00\x00\x00\x00\x00\x00\x00\x00\x00\x00\x00\x00\x00\x00\x00\x00\x00\x00\x00\x00\x00\x00\x00\x00\x00\x00\x00\x00\x00\x00\x00\x00\x00\x00\x00\x00\x00\x00\x00\x00\x00\x00\x00\x00\x00\x00\x00\x00\x00\x00\x00\x00\x00\x00\x00\x00\x00\x00\x00\x00\x00\x00\x00\x00\x00\x00\x00\x00\x00\x00\x00\x00\x00\x00\x00\x00\x00\x00\x00\x00\x00\x00\x00\x00\x00\x00\x00\x00\x00\x00\x00\x00\x00\x00\x00\x00\x00\x00\x00\x00\x00\x00\x00\x00\x00\x00\x00\x00\x00\x00\x00\x00\x00\x00\x00\x00\x00\x00\x00\x00\x00\x00\x00\x00\x00\x00\x00\x00\x00\x00\x00\x00\x00\x00\x00\x00\x00\x00\x00\x00\x00\x00\x00\x00\x00\x00\x00\x00\x00\x00\x00\x00\x00\x00\x00\x00\x00\x00\x00\x00\x00\x00\x00\x00\x00\x00\x00\x00\x00\x00\x00\x00\x00\x00\x00\x00\x00\x00\x00\x00\x00\x00\x00\x00\x00\x00\x00\x00\x00\x00\x00\x00\x00\x00\x00\x00\x00\x00\x00\x00\x00\x00\x00\x00\x00\x00\x00\x00\x00\x00\x00\x00\x00\x00\x00\x00\x00\x00\x00\x00\x00\x00\x00\x00\x00\x00\x00\x00\x00\x00\x00\x00\x00\x00\x00\x00\x00\x00\x00\x00\x00\x00\x00\x00\x00\x00\x00\x00\x00\x00\x00\x00\x00\x00\x00\x00\x00\x00\x00\x00\x00\x00\x00\x00\x00\x00\x00\x00\x00\x00\x00\x00\x00\x00\x00\x00\x00\x00\x00\x00\x00\x00\x00\x00\x00\x00\x00\x00\x00\x00\x00\x00\x00\x00\x00\x00\x00\x00\x00\x00\x00\x00\x00\x00\x00\x00\x00\x00\x00\x00\x00\x00\x00\x00\x00\x00\x00\x00\x00\x00\x00\x00\x00\x00\x00\x00\x00\x00\x00\x00\x00\x00\x00\x00\x00\x00\x00\x00\x00\x00\x00\x00\x00\x00\x00\x00\x00\x00\x00\x00\x00\x00\x00\x00\x00\x00\x00\x00\x00\x00\x00\x00\x00\x00\x00\x00\x00\x00\x00\x00\x00\x00\x00\x00\x00\x00\x00\x00\x00\x00\x00\x00\x00\x00\x00\x00\x00\x00\x00\x00\x00\x00\x00\x00\x00\x00\x00\x00\x00\x00\x00\x00\x00\x00\x00\x00\x00\x00\x00\x00\x00\x00\x00\x00\x00\x00\x00\x00\x00\x00\x00\x00\x00\x00\x00\x00\x00\x00\x00\x00\x00\x00\x00\x00\x00\x00\x00\x00\x00\x00\x00\x00\x00\x00\x00\x00\x00\x00\x00\x00\x00\x00\x00\x00\x00\x00\x00\x00\x00\x00\x00\x00\x00\x00\x00\x00\x00\x00\x00\x00\x00\x00\x00\x00\x00\x00\x00\x00\x00\x00\x00\x00\x00\x00\x00\x00\x00\x00\x00\x00\x00\x00\x00\x00\x00\x00\x00\x00\x00\x00\x00\x00\x00\x00\x00\x00\x00\x00\x00\x00\x00\x00\x00\x00'
S'\x00\x00\x00\x00\x00\x00\x00\x00\x00\x00\x00\x00\x00\x00\x00\x00\x00\x00\x00\x00\x00\x00\x00\x00\x00\x00\x00\x00\x00\x00\x00\x00\x00\x00\x00\x00\x00\x00\x00\x00\x00\x00\x01\x01\x01\x01\x01\x01\x01\x01\x01\x01\x01\x01\x01\x01\x01\x01\x01\x01\x01\x01\x01\x01\x01\x01\x01\x01\x01\x01\x01\x01\x01\x01\x01\x01\x01\x01\x01\x01\x01\x01\x01\x01\x01\x01\x01\x01\x01\x01\x01\x01\x01\x01\x01\x01\x01\x01\x01\x01\x01\x01\x01\x01\x01\x01\x01\x01\x01\x01\x01\x01\x01\x01\x01\x01\x01\x01\x01\x01\x01\x01\x01\x01\x01\x01\x01\x01\x01\x01\x01\x01\x01\x01\x01\x01\x01\x01\x01\x01\x01\x01\x01\x01\x01\x01\x01\x01\x01\x01\x01\x01\x01\x01\x01\x01\x01\x01\x01\x01\x01\x01\x01\x01\x01\x01\x01\x01\x01\x01\x01\x01\x01\x01\x01\x01\x01\x01\x01\x01\x01\x01\x01\x01\x01\x01\x01\x01\x01'
Ntbsg25
cnumpy.core.multiarray
_reconstruct
p76
(g71
(I0
tS'b'
tRp77
(I1
(I189
I1
tg34
(S'O4'
I0
I1
tRp78
(I3
S'|'
NNNI-1
I-1
I63
tbI00
(lp79
S'a'
aS'f'
aS'a'
aS'f'
aS'a'
aS'f'
aS'a'
aS'f'
aS'a'
aS'f'
aS'a'
aS'f'
aS'a'
aS'f'
aS'a'
aS'f'
aS'a'
aS'f'
aS'a'
aS'f'
aS'a'
aS'a'
aS'f'
aS'a'
aS'f'
aS'a'
aS'f'
aS'a'
aS'a'
aS'a'
aS'a'
aS'f'
aS'a'
aS'f'
aS'a'
aS'f'
aS'a'
aS'f'
aS'a'
aS'f'
aS'a'
aS'f'
aS'--'
p80
aS'--'
p81
aS'--'
p82
aS'--'
p83
aS'--'
p84
aS'--'
p85
aS'--'
p86
aS'--'
p87
aS'--'
p88
aS'--'
p89
aS'--'
p90
aS'--'
p91
aS'--'
p92
aS'--'
p93
aS'--'
p94
aS'--'
p95
aS'--'
p96
aS'--'
p97
aS'--'
p98
aS'--'
p99
aS'--'
p100
aS'--'
p101
aS'--'
p102
aS'--'
p103
aS'--'
p104
aS'--'
p105
aS'--'
p106
aS'--'
p107
aS'--'
p108
aS'--'
p109
aS'--'
p110
aS'--'
p111
aS'--'
p112
aS'--'
p113
aS'--'
p114
aS'--'
p115
aS'--'
p116
aS'--'
p117
aS'--'
p118
aS'--'
p119
aS'--'
p120
aS'--'
p121
aS'--'
p122
aS'--'
p123
aS'--'
p124
aS'--'
p125
aS'--'
p126
aS'--'
p127
aS'--'
p128
aS'--'
p129
aS'--'
p130
aS'--'
p131
aS'--'
p132
aS'--'
p133
aS'--'
p134
aS'--'
p135
aS'--'
p136
aS'--'
p137
aS'--'
p138
aS'--'
p139
aS'--'
p140
aS'--'
p141
aS'--'
p142
aS'--'
p143
aS'--'
p144
aS'--'
p145
aS'--'
p146
aS'--'
p147
aS'--'
p148
aS'--'
p149
aS'--'
p150
aS'--'
p151
aS'--'
p152
aS'--'
p153
aS'--'
p154
aS'--'
p155
aS'--'
p156
aS'--'
p157
aS'--'
p158
aS'--'
p159
aS'--'
p160
aS'--'
p161
aS'--'
p162
aS'--'
p163
aS'--'
p164
aS'--'
p165
aS'--'
p166
aS'--'
p167
aS'--'
p168
aS'--'
p169
aS'--'
p170
aS'--'
p171
aS'--'
p172
aS'--'
p173
aS'--'
p174
aS'--'
p175
aS'--'
p176
aS'--'
p177
aS'--'
p178
aS'--'
p179
aS'--'
p180
aS'--'
p181
aS'--'
p182
aS'--'
p183
aS'--'
p184
aS'--'
p185
aS'--'
p186
aS'--'
p187
aS'--'
p188
aS'--'
p189
aS'--'
p190
aS'--'
p191
aS'--'
p192
aS'--'
p193
aS'--'
p194
aS'--'
p195
aS'--'
p196
aS'--'
p197
aS'--'
p198
aS'--'
p199
aS'--'
p200
aS'--'
p201
aS'--'
p202
aS'--'
p203
aS'--'
p204
aS'--'
p205
aS'--'
p206
aS'--'
p207
aS'--'
p208
aS'--'
p209
aS'--'
p210
aS'--'
p211
aS'--'
p212
aS'--'
p213
aS'--'
p214
aS'--'
p215
aS'--'
p216
aS'--'
p217
aS'--'
p218
aS'--'
p219
aS'--'
p220
aS'--'
p221
aS'--'
p222
aS'--'
p223
aS'--'
p224
aS'--'
p225
aS'--'
p226
atbsS'order'
p227
g69
(g70
g71
g72
S'b'
tRp228
(I1
(I189
I1
tg74
I00
S'\x00\x00\x00\x00\x00\x00\x80?\x00\x00\x00@\x00\x00@@\x00\x00\x80@\x00\x00\xa0@\x00\x00\xc0@\x00\x00\xe0@\x00\x00\x00A\x00\x00\x10A\x00\x00 A\x00\x000A\x00\x00@A\x00\x00PA\x00\x00`A\x00\x00pA\x00\x00\x80A\x00\x00\x88A\x00\x00\x90A\x00\x00\x98A\x00\x00\xa0A\x00\x00\xa8A\x00\x00\xb0A\x00\x00\xb8A\x00\x00\xc0A\x00\x00\xc8A\x00\x00\xd0A\x00\x00\xd8A\x00\x00\xe0A\x00\x00\xe8A\x00\x00\xf0A\x00\x00\xf8A\x00\x00\x00B\x00\x00\x04B\x00\x00\x08B\x00\x00\x0cB\x00\x00\x10B\x00\x00\x14B\x00\x00\x18B\x00\x00\x1cB\x00\x00 B\x00\x00$B\x00\x00(B\x00\x00\x00\x00\x00\x00\x00\x00\x00\x00\x00\x00\x00\x00\x00\x00\x00\x00\x00\x00\x00\x00\x00\x00\x00\x00\x00\x00\x00\x00\x00\x00\x00\x00\x00\x00\x00\x00\x00\x00\x00\x00\x00\x00\x00\x00\x00\x00\x00\x00\x00\x00\x00\x00\x00\x00\x00\x00\x00\x00\x00\x00\x00\x00\x00\x00\x00\x00\x00\x00\x00\x00\x00\x00\x00\x00\x00\x00\x00\x00\x00\x00\x00\x00\x00\x00\x00\x00\x00\x00\x00\x00\x00\x00\x00\x00\x00\x00\x00\x00\x00\x00\x00\x00\x00\x00\x00\x00\x00\x00\x00\x00\x00\x00\x00\x00\x00\x00\x00\x00\x00\x00\x00\x00\x00\x00\x00\x00\x00\x00\x00\x00\x00\x00\x00\x00\x00\x00\x00\x00\x00\x00\x00\x00\x00\x00\x00\x00\x00\x00\x00\x00\x00\x00\x00\x00\x00\x00\x00\x00\x00\x00\x00\x00\x00\x00\x00\x00\x00\x00\x00\x00\x00\x00\x00\x00\x00\x00\x00\x00\x00\x00\x00\x00\x00\x00\x00\x00\x00\x00\x00\x00\x00\x00\x00\x00\x00\x00\x00\x00\x00\x00\x00\x00\x00\x00\x00\x00\x00\x00\x00\x00\x00\x00\x00\x00\x00\x00\x00\x00\x00\x00\x00\x00\x00\x00\x00\x00\x00\x00\x00\x00\x00\x00\x00\x00\x00\x00\x00\x00\x00\x00\x00\x00\x00\x00\x00\x00\x00\x00\x00\x00\x00\x00\x00\x00\x00\x00\x00\x00\x00\x00\x00\x00\x00\x00\x00\x00\x00\x00\x00\x00\x00\x00\x00\x00\x00\x00\x00\x00\x00\x00\x00\x00\x00\x00\x00\x00\x00\x00\x00\x00\x00\x00\x00\x00\x00\x00\x00\x00\x00\x00\x00\x00\x00\x00\x00\x00\x00\x00\x00\x00\x00\x00\x00\x00\x00\x00\x00\x00\x00\x00\x00\x00\x00\x00\x00\x00\x00\x00\x00\x00\x00\x00\x00\x00\x00\x00\x00\x00\x00\x00\x00\x00\x00\x00\x00\x00\x00\x00\x00\x00\x00\x00\x00\x00\x00\x00\x00\x00\x00\x00\x00\x00\x00\x00\x00\x00\x00\x00\x00\x00\x00\x00\x00\x00\x00\x00\x00\x00\x00\x00\x00\x00\x00\x00\x00\x00\x00\x00\x00\x00\x00\x00\x00\x00\x00\x00\x00\x00\x00\x00\x00\x00\x00\x00\x00\x00\x00\x00\x00\x00\x00\x00\x00\x00\x00\x00\x00\x00\x00\x00\x00\x00\x00\x00\x00\x00\x00\x00\x00\x00\x00\x00\x00\x00\x00\x00\x00\x00\x00\x00\x00\x00\x00\x00\x00\x00\x00\x00\x00\x00\x00\x00\x00\x00\x00\x00\x00\x00\x00\x00\x00\x00\x00\x00\x00\x00\x00\x00\x00\x00\x00\x00\x00\x00\x00\x00\x00\x00\x00\x00\x00\x00\x00\x00\x00\x00\x00\x00\x00\x00\x00\x00\x00\x00\x00\x00\x00\x00\x00\x00\x00\x00\x00\x00\x00\x00\x00\x00\x00\x00\x00\x00\x00\x00\x00\x00\x00\x00\x00\x00\x00\x00\x00\x00\x00\x00\x00\x00\x00\x00\x00\x00\x00\x00\x00\x00\x00\x00\x00\x00\x00\x00\x00\x00\x00\x00\x00\x00\x00\x00\x00\x00\x00\x00\x00\x00\x00\x00\x00\x00\x00\x00\x00\x00\x00\x00\x00\x00\x00\x00\x00\x00\x00\x00\x00\x00\x00\x00\x00\x00\x00\x00'
S'\x00\x00\x00\x00\x00\x00\x00\x00\x00\x00\x00\x00\x00\x00\x00\x00\x00\x00\x00\x00\x00\x00\x00\x00\x00\x00\x00\x00\x00\x00\x00\x00\x00\x00\x00\x00\x00\x00\x00\x00\x00\x00\x00\x01\x01\x01\x01\x01\x01\x01\x01\x01\x01\x01\x01\x01\x01\x01\x01\x01\x01\x01\x01\x01\x01\x01\x01\x01\x01\x01\x01\x01\x01\x01\x01\x01\x01\x01\x01\x01\x01\x01\x01\x01\x01\x01\x01\x01\x01\x01\x01\x01\x01\x01\x01\x01\x01\x01\x01\x01\x01\x01\x01\x01\x01\x01\x01\x01\x01\x01\x01\x01\x01\x01\x01\x01\x01\x01\x01\x01\x01\x01\x01\x01\x01\x01\x01\x01\x01\x01\x01\x01\x01\x01\x01\x01\x01\x01\x01\x01\x01\x01\x01\x01\x01\x01\x01\x01\x01\x01\x01\x01\x01\x01\x01\x01\x01\x01\x01\x01\x01\x01\x01\x01\x01\x01\x01\x01\x01\x01\x01\x01\x01\x01\x01\x01\x01\x01\x01\x01\x01\x01\x01\x01\x01\x01\x01\x01\x01'
NtbstRp229
(dp230
S'isNumeric'
p231
(dp232
g68
I01
sg26
I01
sg25
I00
sg227
I01
ssS'trials'
p233
g45
sS'dataTypes'
p234
(lp235
g68
ag227
ag25
ag26
asS'dataShape'
p236
(lp237
I189
aI1
asbsS'method'
p238
S'sequential'
p239
sS'sequenceIndices'
p240
g76
(g71
(I0
tS'b'
tRp241
(I1
(I189
I1
tg34
(S'i4'
I0
I1
tRp242
(I3
S'<'
NNNI-1
I-1
I0
tbI00
S'\x00\x00\x00\x00\x01\x00\x00\x00\x02\x00\x00\x00\x03\x00\x00\x00\x04\x00\x00\x00\x05\x00\x00\x00\x06\x00\x00\x00\x07\x00\x00\x00\x08\x00\x00\x00\t\x00\x00\x00\n\x00\x00\x00\x0b\x00\x00\x00\x0c\x00\x00\x00\r\x00\x00\x00\x0e\x00\x00\x00\x0f\x00\x00\x00\x10\x00\x00\x00\x11\x00\x00\x00\x12\x00\x00\x00\x13\x00\x00\x00\x14\x00\x00\x00\x15\x00\x00\x00\x16\x00\x00\x00\x17\x00\x00\x00\x18\x00\x00\x00\x19\x00\x00\x00\x1a\x00\x00\x00\x1b\x00\x00\x00\x1c\x00\x00\x00\x1d\x00\x00\x00\x1e\x00\x00\x00\x1f\x00\x00\x00 \x00\x00\x00!\x00\x00\x00"\x00\x00\x00#\x00\x00\x00$\x00\x00\x00%\x00\x00\x00&\x00\x00\x00\'\x00\x00\x00(\x00\x00\x00)\x00\x00\x00*\x00\x00\x00+\x00\x00\x00,\x00\x00\x00-\x00\x00\x00.\x00\x00\x00/\x00\x00\x000\x00\x00\x001\x00\x00\x002\x00\x00\x003\x00\x00\x004\x00\x00\x005\x00\x00\x006\x00\x00\x007\x00\x00\x008\x00\x00\x009\x00\x00\x00:\x00\x00\x00;\x00\x00\x00<\x00\x00\x00=\x00\x00\x00>\x00\x00\x00?\x00\x00\x00@\x00\x00\x00A\x00\x00\x00B\x00\x00\x00C\x00\x00\x00D\x00\x00\x00E\x00\x00\x00F\x00\x00\x00G\x00\x00\x00H\x00\x00\x00I\x00\x00\x00J\x00\x00\x00K\x00\x00\x00L\x00\x00\x00M\x00\x00\x00N\x00\x00\x00O\x00\x00\x00P\x00\x00\x00Q\x00\x00\x00R\x00\x00\x00S\x00\x00\x00T\x00\x00\x00U\x00\x00\x00V\x00\x00\x00W\x00\x00\x00X\x00\x00\x00Y\x00\x00\x00Z\x00\x00\x00[\x00\x00\x00\\\x00\x00\x00]\x00\x00\x00^\x00\x00\x00_\x00\x00\x00`\x00\x00\x00a\x00\x00\x00b\x00\x00\x00c\x00\x00\x00d\x00\x00\x00e\x00\x00\x00f\x00\x00\x00g\x00\x00\x00h\x00\x00\x00i\x00\x00\x00j\x00\x00\x00k\x00\x00\x00l\x00\x00\x00m\x00\x00\x00n\x00\x00\x00o\x00\x00\x00p\x00\x00\x00q\x00\x00\x00r\x00\x00\x00s\x00\x00\x00t\x00\x00\x00u\x00\x00\x00v\x00\x00\x00w\x00\x00\x00x\x00\x00\x00y\x00\x00\x00z\x00\x00\x00{\x00\x00\x00|\x00\x00\x00}\x00\x00\x00~\x00\x00\x00\x7f\x00\x00\x00\x80\x00\x00\x00\x81\x00\x00\x00\x82\x00\x00\x00\x83\x00\x00\x00\x84\x00\x00\x00\x85\x00\x00\x00\x86\x00\x00\x00\x87\x00\x00\x00\x88\x00\x00\x00\x89\x00\x00\x00\x8a\x00\x00\x00\x8b\x00\x00\x00\x8c\x00\x00\x00\x8d\x00\x00\x00\x8e\x00\x00\x00\x8f\x00\x00\x00\x90\x00\x00\x00\x91\x00\x00\x00\x92\x00\x00\x00\x93\x00\x00\x00\x94\x00\x00\x00\x95\x00\x00\x00\x96\x00\x00\x00\x97\x00\x00\x00\x98\x00\x00\x00\x99\x00\x00\x00\x9a\x00\x00\x00\x9b\x00\x00\x00\x9c\x00\x00\x00\x9d\x00\x00\x00\x9e\x00\x00\x00\x9f\x00\x00\x00\xa0\x00\x00\x00\xa1\x00\x00\x00\xa2\x00\x00\x00\xa3\x00\x00\x00\xa4\x00\x00\x00\xa5\x00\x00\x00\xa6\x00\x00\x00\xa7\x00\x00\x00\xa8\x00\x00\x00\xa9\x00\x00\x00\xaa\x00\x00\x00\xab\x00\x00\x00\xac\x00\x00\x00\xad\x00\x00\x00\xae\x00\x00\x00\xaf\x00\x00\x00\xb0\x00\x00\x00\xb1\x00\x00\x00\xb2\x00\x00\x00\xb3\x00\x00\x00\xb4\x00\x00\x00\xb5\x00\x00\x00\xb6\x00\x00\x00\xb7\x00\x00\x00\xb8\x00\x00\x00\xb9\x00\x00\x00\xba\x00\x00\x00\xbb\x00\x00\x00\xbc\x00\x00\x00'
tbsS'finished'
p243
I00
sS'nReps'
p244
I1
sS'nRemaining'
p245
I146
sS'trialList'
p246
(lp247
g1
(g49
g50
(dp248
g52
Vleft_schema_20_WHI.jpg
p249
sg54
Vleft
p250
sg56
g33
(g57
S'\x14\x00\x00\x00\x00\x00\x00\x00'
tRp251
sg59
Vschema
p252
stRp253
ag1
(g49
g50
(dp254
g52
Vleft_schema_18_WHI.jpg
p255
sg54
g250
sg56
g33
(g57
S'\x12\x00\x00\x00\x00\x00\x00\x00'
tRp256
sg59
g252
stRp257
ag1
(g49
g50
(dp258
g52
Vright_schema_1_WHI.jpg
p259
sg54
g55
sg56
g33
(g57
S'\x01\x00\x00\x00\x00\x00\x00\x00'
tRp260
sg59
g252
stRp261
ag1
(g49
g50
(dp262
g52
Vahead_schema_7_WHI.jpg
p263
sg54
Vahead
p264
sg56
g33
(g57
S'\x07\x00\x00\x00\x00\x00\x00\x00'
tRp265
sg59
g252
stRp266
ag1
(g49
g50
(dp267
g52
Vright_schema_9_WHI.jpg
p268
sg54
g55
sg56
g33
(g57
S'\t\x00\x00\x00\x00\x00\x00\x00'
tRp269
sg59
g252
stRp270
ag1
(g49
g50
(dp271
g52
Vahead_schema_5_WHI.jpg
p272
sg54
g264
sg56
g33
(g57
S'\x05\x00\x00\x00\x00\x00\x00\x00'
tRp273
sg59
g252
stRp274
ag1
(g49
g50
(dp275
g52
Vahead_schema_6_WHI.jpg
p276
sg54
g264
sg56
g33
(g57
S'\x06\x00\x00\x00\x00\x00\x00\x00'
tRp277
sg59
g252
stRp278
ag1
(g49
g50
(dp279
g52
Vleft_schema_3_WHI.jpg
p280
sg54
g250
sg56
g33
(g57
S'\x03\x00\x00\x00\x00\x00\x00\x00'
tRp281
sg59
g252
stRp282
ag1
(g49
g50
(dp283
g52
Vright_schema_7_WHI.jpg
p284
sg54
g55
sg56
g33
(g57
S'\x07\x00\x00\x00\x00\x00\x00\x00'
tRp285
sg59
g252
stRp286
ag1
(g49
g50
(dp287
g52
Vleft_schema_4_WHI.jpg
p288
sg54
g250
sg56
g33
(g57
S'\x04\x00\x00\x00\x00\x00\x00\x00'
tRp289
sg59
g252
stRp290
ag1
(g49
g50
(dp291
g52
Vright_schema_19_WHI.jpg
p292
sg54
g55
sg56
g33
(g57
S'\x13\x00\x00\x00\x00\x00\x00\x00'
tRp293
sg59
g252
stRp294
ag1
(g49
g50
(dp295
g52
Vright_schema_17_WHI.jpg
p296
sg54
g55
sg56
g33
(g57
S'\x11\x00\x00\x00\x00\x00\x00\x00'
tRp297
sg59
g252
stRp298
ag1
(g49
g50
(dp299
g52
Vahead_schema_10_WHI.jpg
p300
sg54
g264
sg56
g33
(g57
S'\n\x00\x00\x00\x00\x00\x00\x00'
tRp301
sg59
g252
stRp302
ag1
(g49
g50
(dp303
g52
Vright_schema_6_WHI.jpg
p304
sg54
g55
sg56
g33
(g57
S'\x06\x00\x00\x00\x00\x00\x00\x00'
tRp305
sg59
g252
stRp306
ag1
(g49
g50
(dp307
g52
Vleft_schema_12_WHI.jpg
p308
sg54
g250
sg56
g33
(g57
S'\x0c\x00\x00\x00\x00\x00\x00\x00'
tRp309
sg59
g252
stRp310
ag1
(g49
g50
(dp311
g52
Vahead_schema_4_WHI.jpg
p312
sg54
g264
sg56
g33
(g57
S'\x04\x00\x00\x00\x00\x00\x00\x00'
tRp313
sg59
g252
stRp314
ag1
(g49
g50
(dp315
g52
Vleft_schema_11_WHI.jpg
p316
sg54
g250
sg56
g33
(g57
S'\x0b\x00\x00\x00\x00\x00\x00\x00'
tRp317
sg59
g252
stRp318
ag1
(g49
g50
(dp319
g52
Vahead_schema_13_WHI.jpg
p320
sg54
g264
sg56
g33
(g57
S'\r\x00\x00\x00\x00\x00\x00\x00'
tRp321
sg59
g252
stRp322
ag1
(g49
g50
(dp323
g52
Vahead_schema_12_WHI.jpg
p324
sg54
g264
sg56
g33
(g57
S'\x0c\x00\x00\x00\x00\x00\x00\x00'
tRp325
sg59
g252
stRp326
ag1
(g49
g50
(dp327
g52
Vleft_schema_10_WHI.jpg
p328
sg54
g250
sg56
g33
(g57
S'\n\x00\x00\x00\x00\x00\x00\x00'
tRp329
sg59
g252
stRp330
ag1
(g49
g50
(dp331
g52
Vright_schema_5_WHI.jpg
p332
sg54
g55
sg56
g33
(g57
S'\x05\x00\x00\x00\x00\x00\x00\x00'
tRp333
sg59
g252
stRp334
ag1
(g49
g50
(dp335
g52
Vahead_image_8_WHI.jpg
p336
sg54
g264
sg56
g33
(g57
S'\x08\x00\x00\x00\x00\x00\x00\x00'
tRp337
sg59
Vimage
p338
stRp339
ag1
(g49
g50
(dp340
g52
Vright_image_3_WHI.jpg
p341
sg54
g55
sg56
g33
(g57
S'\x03\x00\x00\x00\x00\x00\x00\x00'
tRp342
sg59
g338
stRp343
ag1
(g49
g50
(dp344
g52
Vleft_image_7_WHI.jpg
p345
sg54
g250
sg56
g33
(g57
S'\x07\x00\x00\x00\x00\x00\x00\x00'
tRp346
sg59
g338
stRp347
ag1
(g49
g50
(dp348
g52
Vahead_image_19_WHI.jpg
p349
sg54
g264
sg56
g33
(g57
S'\x13\x00\x00\x00\x00\x00\x00\x00'
tRp350
sg59
g338
stRp351
ag1
(g49
g50
(dp352
g52
Vright_image_5_WHI.jpg
p353
sg54
g55
sg56
g33
(g57
S'\x05\x00\x00\x00\x00\x00\x00\x00'
tRp354
sg59
g338
stRp355
ag1
(g49
g50
(dp356
g52
Vleft_image_11_WHI.jpg
p357
sg54
g250
sg56
g33
(g57
S'\x0b\x00\x00\x00\x00\x00\x00\x00'
tRp358
sg59
g338
stRp359
ag1
(g49
g50
(dp360
g52
Vright_image_8_WHI.jpg
p361
sg54
g55
sg56
g33
(g57
S'\x08\x00\x00\x00\x00\x00\x00\x00'
tRp362
sg59
g338
stRp363
ag1
(g49
g50
(dp364
g52
Vahead_image_18_WHI.jpg
p365
sg54
g264
sg56
g33
(g57
S'\x12\x00\x00\x00\x00\x00\x00\x00'
tRp366
sg59
g338
stRp367
ag1
(g49
g50
(dp368
g52
Vleft_image_20_WHI.jpg
p369
sg54
g250
sg56
g33
(g57
S'\x14\x00\x00\x00\x00\x00\x00\x00'
tRp370
sg59
g338
stRp371
ag1
(g49
g50
(dp372
g52
Vright_image_18_WHI.jpg
p373
sg54
g55
sg56
g33
(g57
S'\x12\x00\x00\x00\x00\x00\x00\x00'
tRp374
sg59
g338
stRp375
ag1
(g49
g50
(dp376
g52
Vleft_image_10_WHI.jpg
p377
sg54
g250
sg56
g33
(g57
S'\n\x00\x00\x00\x00\x00\x00\x00'
tRp378
sg59
g338
stRp379
ag1
(g49
g50
(dp380
g52
Vleft_image_5_WHI.jpg
p381
sg54
g250
sg56
g33
(g57
S'\x05\x00\x00\x00\x00\x00\x00\x00'
tRp382
sg59
g338
stRp383
ag1
(g49
g50
(dp384
g52
Vahead_image_15_WHI.jpg
p385
sg54
g264
sg56
g33
(g57
S'\x0f\x00\x00\x00\x00\x00\x00\x00'
tRp386
sg59
g338
stRp387
ag1
(g49
g50
(dp388
g52
Vright_image_2_WHI.jpg
p389
sg54
g55
sg56
g33
(g57
S'\x02\x00\x00\x00\x00\x00\x00\x00'
tRp390
sg59
g338
stRp391
ag1
(g49
g50
(dp392
g52
Vahead_image_17_WHI.jpg
p393
sg54
g264
sg56
g33
(g57
S'\x11\x00\x00\x00\x00\x00\x00\x00'
tRp394
sg59
g338
stRp395
ag1
(g49
g50
(dp396
g52
Vleft_image_15_WHI.jpg
p397
sg54
g250
sg56
g33
(g57
S'\x0f\x00\x00\x00\x00\x00\x00\x00'
tRp398
sg59
g338
stRp399
ag1
(g49
g50
(dp400
g52
Vleft_image_19_WHI.jpg
p401
sg54
g250
sg56
g33
(g57
S'\x13\x00\x00\x00\x00\x00\x00\x00'
tRp402
sg59
g338
stRp403
ag1
(g49
g50
(dp404
g52
Vright_image_11_WHI.jpg
p405
sg54
g55
sg56
g33
(g57
S'\x0b\x00\x00\x00\x00\x00\x00\x00'
tRp406
sg59
g338
stRp407
ag1
(g49
g50
(dp408
g52
Vright_image_21_WHI.jpg
p409
sg54
g55
sg56
g33
(g57
S'\x15\x00\x00\x00\x00\x00\x00\x00'
tRp410
sg59
g338
stRp411
ag1
(g49
g50
(dp412
g52
Vahead_image_2_WHI.jpg
p413
sg54
g264
sg56
g33
(g57
S'\x02\x00\x00\x00\x00\x00\x00\x00'
tRp414
sg59
g338
stRp415
ag1
(g49
g50
(dp416
g52
Vahead_image_4_WHI.jpg
p417
sg54
g264
sg56
g33
(g57
S'\x04\x00\x00\x00\x00\x00\x00\x00'
tRp418
sg59
g338
stRp419
ag61
ag1
(g49
g50
(dp420
g52
Vright_word_5_WHI.jpg
p421
sg54
g55
sg56
g33
(g57
S'\x05\x00\x00\x00\x00\x00\x00\x00'
tRp422
sg59
g60
stRp423
ag1
(g49
g50
(dp424
g52
Vleft_word_7_WHI.jpg
p425
sg54
g250
sg56
g33
(g57
S'\x07\x00\x00\x00\x00\x00\x00\x00'
tRp426
sg59
g60
stRp427
ag1
(g49
g50
(dp428
g52
Vright_word_21_WHI.jpg
p429
sg54
g55
sg56
g33
(g57
S'\x15\x00\x00\x00\x00\x00\x00\x00'
tRp430
sg59
g60
stRp431
ag1
(g49
g50
(dp432
g52
Vleft_word_20_WHI.jpg
p433
sg54
g250
sg56
g33
(g57
S'\x14\x00\x00\x00\x00\x00\x00\x00'
tRp434
sg59
g60
stRp435
ag1
(g49
g50
(dp436
g52
Vleft_word_8_WHI.jpg
p437
sg54
g250
sg56
g33
(g57
S'\x08\x00\x00\x00\x00\x00\x00\x00'
tRp438
sg59
g60
stRp439
ag1
(g49
g50
(dp440
g52
Vahead_word_16_WHI.jpg
p441
sg54
g264
sg56
g33
(g57
S'\x10\x00\x00\x00\x00\x00\x00\x00'
tRp442
sg59
g60
stRp443
ag1
(g49
g50
(dp444
g52
Vleft_word_6_WHI.jpg
p445
sg54
g250
sg56
g33
(g57
S'\x06\x00\x00\x00\x00\x00\x00\x00'
tRp446
sg59
g60
stRp447
ag1
(g49
g50
(dp448
g52
Vahead_word_10_WHI.jpg
p449
sg54
g264
sg56
g33
(g57
S'\n\x00\x00\x00\x00\x00\x00\x00'
tRp450
sg59
g60
stRp451
ag1
(g49
g50
(dp452
g52
Vright_word_7_WHI.jpg
p453
sg54
g55
sg56
g33
(g57
S'\x07\x00\x00\x00\x00\x00\x00\x00'
tRp454
sg59
g60
stRp455
ag1
(g49
g50
(dp456
g52
Vahead_word_17_WHI.jpg
p457
sg54
g264
sg56
g33
(g57
S'\x11\x00\x00\x00\x00\x00\x00\x00'
tRp458
sg59
g60
stRp459
ag1
(g49
g50
(dp460
g52
Vright_word_13_WHI.jpg
p461
sg54
g55
sg56
g33
(g57
S'\r\x00\x00\x00\x00\x00\x00\x00'
tRp462
sg59
g60
stRp463
ag1
(g49
g50
(dp464
g52
Vahead_word_19_WHI.jpg
p465
sg54
g264
sg56
g33
(g57
S'\x13\x00\x00\x00\x00\x00\x00\x00'
tRp466
sg59
g60
stRp467
ag1
(g49
g50
(dp468
g52
Vleft_word_12_WHI.jpg
p469
sg54
g250
sg56
g33
(g57
S'\x0c\x00\x00\x00\x00\x00\x00\x00'
tRp470
sg59
g60
stRp471
ag1
(g49
g50
(dp472
g52
Vleft_word_21_WHI.jpg
p473
sg54
g250
sg56
g33
(g57
S'\x15\x00\x00\x00\x00\x00\x00\x00'
tRp474
sg59
g60
stRp475
ag1
(g49
g50
(dp476
g52
Vahead_word_3_WHI.jpg
p477
sg54
g264
sg56
g33
(g57
S'\x03\x00\x00\x00\x00\x00\x00\x00'
tRp478
sg59
g60
stRp479
ag1
(g49
g50
(dp480
g52
Vleft_word_16_WHI.jpg
p481
sg54
g250
sg56
g33
(g57
S'\x10\x00\x00\x00\x00\x00\x00\x00'
tRp482
sg59
g60
stRp483
ag1
(g49
g50
(dp484
g52
Vahead_word_9_WHI.jpg
p485
sg54
g264
sg56
g33
(g57
S'\t\x00\x00\x00\x00\x00\x00\x00'
tRp486
sg59
g60
stRp487
ag1
(g49
g50
(dp488
g52
Vright_word_18_WHI.jpg
p489
sg54
g55
sg56
g33
(g57
S'\x12\x00\x00\x00\x00\x00\x00\x00'
tRp490
sg59
g60
stRp491
ag1
(g49
g50
(dp492
g52
Vahead_word_2_WHI.jpg
p493
sg54
g264
sg56
g33
(g57
S'\x02\x00\x00\x00\x00\x00\x00\x00'
tRp494
sg59
g60
stRp495
ag1
(g49
g50
(dp496
g52
Vright_word_4_WHI.jpg
p497
sg54
g55
sg56
g33
(g57
S'\x04\x00\x00\x00\x00\x00\x00\x00'
tRp498
sg59
g60
stRp499
ag1
(g49
g50
(dp500
g52
Vahead_image_3_WHI.jpg
p501
sg54
g264
sg56
g33
(g57
S'\x03\x00\x00\x00\x00\x00\x00\x00'
tRp502
sg59
g338
stRp503
ag1
(g49
g50
(dp504
g52
Vahead_image_11_WHI.jpg
p505
sg54
g264
sg56
g33
(g57
S'\x0b\x00\x00\x00\x00\x00\x00\x00'
tRp506
sg59
g338
stRp507
ag1
(g49
g50
(dp508
g52
Vright_image_14_WHI.jpg
p509
sg54
g55
sg56
g33
(g57
S'\x0e\x00\x00\x00\x00\x00\x00\x00'
tRp510
sg59
g338
stRp511
ag1
(g49
g50
(dp512
g52
Vahead_image_7_WHI.jpg
p513
sg54
g264
sg56
g33
(g57
S'\x07\x00\x00\x00\x00\x00\x00\x00'
tRp514
sg59
g338
stRp515
ag1
(g49
g50
(dp516
g52
Vright_image_10_WHI.jpg
p517
sg54
g55
sg56
g33
(g57
S'\n\x00\x00\x00\x00\x00\x00\x00'
tRp518
sg59
g338
stRp519
ag1
(g49
g50
(dp520
g52
Vright_image_20_WHI.jpg
p521
sg54
g55
sg56
g33
(g57
S'\x14\x00\x00\x00\x00\x00\x00\x00'
tRp522
sg59
g338
stRp523
ag1
(g49
g50
(dp524
g52
Vleft_image_1_WHI.jpg
p525
sg54
g250
sg56
g33
(g57
S'\x01\x00\x00\x00\x00\x00\x00\x00'
tRp526
sg59
g338
stRp527
ag1
(g49
g50
(dp528
g52
Vleft_image_13_WHI.jpg
p529
sg54
g250
sg56
g33
(g57
S'\r\x00\x00\x00\x00\x00\x00\x00'
tRp530
sg59
g338
stRp531
ag1
(g49
g50
(dp532
g52
Vleft_image_6_WHI.jpg
p533
sg54
g250
sg56
g33
(g57
S'\x06\x00\x00\x00\x00\x00\x00\x00'
tRp534
sg59
g338
stRp535
ag1
(g49
g50
(dp536
g52
Vleft_image_16_WHI.jpg
p537
sg54
g250
sg56
g33
(g57
S'\x10\x00\x00\x00\x00\x00\x00\x00'
tRp538
sg59
g338
stRp539
ag1
(g49
g50
(dp540
g52
Vright_image_19_WHI.jpg
p541
sg54
g55
sg56
g33
(g57
S'\x13\x00\x00\x00\x00\x00\x00\x00'
tRp542
sg59
g338
stRp543
ag1
(g49
g50
(dp544
g52
Vleft_image_8_WHI.jpg
p545
sg54
g250
sg56
g33
(g57
S'\x08\x00\x00\x00\x00\x00\x00\x00'
tRp546
sg59
g338
stRp547
ag1
(g49
g50
(dp548
g52
Vright_image_7_WHI.jpg
p549
sg54
g55
sg56
g33
(g57
S'\x07\x00\x00\x00\x00\x00\x00\x00'
tRp550
sg59
g338
stRp551
ag1
(g49
g50
(dp552
g52
Vleft_image_17_WHI.jpg
p553
sg54
g250
sg56
g33
(g57
S'\x11\x00\x00\x00\x00\x00\x00\x00'
tRp554
sg59
g338
stRp555
ag1
(g49
g50
(dp556
g52
Vright_image_6_WHI.jpg
p557
sg54
g55
sg56
g33
(g57
S'\x06\x00\x00\x00\x00\x00\x00\x00'
tRp558
sg59
g338
stRp559
ag1
(g49
g50
(dp560
g52
Vleft_image_12_WHI.jpg
p561
sg54
g250
sg56
g33
(g57
S'\x0c\x00\x00\x00\x00\x00\x00\x00'
tRp562
sg59
g338
stRp563
ag1
(g49
g50
(dp564
g52
Vright_image_13_WHI.jpg
p565
sg54
g55
sg56
g33
(g57
S'\r\x00\x00\x00\x00\x00\x00\x00'
tRp566
sg59
g338
stRp567
ag1
(g49
g50
(dp568
g52
Vahead_image_16_WHI.jpg
p569
sg54
g264
sg56
g33
(g57
S'\x10\x00\x00\x00\x00\x00\x00\x00'
tRp570
sg59
g338
stRp571
ag1
(g49
g50
(dp572
g52
Vahead_image_13_WHI.jpg
p573
sg54
g264
sg56
g33
(g57
S'\r\x00\x00\x00\x00\x00\x00\x00'
tRp574
sg59
g338
stRp575
ag1
(g49
g50
(dp576
g52
Vahead_image_10_WHI.jpg
p577
sg54
g264
sg56
g33
(g57
S'\n\x00\x00\x00\x00\x00\x00\x00'
tRp578
sg59
g338
stRp579
ag1
(g49
g50
(dp580
g52
Vahead_image_20_WHI.jpg
p581
sg54
g264
sg56
g33
(g57
S'\x14\x00\x00\x00\x00\x00\x00\x00'
tRp582
sg59
g338
stRp583
ag1
(g49
g50
(dp584
g52
Vleft_word_2_WHI.jpg
p585
sg54
g250
sg56
g33
(g57
S'\x02\x00\x00\x00\x00\x00\x00\x00'
tRp586
sg59
g60
stRp587
ag1
(g49
g50
(dp588
g52
Vright_word_16_WHI.jpg
p589
sg54
g55
sg56
g33
(g57
S'\x10\x00\x00\x00\x00\x00\x00\x00'
tRp590
sg59
g60
stRp591
ag1
(g49
g50
(dp592
g52
Vahead_word_20_WHI.jpg
p593
sg54
g264
sg56
g33
(g57
S'\x14\x00\x00\x00\x00\x00\x00\x00'
tRp594
sg59
g60
stRp595
ag1
(g49
g50
(dp596
g52
Vahead_word_7_WHI.jpg
p597
sg54
g264
sg56
g33
(g57
S'\x07\x00\x00\x00\x00\x00\x00\x00'
tRp598
sg59
g60
stRp599
ag1
(g49
g50
(dp600
g52
Vleft_word_3_WHI.jpg
p601
sg54
g250
sg56
g33
(g57
S'\x03\x00\x00\x00\x00\x00\x00\x00'
tRp602
sg59
g60
stRp603
ag1
(g49
g50
(dp604
g52
Vahead_word_14_WHI.jpg
p605
sg54
g264
sg56
g33
(g57
S'\x0e\x00\x00\x00\x00\x00\x00\x00'
tRp606
sg59
g60
stRp607
ag1
(g49
g50
(dp608
g52
Vleft_word_10_WHI.jpg
p609
sg54
g250
sg56
g33
(g57
S'\n\x00\x00\x00\x00\x00\x00\x00'
tRp610
sg59
g60
stRp611
ag1
(g49
g50
(dp612
g52
Vleft_word_5_WHI.jpg
p613
sg54
g250
sg56
g33
(g57
S'\x05\x00\x00\x00\x00\x00\x00\x00'
tRp614
sg59
g60
stRp615
ag1
(g49
g50
(dp616
g52
Vleft_word_1_WHI.jpg
p617
sg54
g250
sg56
g33
(g57
S'\x01\x00\x00\x00\x00\x00\x00\x00'
tRp618
sg59
g60
stRp619
ag1
(g49
g50
(dp620
g52
Vahead_word_4_WHI.jpg
p621
sg54
g264
sg56
g33
(g57
S'\x04\x00\x00\x00\x00\x00\x00\x00'
tRp622
sg59
g60
stRp623
ag1
(g49
g50
(dp624
g52
Vleft_word_11_WHI.jpg
p625
sg54
g250
sg56
g33
(g57
S'\x0b\x00\x00\x00\x00\x00\x00\x00'
tRp626
sg59
g60
stRp627
ag1
(g49
g50
(dp628
g52
Vahead_word_1_WHI.jpg
p629
sg54
g264
sg56
g33
(g57
S'\x01\x00\x00\x00\x00\x00\x00\x00'
tRp630
sg59
g60
stRp631
ag1
(g49
g50
(dp632
g52
Vright_word_9_WHI.jpg
p633
sg54
g55
sg56
g33
(g57
S'\t\x00\x00\x00\x00\x00\x00\x00'
tRp634
sg59
g60
stRp635
ag1
(g49
g50
(dp636
g52
Vright_word_11_WHI.jpg
p637
sg54
g55
sg56
g33
(g57
S'\x0b\x00\x00\x00\x00\x00\x00\x00'
tRp638
sg59
g60
stRp639
ag1
(g49
g50
(dp640
g52
Vright_word_3_WHI.jpg
p641
sg54
g55
sg56
g33
(g57
S'\x03\x00\x00\x00\x00\x00\x00\x00'
tRp642
sg59
g60
stRp643
ag1
(g49
g50
(dp644
g52
Vright_word_2_WHI.jpg
p645
sg54
g55
sg56
g33
(g57
S'\x02\x00\x00\x00\x00\x00\x00\x00'
tRp646
sg59
g60
stRp647
ag1
(g49
g50
(dp648
g52
Vright_word_20_WHI.jpg
p649
sg54
g55
sg56
g33
(g57
S'\x14\x00\x00\x00\x00\x00\x00\x00'
tRp650
sg59
g60
stRp651
ag1
(g49
g50
(dp652
g52
Vright_word_14_WHI.jpg
p653
sg54
g55
sg56
g33
(g57
S'\x0e\x00\x00\x00\x00\x00\x00\x00'
tRp654
sg59
g60
stRp655
ag1
(g49
g50
(dp656
g52
Vahead_word_11_WHI.jpg
p657
sg54
g264
sg56
g33
(g57
S'\x0b\x00\x00\x00\x00\x00\x00\x00'
tRp658
sg59
g60
stRp659
ag1
(g49
g50
(dp660
g52
Vleft_word_15_WHI.jpg
p661
sg54
g250
sg56
g33
(g57
S'\x0f\x00\x00\x00\x00\x00\x00\x00'
tRp662
sg59
g60
stRp663
ag1
(g49
g50
(dp664
g52
Vahead_word_6_WHI.jpg
p665
sg54
g264
sg56
g33
(g57
S'\x06\x00\x00\x00\x00\x00\x00\x00'
tRp666
sg59
g60
stRp667
ag1
(g49
g50
(dp668
g52
Vright_schema_13_WHI.jpg
p669
sg54
g55
sg56
g33
(g57
S'\r\x00\x00\x00\x00\x00\x00\x00'
tRp670
sg59
g252
stRp671
ag1
(g49
g50
(dp672
g52
Vright_schema_8_WHI.jpg
p673
sg54
g55
sg56
g33
(g57
S'\x08\x00\x00\x00\x00\x00\x00\x00'
tRp674
sg59
g252
stRp675
ag1
(g49
g50
(dp676
g52
Vahead_schema_1_WHI.jpg
p677
sg54
g264
sg56
g33
(g57
S'\x01\x00\x00\x00\x00\x00\x00\x00'
tRp678
sg59
g252
stRp679
ag1
(g49
g50
(dp680
g52
Vahead_schema_18_WHI.jpg
p681
sg54
g264
sg56
g33
(g57
S'\x12\x00\x00\x00\x00\x00\x00\x00'
tRp682
sg59
g252
stRp683
ag1
(g49
g50
(dp684
g52
Vahead_schema_16_WHI.jpg
p685
sg54
g264
sg56
g33
(g57
S'\x10\x00\x00\x00\x00\x00\x00\x00'
tRp686
sg59
g252
stRp687
ag1
(g49
g50
(dp688
g52
Vright_schema_4_WHI.jpg
p689
sg54
g55
sg56
g33
(g57
S'\x04\x00\x00\x00\x00\x00\x00\x00'
tRp690
sg59
g252
stRp691
ag1
(g49
g50
(dp692
g52
Vahead_schema_20_WHI.jpg
p693
sg54
g264
sg56
g33
(g57
S'\x14\x00\x00\x00\x00\x00\x00\x00'
tRp694
sg59
g252
stRp695
ag1
(g49
g50
(dp696
g52
Vahead_schema_2_WHI.jpg
p697
sg54
g264
sg56
g33
(g57
S'\x02\x00\x00\x00\x00\x00\x00\x00'
tRp698
sg59
g252
stRp699
ag1
(g49
g50
(dp700
g52
Vleft_schema_17_WHI.jpg
p701
sg54
g250
sg56
g33
(g57
S'\x11\x00\x00\x00\x00\x00\x00\x00'
tRp702
sg59
g252
stRp703
ag1
(g49
g50
(dp704
g52
Vright_schema_10_WHI.jpg
p705
sg54
g55
sg56
g33
(g57
S'\n\x00\x00\x00\x00\x00\x00\x00'
tRp706
sg59
g252
stRp707
ag1
(g49
g50
(dp708
g52
Vleft_schema_8_WHI.jpg
p709
sg54
g250
sg56
g33
(g57
S'\x08\x00\x00\x00\x00\x00\x00\x00'
tRp710
sg59
g252
stRp711
ag1
(g49
g50
(dp712
g52
Vright_schema_11_WHI.jpg
p713
sg54
g55
sg56
g33
(g57
S'\x0b\x00\x00\x00\x00\x00\x00\x00'
tRp714
sg59
g252
stRp715
ag1
(g49
g50
(dp716
g52
Vahead_schema_9_WHI.jpg
p717
sg54
g264
sg56
g33
(g57
S'\t\x00\x00\x00\x00\x00\x00\x00'
tRp718
sg59
g252
stRp719
ag1
(g49
g50
(dp720
g52
Vleft_schema_16_WHI.jpg
p721
sg54
g250
sg56
g33
(g57
S'\x10\x00\x00\x00\x00\x00\x00\x00'
tRp722
sg59
g252
stRp723
ag1
(g49
g50
(dp724
g52
Vleft_schema_2_WHI.jpg
p725
sg54
g250
sg56
g33
(g57
S'\x02\x00\x00\x00\x00\x00\x00\x00'
tRp726
sg59
g252
stRp727
ag1
(g49
g50
(dp728
g52
Vahead_schema_11_WHI.jpg
p729
sg54
g264
sg56
g33
(g57
S'\x0b\x00\x00\x00\x00\x00\x00\x00'
tRp730
sg59
g252
stRp731
ag1
(g49
g50
(dp732
g52
Vright_schema_21_WHI.jpg
p733
sg54
g55
sg56
g33
(g57
S'\x15\x00\x00\x00\x00\x00\x00\x00'
tRp734
sg59
g252
stRp735
ag1
(g49
g50
(dp736
g52
Vleft_schema_13_WHI.jpg
p737
sg54
g250
sg56
g33
(g57
S'\r\x00\x00\x00\x00\x00\x00\x00'
tRp738
sg59
g252
stRp739
ag1
(g49
g50
(dp740
g52
Vright_schema_16_WHI.jpg
p741
sg54
g55
sg56
g33
(g57
S'\x10\x00\x00\x00\x00\x00\x00\x00'
tRp742
sg59
g252
stRp743
ag1
(g49
g50
(dp744
g52
Vleft_schema_7_WHI.jpg
p745
sg54
g250
sg56
g33
(g57
S'\x07\x00\x00\x00\x00\x00\x00\x00'
tRp746
sg59
g252
stRp747
ag1
(g49
g50
(dp748
g52
Vleft_schema_5_WHI.jpg
p749
sg54
g250
sg56
g33
(g57
S'\x05\x00\x00\x00\x00\x00\x00\x00'
tRp750
sg59
g252
stRp751
ag1
(g49
g50
(dp752
g52
Vright_word_19_WHI.jpg
p753
sg54
g55
sg56
g33
(g57
S'\x13\x00\x00\x00\x00\x00\x00\x00'
tRp754
sg59
g60
stRp755
ag1
(g49
g50
(dp756
g52
Vright_word_17_WHI.jpg
p757
sg54
g55
sg56
g33
(g57
S'\x11\x00\x00\x00\x00\x00\x00\x00'
tRp758
sg59
g60
stRp759
ag1
(g49
g50
(dp760
g52
Vright_word_6_WHI.jpg
p761
sg54
g55
sg56
g33
(g57
S'\x06\x00\x00\x00\x00\x00\x00\x00'
tRp762
sg59
g60
stRp763
ag1
(g49
g50
(dp764
g52
Vahead_word_21_WHI.jpg
p765
sg54
g264
sg56
g33
(g57
S'\x15\x00\x00\x00\x00\x00\x00\x00'
tRp766
sg59
g60
stRp767
ag1
(g49
g50
(dp768
g52
Vahead_word_18_WHI.jpg
p769
sg54
g264
sg56
g33
(g57
S'\x12\x00\x00\x00\x00\x00\x00\x00'
tRp770
sg59
g60
stRp771
ag1
(g49
g50
(dp772
g52
Vahead_word_8_WHI.jpg
p773
sg54
g264
sg56
g33
(g57
S'\x08\x00\x00\x00\x00\x00\x00\x00'
tRp774
sg59
g60
stRp775
ag1
(g49
g50
(dp776
g52
Vleft_word_4_WHI.jpg
p777
sg54
g250
sg56
g33
(g57
S'\x04\x00\x00\x00\x00\x00\x00\x00'
tRp778
sg59
g60
stRp779
ag1
(g49
g50
(dp780
g52
Vleft_word_18_WHI.jpg
p781
sg54
g250
sg56
g33
(g57
S'\x12\x00\x00\x00\x00\x00\x00\x00'
tRp782
sg59
g60
stRp783
ag1
(g49
g50
(dp784
g52
Vleft_word_19_WHI.jpg
p785
sg54
g250
sg56
g33
(g57
S'\x13\x00\x00\x00\x00\x00\x00\x00'
tRp786
sg59
g60
stRp787
ag1
(g49
g50
(dp788
g52
Vahead_word_15_WHI.jpg
p789
sg54
g264
sg56
g33
(g57
S'\x0f\x00\x00\x00\x00\x00\x00\x00'
tRp790
sg59
g60
stRp791
ag1
(g49
g50
(dp792
g52
Vright_word_8_WHI.jpg
p793
sg54
g55
sg56
g33
(g57
S'\x08\x00\x00\x00\x00\x00\x00\x00'
tRp794
sg59
g60
stRp795
ag1
(g49
g50
(dp796
g52
Vleft_word_13_WHI.jpg
p797
sg54
g250
sg56
g33
(g57
S'\r\x00\x00\x00\x00\x00\x00\x00'
tRp798
sg59
g60
stRp799
ag1
(g49
g50
(dp800
g52
Vleft_word_14_WHI.jpg
p801
sg54
g250
sg56
g33
(g57
S'\x0e\x00\x00\x00\x00\x00\x00\x00'
tRp802
sg59
g60
stRp803
ag1
(g49
g50
(dp804
g52
Vahead_word_5_WHI.jpg
p805
sg54
g264
sg56
g33
(g57
S'\x05\x00\x00\x00\x00\x00\x00\x00'
tRp806
sg59
g60
stRp807
ag1
(g49
g50
(dp808
g52
Vright_word_12_WHI.jpg
p809
sg54
g55
sg56
g33
(g57
S'\x0c\x00\x00\x00\x00\x00\x00\x00'
tRp810
sg59
g60
stRp811
ag1
(g49
g50
(dp812
g52
Vahead_word_13_WHI.jpg
p813
sg54
g264
sg56
g33
(g57
S'\r\x00\x00\x00\x00\x00\x00\x00'
tRp814
sg59
g60
stRp815
ag1
(g49
g50
(dp816
g52
Vleft_word_17_WHI.jpg
p817
sg54
g250
sg56
g33
(g57
S'\x11\x00\x00\x00\x00\x00\x00\x00'
tRp818
sg59
g60
stRp819
ag1
(g49
g50
(dp820
g52
Vleft_word_9_WHI.jpg
p821
sg54
g250
sg56
g33
(g57
S'\t\x00\x00\x00\x00\x00\x00\x00'
tRp822
sg59
g60
stRp823
ag1
(g49
g50
(dp824
g52
Vright_word_15_WHI.jpg
p825
sg54
g55
sg56
g33
(g57
S'\x0f\x00\x00\x00\x00\x00\x00\x00'
tRp826
sg59
g60
stRp827
ag1
(g49
g50
(dp828
g52
Vahead_word_12_WHI.jpg
p829
sg54
g264
sg56
g33
(g57
S'\x0c\x00\x00\x00\x00\x00\x00\x00'
tRp830
sg59
g60
stRp831
ag1
(g49
g50
(dp832
g52
Vright_word_1_WHI.jpg
p833
sg54
g55
sg56
g33
(g57
S'\x01\x00\x00\x00\x00\x00\x00\x00'
tRp834
sg59
g60
stRp835
ag1
(g49
g50
(dp836
g52
Vright_schema_18_WHI.jpg
p837
sg54
g55
sg56
g33
(g57
S'\x12\x00\x00\x00\x00\x00\x00\x00'
tRp838
sg59
g252
stRp839
ag1
(g49
g50
(dp840
g52
Vright_schema_3_WHI.jpg
p841
sg54
g55
sg56
g33
(g57
S'\x03\x00\x00\x00\x00\x00\x00\x00'
tRp842
sg59
g252
stRp843
ag1
(g49
g50
(dp844
g52
Vleft_schema_9_WHI.jpg
p845
sg54
g250
sg56
g33
(g57
S'\t\x00\x00\x00\x00\x00\x00\x00'
tRp846
sg59
g252
stRp847
ag1
(g49
g50
(dp848
g52
Vahead_schema_8_WHI.jpg
p849
sg54
g264
sg56
g33
(g57
S'\x08\x00\x00\x00\x00\x00\x00\x00'
tRp850
sg59
g252
stRp851
ag1
(g49
g50
(dp852
g52
Vahead_schema_15_WHI.jpg
p853
sg54
g264
sg56
g33
(g57
S'\x0f\x00\x00\x00\x00\x00\x00\x00'
tRp854
sg59
g252
stRp855
ag1
(g49
g50
(dp856
g52
Vright_schema_15_WHI.jpg
p857
sg54
g55
sg56
g33
(g57
S'\x0f\x00\x00\x00\x00\x00\x00\x00'
tRp858
sg59
g252
stRp859
ag1
(g49
g50
(dp860
g52
Vahead_schema_14_WHI.jpg
p861
sg54
g264
sg56
g33
(g57
S'\x0e\x00\x00\x00\x00\x00\x00\x00'
tRp862
sg59
g252
stRp863
ag1
(g49
g50
(dp864
g52
Vleft_schema_6_WHI.jpg
p865
sg54
g250
sg56
g33
(g57
S'\x06\x00\x00\x00\x00\x00\x00\x00'
tRp866
sg59
g252
stRp867
ag1
(g49
g50
(dp868
g52
Vright_schema_14_WHI.jpg
p869
sg54
g55
sg56
g33
(g57
S'\x0e\x00\x00\x00\x00\x00\x00\x00'
tRp870
sg59
g252
stRp871
ag1
(g49
g50
(dp872
g52
Vright_schema_20_WHI.jpg
p873
sg54
g55
sg56
g33
(g57
S'\x14\x00\x00\x00\x00\x00\x00\x00'
tRp874
sg59
g252
stRp875
ag1
(g49
g50
(dp876
g52
Vright_schema_12_WHI.jpg
p877
sg54
g55
sg56
g33
(g57
S'\x0c\x00\x00\x00\x00\x00\x00\x00'
tRp878
sg59
g252
stRp879
ag1
(g49
g50
(dp880
g52
Vleft_schema_15_WHI.jpg
p881
sg54
g250
sg56
g33
(g57
S'\x0f\x00\x00\x00\x00\x00\x00\x00'
tRp882
sg59
g252
stRp883
ag1
(g49
g50
(dp884
g52
Vright_schema_2_WHI.jpg
p885
sg54
g55
sg56
g33
(g57
S'\x02\x00\x00\x00\x00\x00\x00\x00'
tRp886
sg59
g252
stRp887
ag1
(g49
g50
(dp888
g52
Vahead_schema_3_WHI.jpg
p889
sg54
g264
sg56
g33
(g57
S'\x03\x00\x00\x00\x00\x00\x00\x00'
tRp890
sg59
g252
stRp891
ag1
(g49
g50
(dp892
g52
Vahead_schema_21_WHI.jpg
p893
sg54
g264
sg56
g33
(g57
S'\x15\x00\x00\x00\x00\x00\x00\x00'
tRp894
sg59
g252
stRp895
ag1
(g49
g50
(dp896
g52
Vleft_schema_21_WHI.jpg
p897
sg54
g250
sg56
g33
(g57
S'\x15\x00\x00\x00\x00\x00\x00\x00'
tRp898
sg59
g252
stRp899
ag1
(g49
g50
(dp900
g52
Vleft_schema_19_WHI.jpg
p901
sg54
g250
sg56
g33
(g57
S'\x13\x00\x00\x00\x00\x00\x00\x00'
tRp902
sg59
g252
stRp903
ag1
(g49
g50
(dp904
g52
Vahead_schema_17_WHI.jpg
p905
sg54
g264
sg56
g33
(g57
S'\x11\x00\x00\x00\x00\x00\x00\x00'
tRp906
sg59
g252
stRp907
ag1
(g49
g50
(dp908
g52
Vahead_schema_19_WHI.jpg
p909
sg54
g264
sg56
g33
(g57
S'\x13\x00\x00\x00\x00\x00\x00\x00'
tRp910
sg59
g252
stRp911
ag1
(g49
g50
(dp912
g52
Vleft_schema_14_WHI.jpg
p913
sg54
g250
sg56
g33
(g57
S'\x0e\x00\x00\x00\x00\x00\x00\x00'
tRp914
sg59
g252
stRp915
ag1
(g49
g50
(dp916
g52
Vleft_schema_1_WHI.jpg
p917
sg54
g250
sg56
g33
(g57
S'\x01\x00\x00\x00\x00\x00\x00\x00'
tRp918
sg59
g252
stRp919
ag1
(g49
g50
(dp920
g52
Vleft_image_4_WHI.jpg
p921
sg54
g250
sg56
g33
(g57
S'\x04\x00\x00\x00\x00\x00\x00\x00'
tRp922
sg59
g338
stRp923
ag1
(g49
g50
(dp924
g52
Vahead_image_5_WHI.jpg
p925
sg54
g264
sg56
g33
(g57
S'\x05\x00\x00\x00\x00\x00\x00\x00'
tRp926
sg59
g338
stRp927
ag1
(g49
g50
(dp928
g52
Vright_image_15_WHI.jpg
p929
sg54
g55
sg56
g33
(g57
S'\x0f\x00\x00\x00\x00\x00\x00\x00'
tRp930
sg59
g338
stRp931
ag1
(g49
g50
(dp932
g52
Vleft_image_18_WHI.jpg
p933
sg54
g250
sg56
g33
(g57
S'\x12\x00\x00\x00\x00\x00\x00\x00'
tRp934
sg59
g338
stRp935
ag1
(g49
g50
(dp936
g52
Vahead_image_1_WHI.jpg
p937
sg54
g264
sg56
g33
(g57
S'\x01\x00\x00\x00\x00\x00\x00\x00'
tRp938
sg59
g338
stRp939
ag1
(g49
g50
(dp940
g52
Vahead_image_14_WHI.jpg
p941
sg54
g264
sg56
g33
(g57
S'\x0e\x00\x00\x00\x00\x00\x00\x00'
tRp942
sg59
g338
stRp943
ag1
(g49
g50
(dp944
g52
Vleft_image_9_WHI.jpg
p945
sg54
g250
sg56
g33
(g57
S'\t\x00\x00\x00\x00\x00\x00\x00'
tRp946
sg59
g338
stRp947
ag1
(g49
g50
(dp948
g52
Vleft_image_14_WHI.jpg
p949
sg54
g250
sg56
g33
(g57
S'\x0e\x00\x00\x00\x00\x00\x00\x00'
tRp950
sg59
g338
stRp951
ag1
(g49
g50
(dp952
g52
Vleft_image_3_WHI.jpg
p953
sg54
g250
sg56
g33
(g57
S'\x03\x00\x00\x00\x00\x00\x00\x00'
tRp954
sg59
g338
stRp955
ag1
(g49
g50
(dp956
g52
Vahead_image_9_WHI.jpg
p957
sg54
g264
sg56
g33
(g57
S'\t\x00\x00\x00\x00\x00\x00\x00'
tRp958
sg59
g338
stRp959
ag1
(g49
g50
(dp960
g52
Vright_image_4_WHI.jpg
p961
sg54
g55
sg56
g33
(g57
S'\x04\x00\x00\x00\x00\x00\x00\x00'
tRp962
sg59
g338
stRp963
ag1
(g49
g50
(dp964
g52
Vright_image_16_WHI.jpg
p965
sg54
g55
sg56
g33
(g57
S'\x10\x00\x00\x00\x00\x00\x00\x00'
tRp966
sg59
g338
stRp967
ag1
(g49
g50
(dp968
g52
Vleft_image_21_WHI.jpg
p969
sg54
g250
sg56
g33
(g57
S'\x15\x00\x00\x00\x00\x00\x00\x00'
tRp970
sg59
g338
stRp971
ag1
(g49
g50
(dp972
g52
Vahead_image_12_WHI.jpg
p973
sg54
g264
sg56
g33
(g57
S'\x0c\x00\x00\x00\x00\x00\x00\x00'
tRp974
sg59
g338
stRp975
ag1
(g49
g50
(dp976
g52
Vahead_image_21_WHI.jpg
p977
sg54
g264
sg56
g33
(g57
S'\x15\x00\x00\x00\x00\x00\x00\x00'
tRp978
sg59
g338
stRp979
ag1
(g49
g50
(dp980
g52
Vright_image_17_WHI.jpg
p981
sg54
g55
sg56
g33
(g57
S'\x11\x00\x00\x00\x00\x00\x00\x00'
tRp982
sg59
g338
stRp983
ag1
(g49
g50
(dp984
g52
Vright_image_12_WHI.jpg
p985
sg54
g55
sg56
g33
(g57
S'\x0c\x00\x00\x00\x00\x00\x00\x00'
tRp986
sg59
g338
stRp987
ag1
(g49
g50
(dp988
g52
Vleft_image_2_WHI.jpg
p989
sg54
g250
sg56
g33
(g57
S'\x02\x00\x00\x00\x00\x00\x00\x00'
tRp990
sg59
g338
stRp991
ag1
(g49
g50
(dp992
g52
Vright_image_9_WHI.jpg
p993
sg54
g55
sg56
g33
(g57
S'\t\x00\x00\x00\x00\x00\x00\x00'
tRp994
sg59
g338
stRp995
ag1
(g49
g50
(dp996
g52
Vahead_image_6_WHI.jpg
p997
sg54
g264
sg56
g33
(g57
S'\x06\x00\x00\x00\x00\x00\x00\x00'
tRp998
sg59
g338
stRp999
ag1
(g49
g50
(dp1000
g52
Vright_image_1_WHI.jpg
p1001
sg54
g55
sg56
g33
(g57
S'\x01\x00\x00\x00\x00\x00\x00\x00'
tRp1002
sg59
g338
stRp1003
asS'seed'
p1004
NsS'thisIndex'
p1005
g33
(g242
S'*\x00\x00\x00'
tRp1006
sS'thisN'
p1007
I42
sS'thisTrialN'
p1008
I42
sS'nTotal'
p1009
I189
sS'_warnUseOfNext'
p1010
I01
sbasS'saveWideText'
p1011
I00
sS'thisEntry'
p1012
(dp1013
sS'version'
p1014
S''
sS'_paramNamesSoFar'
p1015
(lp1016
VStimulus_Practice
p1017
aVDirection
p1018
aVNumber
p1019
aVBackground
p1020
aVFormat
p1021
ag52
ag54
ag56
ag59
asS'entries'
p1022
(lp1023
(dp1024
g37
g12
sg38
g39
sg15
S'd'
sg30
g31
sg16
F18.123125968057138
sg32
g36
sg40
g41
sa(dp1025
S'repeat_spatial_practice.thisN'
p1026
I0
sg37
g12
sg19
S'f'
sg1017
Vahead_schema_3_WHI.jpg
p1027
sg17
S'd'
sg32
g36
sS'repeat_spatial_practice.thisIndex'
p1028
g33
(g242
S'\x00\x00\x00\x00'
tRp1029
sg20
F2.749832326100659
sg30
g31
sg40
g41
sS'trials.thisIndex'
p1030
g33
(g242
S'\x03\x00\x00\x00'
tRp1031
sg1018
Vahead
p1032
sS'repeat_spatial_practice.thisTrial'
p1033
Nsg38
g39
sg1021
Vschema
p1034
sS'trials.thisRepN'
p1035
I0
sS'repeat_spatial_practice.thisTrialN'
p1036
I0
sg1019
I3
sS'trials.thisN'
p1037
I0
sS'repeat_spatial_practice.thisRepN'
p1038
I0
sS'trials.thisTrialN'
p1039
I0
sg1020
V_WHI
p1040
sg18
F19.291425939900364
sa(dp1041
S'repeat_spatial_practice.thisN'
p1042
I0
sg1018
g1032
sS'repeat_spatial_practice.thisTrial'
p1043
Nsg38
g39
sg1020
g1040
sg19
S'f'
sS'trials.thisRepN'
p1044
I0
sS'repeat_spatial_practice.thisTrialN'
p1045
I0
sg1021
g1034
sg32
g36
sg1019
I2
sS'trials.thisN'
p1046
I1
sS'repeat_spatial_practice.thisRepN'
p1047
I0
sS'repeat_spatial_practice.thisIndex'
p1048
g1029
sS'trials.thisTrialN'
p1049
I1
sg1017
Vahead_schema_2_WHI.jpg
p1050
sg20
F0.75096844785548456
sg30
g31
sg40
g41
sg37
g12
sS'trials.thisIndex'
p1051
g33
(g242
S'\x00\x00\x00\x00'
tRp1052
sa(dp1053
S'repeat_spatial_practice.thisN'
p1054
I0
sg1018
Vleft
p1055
sS'repeat_spatial_practice.thisTrial'
p1056
Nsg38
g39
sg1020
g1040
sg19
S'a'
sS'trials.thisRepN'
p1057
I0
sS'repeat_spatial_practice.thisTrialN'
p1058
I0
sg1021
g1034
sg32
g36
sg1019
I3
sS'trials.thisN'
p1059
I2
sS'repeat_spatial_practice.thisRepN'
p1060
I0
sS'repeat_spatial_practice.thisIndex'
p1061
g1029
sS'trials.thisTrialN'
p1062
I2
sg1017
Vleft_schema_3_WHI.jpg
p1063
sg20
F1.0508461340396025
sg30
g31
sg40
g41
sg37
g12
sS'trials.thisIndex'
p1064
g33
(g242
S'\x05\x00\x00\x00'
tRp1065
sa(dp1066
S'repeat_spatial_practice.thisN'
p1067
I0
sg1018
Vright
p1068
sS'repeat_spatial_practice.thisTrial'
p1069
Nsg38
g39
sg1020
g1040
sg19
S'f'
sS'trials.thisRepN'
p1070
I0
sS'repeat_spatial_practice.thisTrialN'
p1071
I0
sg1021
g1034
sg32
g36
sg1019
I2
sS'trials.thisN'
p1072
I3
sS'repeat_spatial_practice.thisRepN'
p1073
I0
sS'repeat_spatial_practice.thisIndex'
p1074
g1029
sS'trials.thisTrialN'
p1075
I3
sg1017
Vright_schema_2_WHI.jpg
p1076
sg20
F0.65106113147157885
sg30
g31
sg40
g41
sg37
g12
sS'trials.thisIndex'
p1077
g33
(g242
S'\x07\x00\x00\x00'
tRp1078
sa(dp1079
S'repeat_spatial_practice.thisN'
p1080
I0
sg1018
g1032
sS'repeat_spatial_practice.thisTrial'
p1081
Nsg38
g39
sg1020
g1040
sg19
S'a'
sS'trials.thisRepN'
p1082
I0
sS'repeat_spatial_practice.thisTrialN'
p1083
I0
sg1021
g1034
sg32
g36
sg1019
I1
sS'trials.thisN'
p1084
I4
sS'repeat_spatial_practice.thisRepN'
p1085
I0
sS'repeat_spatial_practice.thisIndex'
p1086
g1029
sS'trials.thisTrialN'
p1087
I4
sg1017
Vahead_schema_1_WHI.jpg
p1088
sg20
F0.10160614416054159
sg30
g31
sg40
g41
sg37
g12
sS'trials.thisIndex'
p1089
g33
(g242
S'\x04\x00\x00\x00'
tRp1090
sa(dp1091
S'repeat_spatial_practice.thisN'
p1092
I0
sg1018
g1055
sS'repeat_spatial_practice.thisTrial'
p1093
Nsg38
g39
sg1020
g1040
sg19
S'a'
sS'trials.thisRepN'
p1094
I0
sS'repeat_spatial_practice.thisTrialN'
p1095
I0
sg1021
g1034
sg32
g36
sg1019
I1
sS'trials.thisN'
p1096
I5
sS'repeat_spatial_practice.thisRepN'
p1097
I0
sS'repeat_spatial_practice.thisIndex'
p1098
g1029
sS'trials.thisTrialN'
p1099
I5
sg1017
Vleft_schema_1_WHI.jpg
p1100
sg20
F1.6006059018527594
sg30
g31
sg40
g41
sg37
g12
sS'trials.thisIndex'
p1101
g33
(g242
S'\x06\x00\x00\x00'
tRp1102
sa(dp1103
S'repeat_spatial_practice.thisN'
p1104
I0
sg1018
g1055
sS'repeat_spatial_practice.thisTrial'
p1105
Nsg38
g39
sg1020
g1040
sg19
S'f'
sS'trials.thisRepN'
p1106
I0
sS'repeat_spatial_practice.thisTrialN'
p1107
I0
sg1021
g1034
sg32
g36
sg1019
I2
sS'trials.thisN'
p1108
I6
sS'repeat_spatial_practice.thisRepN'
p1109
I0
sS'repeat_spatial_practice.thisIndex'
p1110
g1029
sS'trials.thisTrialN'
p1111
I6
sg1017
Vleft_schema_2_WHI.jpg
p1112
sg20
F0.86755881527460588
sg30
g31
sg40
g41
sg37
g12
sS'trials.thisIndex'
p1113
g33
(g242
S'\x08\x00\x00\x00'
tRp1114
sa(dp1115
S'repeat_spatial_practice.thisN'
p1116
I0
sg1018
g1068
sS'repeat_spatial_practice.thisTrial'
p1117
Nsg38
g39
sg1020
g1040
sg19
S'a'
sS'trials.thisRepN'
p1118
I0
sS'repeat_spatial_practice.thisTrialN'
p1119
I0
sg1021
g1034
sg32
g36
sg1019
I1
sS'trials.thisN'
p1120
I7
sS'repeat_spatial_practice.thisRepN'
p1121
I0
sS'repeat_spatial_practice.thisIndex'
p1122
g1029
sS'trials.thisTrialN'
p1123
I7
sg1017
Vright_schema_1_WHI.jpg
p1124
sg20
F0.53446719414932886
sg30
g31
sg40
g41
sg37
g12
sS'trials.thisIndex'
p1125
g33
(g242
S'\x01\x00\x00\x00'
tRp1126
sa(dp1127
S'repeat_spatial_practice.thisN'
p1128
I0
sg1018
g1068
sS'repeat_spatial_practice.thisTrial'
p1129
Nsg38
g39
sg1020
g1040
sg19
S'f'
sS'trials.thisRepN'
p1130
I0
sS'repeat_spatial_practice.thisTrialN'
p1131
I0
sg1021
g1034
sg32
g36
sg1019
I3
sS'trials.thisN'
p1132
I8
sS'repeat_spatial_practice.thisRepN'
p1133
I0
sS'repeat_spatial_practice.thisIndex'
p1134
g1029
sS'trials.thisTrialN'
p1135
I8
sg1017
Vright_schema_3_WHI.jpg
p1136
sg20
F0.53486836204501742
sg30
g31
sg40
g41
sg37
g12
sS'trials.thisIndex'
p1137
g33
(g242
S'\x02\x00\x00\x00'
tRp1138
sa(dp1139
S'repeat_spatial_practice.thisN'
p1140
I0
sg22
F14.676316859271537
sg37
g12
sg19
S'f'
sVStimulus_Practice
p1141
Vleft_image_2_WHI.jpg
p1142
sg32
g36
sg21
S'd'
sS'trials_3.thisRepN'
p1143
I0
sS'repeat_spatial_practice.thisIndex'
p1144
g1029
sg20
F6.5645253344882804
sg30
g31
sS'trials_3.thisIndex'
p1145
g33
(g242
S'\x08\x00\x00\x00'
tRp1146
sS'trials_3.thisTrialN'
p1147
I0
sg40
g41
sVDirection
p1148
Vleft
p1149
sS'repeat_spatial_practice.thisTrial'
p1150
Nsg38
g39
sVFormat
p1151
Vimage
p1152
sS'repeat_spatial_practice.thisTrialN'
p1153
I0
sS'trials_3.thisN'
p1154
I0
sVNumber
p1155
I2
sS'repeat_spatial_practice.thisRepN'
p1156
I0
sVBackground
p1157
V_WHI
p1158
sa(dp1159
S'repeat_spatial_practice.thisN'
p1160
I0
sg1148
g1149
sS'repeat_spatial_practice.thisTrial'
p1161
Nsg38
g39
sg1157
g1158
sg19
S'f'
sg1141
Vleft_image_1_WHI.jpg
p1162
sS'repeat_spatial_practice.thisTrialN'
p1163
I0
sS'trials_3.thisN'
p1164
I1
sg32
g36
sg1155
I1
sS'repeat_spatial_practice.thisRepN'
p1165
I0
sS'repeat_spatial_practice.thisIndex'
p1166
g1029
sS'trials_3.thisRepN'
p1167
I0
sg20
F1.1661678470409242
sg30
g31
sS'trials_3.thisIndex'
p1168
g33
(g242
S'\x03\x00\x00\x00'
tRp1169
sg1151
g1152
sS'trials_3.thisTrialN'
p1170
I1
sg37
g12
sg40
g41
sa(dp1171
S'repeat_spatial_practice.thisN'
p1172
I0
sg1148
Vright
p1173
sS'repeat_spatial_practice.thisTrial'
p1174
Nsg38
g39
sg1157
g1158
sg19
S'a'
sg1141
Vright_image_2_WHI.jpg
p1175
sS'repeat_spatial_practice.thisTrialN'
p1176
I0
sS'trials_3.thisN'
p1177
I2
sg32
g36
sg1155
I2
sS'repeat_spatial_practice.thisRepN'
p1178
I0
sS'repeat_spatial_practice.thisIndex'
p1179
g1029
sS'trials_3.thisRepN'
p1180
I0
sg20
F0.63420494012098061
sg30
g31
sS'trials_3.thisIndex'
p1181
g33
(g242
S'\x07\x00\x00\x00'
tRp1182
sg1151
g1152
sS'trials_3.thisTrialN'
p1183
I2
sg37
g12
sg40
g41
sa(dp1184
S'repeat_spatial_practice.thisN'
p1185
I0
sg1148
g1149
sS'repeat_spatial_practice.thisTrial'
p1186
Nsg38
g39
sg1157
g1158
sg19
S'a'
sg1141
Vleft_image_3_WHI.jpg
p1187
sS'repeat_spatial_practice.thisTrialN'
p1188
I0
sS'trials_3.thisN'
p1189
I3
sg32
g36
sg1155
I3
sS'repeat_spatial_practice.thisRepN'
p1190
I0
sS'repeat_spatial_practice.thisIndex'
p1191
g1029
sS'trials_3.thisRepN'
p1192
I0
sg20
F1.4837910767582798
sg30
g31
sS'trials_3.thisIndex'
p1193
g33
(g242
S'\x02\x00\x00\x00'
tRp1194
sg1151
g1152
sS'trials_3.thisTrialN'
p1195
I3
sg37
g12
sg40
g41
sa(dp1196
S'repeat_spatial_practice.thisN'
p1197
I0
sg1148
g1173
sS'repeat_spatial_practice.thisTrial'
p1198
Nsg38
g39
sg1157
g1158
sg19
S'f'
sg1141
Vright_image_1_WHI.jpg
p1199
sS'repeat_spatial_practice.thisTrialN'
p1200
I0
sS'trials_3.thisN'
p1201
I4
sg32
g36
sg1155
I1
sS'repeat_spatial_practice.thisRepN'
p1202
I0
sS'repeat_spatial_practice.thisIndex'
p1203
g1029
sS'trials_3.thisRepN'
p1204
I0
sg20
F2.8994907086580497
sg30
g31
sS'trials_3.thisIndex'
p1205
g33
(g242
S'\x05\x00\x00\x00'
tRp1206
sg1151
g1152
sS'trials_3.thisTrialN'
p1207
I4
sg37
g12
sg40
g41
sa(dp1208
S'repeat_spatial_practice.thisN'
p1209
I0
sg1148
Vahead
p1210
sS'repeat_spatial_practice.thisTrial'
p1211
Nsg38
g39
sg1157
g1158
sg19
S'a'
sg1141
Vahead_image_1_WHI.jpg
p1212
sS'repeat_spatial_practice.thisTrialN'
p1213
I0
sS'trials_3.thisN'
p1214
I5
sg32
g36
sg1155
I1
sS'repeat_spatial_practice.thisRepN'
p1215
I0
sS'repeat_spatial_practice.thisIndex'
p1216
g1029
sS'trials_3.thisRepN'
p1217
I0
sg20
F1.01691152485364
sg30
g31
sS'trials_3.thisIndex'
p1218
g33
(g242
S'\x00\x00\x00\x00'
tRp1219
sg1151
g1152
sS'trials_3.thisTrialN'
p1220
I5
sg37
g12
sg40
g41
sa(dp1221
S'repeat_spatial_practice.thisN'
p1222
I0
sg1148
g1210
sS'repeat_spatial_practice.thisTrial'
p1223
Nsg38
g39
sg1157
g1158
sg19
S'f'
sg1141
Vahead_image_3_WHI.jpg
p1224
sS'repeat_spatial_practice.thisTrialN'
p1225
I0
sS'trials_3.thisN'
p1226
I6
sg32
g36
sg1155
I3
sS'repeat_spatial_practice.thisRepN'
p1227
I0
sS'repeat_spatial_practice.thisIndex'
p1228
g1029
sS'trials_3.thisRepN'
p1229
I0
sg20
F0.7010580747428321
sg30
g31
sS'trials_3.thisIndex'
p1230
g33
(g242
S'\x06\x00\x00\x00'
tRp1231
sg1151
g1152
sS'trials_3.thisTrialN'
p1232
I6
sg37
g12
sg40
g41
sa(dp1233
S'repeat_spatial_practice.thisN'
p1234
I0
sg1148
g1173
sS'repeat_spatial_practice.thisTrial'
p1235
Nsg38
g39
sg1157
g1158
sg19
S'a'
sg1141
Vright_image_3_WHI.jpg
p1236
sS'repeat_spatial_practice.thisTrialN'
p1237
I0
sS'trials_3.thisN'
p1238
I7
sg32
g36
sg1155
I3
sS'repeat_spatial_practice.thisRepN'
p1239
I0
sS'repeat_spatial_practice.thisIndex'
p1240
g1029
sS'trials_3.thisRepN'
p1241
I0
sg20
F1.4503906143672793
sg30
g31
sS'trials_3.thisIndex'
p1242
g33
(g242
S'\x04\x00\x00\x00'
tRp1243
sg1151
g1152
sS'trials_3.thisTrialN'
p1244
I7
sg37
g12
sg40
g41
sa(dp1245
S'repeat_spatial_practice.thisN'
p1246
I0
sg1148
g1210
sS'repeat_spatial_practice.thisTrial'
p1247
Nsg38
g39
sg1157
g1158
sg19
S'a'
sg1141
Vahead_image_2_WHI.jpg
p1248
sS'repeat_spatial_practice.thisTrialN'
p1249
I0
sS'trials_3.thisN'
p1250
I8
sg32
g36
sg1155
I2
sS'repeat_spatial_practice.thisRepN'
p1251
I0
sS'repeat_spatial_practice.thisIndex'
p1252
g1029
sS'trials_3.thisRepN'
p1253
I0
sg20
F0.85070173144777073
sg30
g31
sS'trials_3.thisIndex'
p1254
g33
(g242
S'\x01\x00\x00\x00'
tRp1255
sg1151
g1152
sS'trials_3.thisTrialN'
p1256
I8
sg37
g12
sg40
g41
sa(dp1257
S'repeat_spatial_practice.thisN'
p1258
I0
sg22
F1.9840590426319977
sg37
g12
sg19
S'a'
sVStimulus_Practice
p1259
Vleft_word_1_WHI.jpg
p1260
sg32
g36
sg21
S'd'
sS'repeat_spatial_practice.thisIndex'
p1261
g1029
sg20
F1.1840378909546416
sg30
g31
sg40
g41
sVDirection
p1262
Vleft
p1263
sS'repeat_spatial_practice.thisTrial'
p1264
Nsg38
g39
sVFormat
p1265
Vword
p1266
sS'trials_4.thisRepN'
p1267
I0
sS'trials_4.thisIndex'
p1268
g33
(g242
S'\x00\x00\x00\x00'
tRp1269
sVNumber
p1270
I1
sS'trials_4.thisTrialN'
p1271
I0
sS'repeat_spatial_practice.thisRepN'
p1272
I0
sVBackground
p1273
V_WHI
p1274
sS'trials_4.thisN'
p1275
I0
sS'repeat_spatial_practice.thisTrialN'
p1276
I0
sa(dp1277
S'trials_4.thisIndex'
p1278
g33
(g242
S'\x03\x00\x00\x00'
tRp1279
sS'repeat_spatial_practice.thisN'
p1280
I0
sg1262
Vright
p1281
sS'repeat_spatial_practice.thisTrial'
p1282
Nsg38
g39
sg19
S'f'
sS'trials_4.thisRepN'
p1283
I0
sg1259
Vright_word_2_WHI.jpg
p1284
sS'repeat_spatial_practice.thisTrialN'
p1285
I0
sg1265
g1266
sg32
g36
sg1270
I2
sS'repeat_spatial_practice.thisRepN'
p1286
I0
sS'repeat_spatial_practice.thisIndex'
p1287
g1029
sg1273
g1274
sg20
F0.45115903607256769
sg30
g31
sS'trials_4.thisN'
p1288
I1
sS'trials_4.thisTrialN'
p1289
I1
sg37
g12
sg40
g41
sa(dp1290
S'trials_4.thisIndex'
p1291
g33
(g242
S'\x04\x00\x00\x00'
tRp1292
sS'repeat_spatial_practice.thisN'
p1293
I0
sg1262
Vahead
p1294
sS'repeat_spatial_practice.thisTrial'
p1295
Nsg38
g39
sg19
S'a'
sS'trials_4.thisRepN'
p1296
I0
sg1259
Vahead_word_3_WHI.jpg
p1297
sS'repeat_spatial_practice.thisTrialN'
p1298
I0
sg1265
g1266
sg32
g36
sg1270
I3
sS'repeat_spatial_practice.thisRepN'
p1299
I0
sS'repeat_spatial_practice.thisIndex'
p1300
g1029
sg1273
g1274
sg20
F0.61776285756604921
sg30
g31
sS'trials_4.thisN'
p1301
I2
sS'trials_4.thisTrialN'
p1302
I2
sg37
g12
sg40
g41
sa(dp1303
S'trials_4.thisIndex'
p1304
g33
(g242
S'\x07\x00\x00\x00'
tRp1305
sS'repeat_spatial_practice.thisN'
p1306
I0
sg1262
g1294
sS'repeat_spatial_practice.thisTrial'
p1307
Nsg38
g39
sg19
S'f'
sS'trials_4.thisRepN'
p1308
I0
sg1259
Vahead_word_2_WHI.jpg
p1309
sS'repeat_spatial_practice.thisTrialN'
p1310
I0
sg1265
g1266
sg32
g36
sg1270
I2
sS'repeat_spatial_practice.thisRepN'
p1311
I0
sS'repeat_spatial_practice.thisIndex'
p1312
g1029
sg1273
g1274
sg20
F0.23463323928081081
sg30
g31
sS'trials_4.thisN'
p1313
I3
sS'trials_4.thisTrialN'
p1314
I3
sg37
g12
sg40
g41
sa(dp1315
S'trials_4.thisIndex'
p1316
g33
(g242
S'\x08\x00\x00\x00'
tRp1317
sS'repeat_spatial_practice.thisN'
p1318
I0
sg1262
g1294
sS'repeat_spatial_practice.thisTrial'
p1319
Nsg38
g39
sg19
S'a'
sS'trials_4.thisRepN'
p1320
I0
sg1259
Vahead_word_1_WHI.jpg
p1321
sS'repeat_spatial_practice.thisTrialN'
p1322
I0
sg1265
g1266
sg32
g36
sg1270
I1
sS'repeat_spatial_practice.thisRepN'
p1323
I0
sS'repeat_spatial_practice.thisIndex'
p1324
g1029
sg1273
g1274
sg20
F0.23408838277646282
sg30
g31
sS'trials_4.thisN'
p1325
I4
sS'trials_4.thisTrialN'
p1326
I4
sg37
g12
sg40
g41
sa(dp1327
S'trials_4.thisIndex'
p1328
g33
(g242
S'\x02\x00\x00\x00'
tRp1329
sS'repeat_spatial_practice.thisN'
p1330
I0
sg1262
g1263
sS'repeat_spatial_practice.thisTrial'
p1331
Nsg38
g39
sg19
S'f'
sS'trials_4.thisRepN'
p1332
I0
sg1259
Vleft_word_3_WHI.jpg
p1333
sS'repeat_spatial_practice.thisTrialN'
p1334
I0
sg1265
g1266
sg32
g36
sg1270
I3
sS'repeat_spatial_practice.thisRepN'
p1335
I0
sS'repeat_spatial_practice.thisIndex'
p1336
g1029
sg1273
g1274
sg20
F0.20147196041580173
sg30
g31
sS'trials_4.thisN'
p1337
I5
sS'trials_4.thisTrialN'
p1338
I5
sg37
g12
sg40
g41
sa(dp1339
S'trials_4.thisIndex'
p1340
g33
(g242
S'\x05\x00\x00\x00'
tRp1341
sS'repeat_spatial_practice.thisN'
p1342
I0
sg1262
g1263
sS'repeat_spatial_practice.thisTrial'
p1343
Nsg38
g39
sg19
S'a'
sS'trials_4.thisRepN'
p1344
I0
sg1259
Vleft_word_2_WHI.jpg
p1345
sS'repeat_spatial_practice.thisTrialN'
p1346
I0
sg1265
g1266
sg32
g36
sg1270
I2
sS'repeat_spatial_practice.thisRepN'
p1347
I0
sS'repeat_spatial_practice.thisIndex'
p1348
g1029
sg1273
g1274
sg20
F0.21780694587141625
sg30
g31
sS'trials_4.thisN'
p1349
I6
sS'trials_4.thisTrialN'
p1350
I6
sg37
g12
sg40
g41
sa(dp1351
S'trials_4.thisIndex'
p1352
g33
(g242
S'\x06\x00\x00\x00'
tRp1353
sS'repeat_spatial_practice.thisN'
p1354
I0
sg1262
g1281
sS'repeat_spatial_practice.thisTrial'
p1355
Nsg38
g39
sg19
S'f'
sS'trials_4.thisRepN'
p1356
I0
sg1259
Vright_word_1_WHI.jpg
p1357
sS'repeat_spatial_practice.thisTrialN'
p1358
I0
sg1265
g1266
sg32
g36
sg1270
I1
sS'repeat_spatial_practice.thisRepN'
p1359
I0
sS'repeat_spatial_practice.thisIndex'
p1360
g1029
sg1273
g1274
sg20
F0.20162189635993855
sg30
g31
sS'trials_4.thisN'
p1361
I7
sS'trials_4.thisTrialN'
p1362
I7
sg37
g12
sg40
g41
sa(dp1363
S'trials_4.thisIndex'
p1364
g33
(g242
S'\x01\x00\x00\x00'
tRp1365
sS'repeat_spatial_practice.thisN'
p1366
I0
sg1262
g1281
sS'repeat_spatial_practice.thisTrial'
p1367
Nsg38
g39
sg19
S'a'
sS'trials_4.thisRepN'
p1368
I0
sg1259
Vright_word_3_WHI.jpg
p1369
sS'repeat_spatial_practice.thisTrialN'
p1370
I0
sg1265
g1266
sg32
g36
sg1270
I3
sS'repeat_spatial_practice.thisRepN'
p1371
I0
sS'repeat_spatial_practice.thisIndex'
p1372
g1029
sg1273
g1274
sg20
F0.23486885290549253
sg30
g31
sS'trials_4.thisN'
p1373
I8
sS'trials_4.thisTrialN'
p1374
I8
sg37
g12
sg40
g41
sa(dp1375
S'repeat_spatial_practice.thisN'
p1376
I1
sg37
g12
sg19
S'a'
sVStimulus_Practice
p1377
Vleft_image_1_WHI.jpg
p1378
sg17
S'd'
sg32
g36
sS'repeat_spatial_practice.thisIndex'
p1379
g33
(g242
S'\x00\x00\x00\x00'
tRp1380
sg20
F0.46760334981809137
sg30
g31
sg40
g41
sS'trials.thisIndex'
p1381
g33
(g242
S'\x03\x00\x00\x00'
tRp1382
sVDirection
p1383
Vleft
p1384
sS'repeat_spatial_practice.thisTrial'
p1385
Nsg38
g39
sVFormat
p1386
Vimage
p1387
sS'trials.thisRepN'
p1388
I0
sS'repeat_spatial_practice.thisTrialN'
p1389
I0
sVNumber
p1390
I1
sS'trials.thisN'
p1391
I0
sS'repeat_spatial_practice.thisRepN'
p1392
I1
sS'trials.thisTrialN'
p1393
I0
sVBackground
p1394
V_WHI
p1395
sg18
F1.2999946005220409
sa(dp1396
S'repeat_spatial_practice.thisN'
p1397
I1
sg1383
g1384
sS'repeat_spatial_practice.thisTrial'
p1398
Nsg38
g39
sg1394
g1395
sg19
S'f'
sS'trials.thisRepN'
p1399
I0
sS'repeat_spatial_practice.thisTrialN'
p1400
I0
sg1386
g1387
sg32
g36
sg1390
I3
sS'trials.thisN'
p1401
I1
sS'repeat_spatial_practice.thisRepN'
p1402
I1
sS'repeat_spatial_practice.thisIndex'
p1403
g1380
sS'trials.thisTrialN'
p1404
I1
sg1377
Vleft_image_3_WHI.jpg
p1405
sg20
F0.26765216824787785
sg30
g31
sg40
g41
sg37
g12
sS'trials.thisIndex'
p1406
g33
(g242
S'\x02\x00\x00\x00'
tRp1407
sa(dp1408
S'repeat_spatial_practice.thisN'
p1409
I1
sg1383
Vahead
p1410
sS'repeat_spatial_practice.thisTrial'
p1411
Nsg38
g39
sg1394
g1395
sg19
S'a'
sS'trials.thisRepN'
p1412
I0
sS'repeat_spatial_practice.thisTrialN'
p1413
I0
sg1386
g1387
sg32
g36
sg1390
I1
sS'trials.thisN'
p1414
I2
sS'repeat_spatial_practice.thisRepN'
p1415
I1
sS'repeat_spatial_practice.thisIndex'
p1416
g1380
sS'trials.thisTrialN'
p1417
I2
sg1377
Vahead_image_1_WHI.jpg
p1418
sg20
F0.23483181515803153
sg30
g31
sg40
g41
sg37
g12
sS'trials.thisIndex'
p1419
g33
(g242
S'\x00\x00\x00\x00'
tRp1420
sa(dp1421
S'repeat_spatial_practice.thisN'
p1422
I1
sg1383
Vright
p1423
sS'repeat_spatial_practice.thisTrial'
p1424
Nsg38
g39
sg1394
g1395
sg19
S'f'
sS'trials.thisRepN'
p1425
I0
sS'repeat_spatial_practice.thisTrialN'
p1426
I0
sg1386
g1387
sg32
g36
sg1390
I2
sS'trials.thisN'
p1427
I3
sS'repeat_spatial_practice.thisRepN'
p1428
I1
sS'repeat_spatial_practice.thisIndex'
p1429
g1380
sS'trials.thisTrialN'
p1430
I3
sg1377
Vright_image_2_WHI.jpg
p1431
sg20
F0.25160232882626588
sg30
g31
sg40
g41
sg37
g12
sS'trials.thisIndex'
p1432
g33
(g242
S'\x07\x00\x00\x00'
tRp1433
sa(dp1434
S'repeat_spatial_practice.thisN'
p1435
I1
sg1383
g1384
sS'repeat_spatial_practice.thisTrial'
p1436
Nsg38
g39
sg1394
g1395
sg19
S'a'
sS'trials.thisRepN'
p1437
I0
sS'repeat_spatial_practice.thisTrialN'
p1438
I0
sg1386
g1387
sg32
g36
sg1390
I2
sS'trials.thisN'
p1439
I4
sS'repeat_spatial_practice.thisRepN'
p1440
I1
sS'repeat_spatial_practice.thisIndex'
p1441
g1380
sS'trials.thisTrialN'
p1442
I4
sg1377
Vleft_image_2_WHI.jpg
p1443
sg20
F0.21759899899916491
sg30
g31
sg40
g41
sg37
g12
sS'trials.thisIndex'
p1444
g33
(g242
S'\x08\x00\x00\x00'
tRp1445
sa(dp1446
S'repeat_spatial_practice.thisN'
p1447
I1
sg1383
g1423
sS'repeat_spatial_practice.thisTrial'
p1448
Nsg38
g39
sg1394
g1395
sg19
S'f'
sS'trials.thisRepN'
p1449
I0
sS'repeat_spatial_practice.thisTrialN'
p1450
I0
sg1386
g1387
sg32
g36
sg1390
I1
sS'trials.thisN'
p1451
I5
sS'repeat_spatial_practice.thisRepN'
p1452
I1
sS'repeat_spatial_practice.thisIndex'
p1453
g1380
sS'trials.thisTrialN'
p1454
I5
sg1377
Vright_image_1_WHI.jpg
p1455
sg20
F0.18480006532809057
sg30
g31
sg40
g41
sg37
g12
sS'trials.thisIndex'
p1456
g33
(g242
S'\x05\x00\x00\x00'
tRp1457
sa(dp1458
S'repeat_spatial_practice.thisN'
p1459
I1
sg1383
g1410
sS'repeat_spatial_practice.thisTrial'
p1460
Nsg38
g39
sg1394
g1395
sg19
S'a'
sS'trials.thisRepN'
p1461
I0
sS'repeat_spatial_practice.thisTrialN'
p1462
I0
sg1386
g1387
sg32
g36
sg1390
I2
sS'trials.thisN'
p1463
I6
sS'repeat_spatial_practice.thisRepN'
p1464
I1
sS'repeat_spatial_practice.thisIndex'
p1465
g1380
sS'trials.thisTrialN'
p1466
I6
sg1377
Vahead_image_2_WHI.jpg
p1467
sg20
F0.18512135663331719
sg30
g31
sg40
g41
sg37
g12
sS'trials.thisIndex'
p1468
g33
(g242
S'\x01\x00\x00\x00'
tRp1469
sa(dp1470
S'repeat_spatial_practice.thisN'
p1471
I1
sg1383
g1423
sS'repeat_spatial_practice.thisTrial'
p1472
Nsg38
g39
sg1394
g1395
sg19
S'f'
sS'trials.thisRepN'
p1473
I0
sS'repeat_spatial_practice.thisTrialN'
p1474
I0
sg1386
g1387
sg32
g36
sg1390
I3
sS'trials.thisN'
p1475
I7
sS'repeat_spatial_practice.thisRepN'
p1476
I1
sS'repeat_spatial_practice.thisIndex'
p1477
g1380
sS'trials.thisTrialN'
p1478
I7
sg1377
Vright_image_3_WHI.jpg
p1479
sg20
F0.18399683706593351
sg30
g31
sg40
g41
sg37
g12
sS'trials.thisIndex'
p1480
g33
(g242
S'\x04\x00\x00\x00'
tRp1481
sa(dp1482
S'repeat_spatial_practice.thisN'
p1483
I1
sg1383
g1410
sS'repeat_spatial_practice.thisTrial'
p1484
Nsg38
g39
sg1394
g1395
sg19
S'a'
sS'trials.thisRepN'
p1485
I0
sS'repeat_spatial_practice.thisTrialN'
p1486
I0
sg1386
g1387
sg32
g36
sg1390
I3
sS'trials.thisN'
p1487
I8
sS'repeat_spatial_practice.thisRepN'
p1488
I1
sS'repeat_spatial_practice.thisIndex'
p1489
g1380
sS'trials.thisTrialN'
p1490
I8
sg1377
Vahead_image_3_WHI.jpg
p1491
sg20
F0.1514428880163905
sg30
g31
sg40
g41
sg37
g12
sS'trials.thisIndex'
p1492
g33
(g242
S'\x06\x00\x00\x00'
tRp1493
sa(dp1494
S'repeat_spatial_practice.thisN'
p1495
I1
sg22
F1.1512648390853428
sg37
g12
sg19
S'a'
sVStimulus_Practice
p1496
Vahead_schema_3_WHI.jpg
p1497
sg32
g36
sg21
S'd'
sS'trials_3.thisRepN'
p1498
I0
sS'repeat_spatial_practice.thisIndex'
p1499
g1380
sg20
F0.3011860557799082
sg30
g31
sS'trials_3.thisIndex'
p1500
g33
(g242
S'\x03\x00\x00\x00'
tRp1501
sS'trials_3.thisTrialN'
p1502
I0
sg40
g41
sVDirection
p1503
Vahead
p1504
sS'repeat_spatial_practice.thisTrial'
p1505
Nsg38
g39
sVFormat
p1506
Vschema
p1507
sS'repeat_spatial_practice.thisTrialN'
p1508
I0
sS'trials_3.thisN'
p1509
I0
sVNumber
p1510
I3
sS'repeat_spatial_practice.thisRepN'
p1511
I1
sVBackground
p1512
V_WHI
p1513
sa(dp1514
S'repeat_spatial_practice.thisN'
p1515
I1
sg1503
Vright
p1516
sS'repeat_spatial_practice.thisTrial'
p1517
Nsg38
g39
sg1512
g1513
sg19
S'f'
sg1496
Vright_schema_2_WHI.jpg
p1518
sS'repeat_spatial_practice.thisTrialN'
p1519
I0
sS'trials_3.thisN'
p1520
I1
sg32
g36
sg1510
I2
sS'repeat_spatial_practice.thisRepN'
p1521
I1
sS'repeat_spatial_practice.thisIndex'
p1522
g1380
sS'trials_3.thisRepN'
p1523
I0
sg20
F0.10127235819345515
sg30
g31
sS'trials_3.thisIndex'
p1524
g33
(g242
S'\x07\x00\x00\x00'
tRp1525
sg1506
g1507
sS'trials_3.thisTrialN'
p1526
I1
sg37
g12
sg40
g41
sa(dp1527
S'repeat_spatial_practice.thisN'
p1528
I1
sg1503
Vleft
p1529
sS'repeat_spatial_practice.thisTrial'
p1530
Nsg38
g39
sg1512
g1513
sg19
S'a'
sg1496
Vleft_schema_3_WHI.jpg
p1531
sS'repeat_spatial_practice.thisTrialN'
p1532
I0
sS'trials_3.thisN'
p1533
I2
sg32
g36
sg1510
I3
sS'repeat_spatial_practice.thisRepN'
p1534
I1
sS'repeat_spatial_practice.thisIndex'
p1535
g1380
sS'trials_3.thisRepN'
p1536
I0
sg20
F0.068249413085140986
sg30
g31
sS'trials_3.thisIndex'
p1537
g33
(g242
S'\x05\x00\x00\x00'
tRp1538
sg1506
g1507
sS'trials_3.thisTrialN'
p1539
I2
sg37
g12
sg40
g41
sa(dp1540
S'repeat_spatial_practice.thisN'
p1541
I1
sg1503
g1504
sS'repeat_spatial_practice.thisTrial'
p1542
Nsg38
g39
sg1512
g1513
sg19
S'f'
sg1496
Vahead_schema_1_WHI.jpg
p1543
sS'repeat_spatial_practice.thisTrialN'
p1544
I0
sS'trials_3.thisN'
p1545
I3
sg32
g36
sg1510
I1
sS'repeat_spatial_practice.thisRepN'
p1546
I1
sS'repeat_spatial_practice.thisIndex'
p1547
g1380
sS'trials_3.thisRepN'
p1548
I0
sg20
F0.051767615354037844
sg30
g31
sS'trials_3.thisIndex'
p1549
g33
(g242
S'\x04\x00\x00\x00'
tRp1550
sg1506
g1507
sS'trials_3.thisTrialN'
p1551
I3
sg37
g12
sg40
g41
sa(dp1552
S'repeat_spatial_practice.thisN'
p1553
I1
sg1503
g1516
sS'repeat_spatial_practice.thisTrial'
p1554
Nsg38
g39
sg1512
g1513
sg19
S'a'
sg1496
Vright_schema_1_WHI.jpg
p1555
sS'repeat_spatial_practice.thisTrialN'
p1556
I0
sS'trials_3.thisN'
p1557
I4
sg32
g36
sg1510
I1
sS'repeat_spatial_practice.thisRepN'
p1558
I1
sS'repeat_spatial_practice.thisIndex'
p1559
g1380
sS'trials_3.thisRepN'
p1560
I0
sg20
F0.050569912766150082
sg30
g31
sS'trials_3.thisIndex'
p1561
g33
(g242
S'\x01\x00\x00\x00'
tRp1562
sg1506
g1507
sS'trials_3.thisTrialN'
p1563
I4
sg37
g12
sg40
g41
sa(dp1564
S'repeat_spatial_practice.thisN'
p1565
I1
sg1503
g1529
sS'repeat_spatial_practice.thisTrial'
p1566
Nsg38
g39
sg1512
g1513
sg19
S'f'
sg1496
Vleft_schema_2_WHI.jpg
p1567
sS'repeat_spatial_practice.thisTrialN'
p1568
I0
sS'trials_3.thisN'
p1569
I5
sg32
g36
sg1510
I2
sS'repeat_spatial_practice.thisRepN'
p1570
I1
sS'repeat_spatial_practice.thisIndex'
p1571
g1380
sS'trials_3.thisRepN'
p1572
I0
sg20
F0.068341338097525295
sg30
g31
sS'trials_3.thisIndex'
p1573
g33
(g242
S'\x08\x00\x00\x00'
tRp1574
sg1506
g1507
sS'trials_3.thisTrialN'
p1575
I5
sg37
g12
sg40
g41
sa(dp1576
S'repeat_spatial_practice.thisN'
p1577
I1
sg1503
g1504
sS'repeat_spatial_practice.thisTrial'
p1578
Nsg38
g39
sg1512
g1513
sg19
S'a'
sg1496
Vahead_schema_2_WHI.jpg
p1579
sS'repeat_spatial_practice.thisTrialN'
p1580
I0
sS'trials_3.thisN'
p1581
I6
sg32
g36
sg1510
I2
sS'repeat_spatial_practice.thisRepN'
p1582
I1
sS'repeat_spatial_practice.thisIndex'
p1583
g1380
sS'trials_3.thisRepN'
p1584
I0
sg20
F0.051776986349068466
sg30
g31
sS'trials_3.thisIndex'
p1585
g33
(g242
S'\x00\x00\x00\x00'
tRp1586
sg1506
g1507
sS'trials_3.thisTrialN'
p1587
I6
sg37
g12
sg40
g41
sa(dp1588
S'repeat_spatial_practice.thisN'
p1589
I1
sg1503
g1516
sS'repeat_spatial_practice.thisTrial'
p1590
Nsg38
g39
sg1512
g1513
sg19
S'f'
sg1496
Vright_schema_3_WHI.jpg
p1591
sS'repeat_spatial_practice.thisTrialN'
p1592
I0
sS'trials_3.thisN'
p1593
I7
sg32
g36
sg1510
I3
sS'repeat_spatial_practice.thisRepN'
p1594
I1
sS'repeat_spatial_practice.thisIndex'
p1595
g1380
sS'trials_3.thisRepN'
p1596
I0
sg20
F0.051472205846948782
sg30
g31
sS'trials_3.thisIndex'
p1597
g33
(g242
S'\x02\x00\x00\x00'
tRp1598
sg1506
g1507
sS'trials_3.thisTrialN'
p1599
I7
sg37
g12
sg40
g41
sa(dp1600
S'repeat_spatial_practice.thisN'
p1601
I1
sg1503
g1529
sS'repeat_spatial_practice.thisTrial'
p1602
Nsg38
g39
sg1512
g1513
sg19
S'a'
sg1496
Vleft_schema_1_WHI.jpg
p1603
sS'repeat_spatial_practice.thisTrialN'
p1604
I0
sS'trials_3.thisN'
p1605
I8
sg32
g36
sg1510
I1
sS'repeat_spatial_practice.thisRepN'
p1606
I1
sS'repeat_spatial_practice.thisIndex'
p1607
g1380
sS'trials_3.thisRepN'
p1608
I0
sg20
F0.051488270413756254
sg30
g31
sS'trials_3.thisIndex'
p1609
g33
(g242
S'\x06\x00\x00\x00'
tRp1610
sg1506
g1507
sS'trials_3.thisTrialN'
p1611
I8
sg37
g12
sg40
g41
sa(dp1612
S'repeat_spatial_practice.thisN'
p1613
I1
sg22
F0.50113143625640078
sg37
g12
sg19
S'a'
sVStimulus_Practice
p1614
Vleft_word_1_WHI.jpg
p1615
sg32
g36
sg21
S'd'
sS'repeat_spatial_practice.thisIndex'
p1616
g1380
sg20
F0.21744906305684708
sg30
g31
sg40
g41
sVDirection
p1617
Vleft
p1618
sS'repeat_spatial_practice.thisTrial'
p1619
Nsg38
g39
sVFormat
p1620
Vword
p1621
sS'trials_4.thisRepN'
p1622
I0
sS'trials_4.thisIndex'
p1623
g33
(g242
S'\x00\x00\x00\x00'
tRp1624
sVNumber
p1625
I1
sS'trials_4.thisTrialN'
p1626
I0
sS'repeat_spatial_practice.thisRepN'
p1627
I1
sVBackground
p1628
V_WHI
p1629
sS'trials_4.thisN'
p1630
I0
sS'repeat_spatial_practice.thisTrialN'
p1631
I0
sa(dp1632
S'trials_4.thisIndex'
p1633
g33
(g242
S'\x02\x00\x00\x00'
tRp1634
sS'repeat_spatial_practice.thisN'
p1635
I1
sg1617
g1618
sS'repeat_spatial_practice.thisTrial'
p1636
Nsg38
g39
sg19
S'f'
sS'trials_4.thisRepN'
p1637
I0
sg1614
Vleft_word_3_WHI.jpg
p1638
sS'repeat_spatial_practice.thisTrialN'
p1639
I0
sg1620
g1621
sg32
g36
sg1625
I3
sS'repeat_spatial_practice.thisRepN'
p1640
I1
sS'repeat_spatial_practice.thisIndex'
p1641
g1380
sg1628
g1629
sg20
F0.035460296649034717
sg30
g31
sS'trials_4.thisN'
p1642
I1
sS'trials_4.thisTrialN'
p1643
I1
sg37
g12
sg40
g41
sa(dp1644
S'trials_4.thisIndex'
p1645
g33
(g242
S'\x01\x00\x00\x00'
tRp1646
sS'repeat_spatial_practice.thisN'
p1647
I1
sg1617
Vright
p1648
sS'repeat_spatial_practice.thisTrial'
p1649
Nsg38
g39
sg19
S'a'
sS'trials_4.thisRepN'
p1650
I0
sg1614
Vright_word_3_WHI.jpg
p1651
sS'repeat_spatial_practice.thisTrialN'
p1652
I0
sg1620
g1621
sg32
g36
sg1625
I3
sS'repeat_spatial_practice.thisRepN'
p1653
I1
sS'repeat_spatial_practice.thisIndex'
p1654
g1380
sg1628
g1629
sg20
F0.051349490418942878
sg30
g31
sS'trials_4.thisN'
p1655
I2
sS'trials_4.thisTrialN'
p1656
I2
sg37
g12
sg40
g41
sa(dp1657
S'trials_4.thisIndex'
p1658
g33
(g242
S'\x06\x00\x00\x00'
tRp1659
sS'repeat_spatial_practice.thisN'
p1660
I1
sg1617
g1648
sS'repeat_spatial_practice.thisTrial'
p1661
Nsg38
g39
sg19
S'f'
sS'trials_4.thisRepN'
p1662
I0
sg1614
Vright_word_1_WHI.jpg
p1663
sS'repeat_spatial_practice.thisTrialN'
p1664
I0
sg1620
g1621
sg32
g36
sg1625
I1
sS'repeat_spatial_practice.thisRepN'
p1665
I1
sS'repeat_spatial_practice.thisIndex'
p1666
g1380
sg1628
g1629
sg20
F0.03459593379193393
sg30
g31
sS'trials_4.thisN'
p1667
I3
sS'trials_4.thisTrialN'
p1668
I3
sg37
g12
sg40
g41
sa(dp1669
S'trials_4.thisIndex'
p1670
g33
(g242
S'\x07\x00\x00\x00'
tRp1671
sS'repeat_spatial_practice.thisN'
p1672
I1
sg1617
Vahead
p1673
sS'repeat_spatial_practice.thisTrial'
p1674
Nsg38
g39
sg19
S'a'
sS'trials_4.thisRepN'
p1675
I0
sg1614
Vahead_word_2_WHI.jpg
p1676
sS'repeat_spatial_practice.thisTrialN'
p1677
I0
sg1620
g1621
sg32
g36
sg1625
I2
sS'repeat_spatial_practice.thisRepN'
p1678
I1
sS'repeat_spatial_practice.thisIndex'
p1679
g1380
sg1628
g1629
sg20
F0.018131539336536662
sg30
g31
sS'trials_4.thisN'
p1680
I4
sS'trials_4.thisTrialN'
p1681
I4
sg37
g12
sg40
g41
sa(dp1682
S'trials_4.thisIndex'
p1683
g33
(g242
S'\x04\x00\x00\x00'
tRp1684
sS'repeat_spatial_practice.thisN'
p1685
I1
sg1617
g1673
sS'repeat_spatial_practice.thisTrial'
p1686
Nsg38
g39
sg19
S'f'
sS'trials_4.thisRepN'
p1687
I0
sg1614
Vahead_word_3_WHI.jpg
p1688
sS'repeat_spatial_practice.thisTrialN'
p1689
I0
sg1620
g1621
sg32
g36
sg1625
I3
sS'repeat_spatial_practice.thisRepN'
p1690
I1
sS'repeat_spatial_practice.thisIndex'
p1691
g1380
sg1628
g1629
sg20
F0.052266063115894212
sg30
g31
sS'trials_4.thisN'
p1692
I5
sS'trials_4.thisTrialN'
p1693
I5
sg37
g12
sg40
g41
sa(dp1694
S'trials_4.thisIndex'
p1695
g33
(g242
S'\x05\x00\x00\x00'
tRp1696
sS'repeat_spatial_practice.thisN'
p1697
I1
sg1617
g1618
sS'repeat_spatial_practice.thisTrial'
p1698
Nsg38
g39
sg19
S'a'
sS'trials_4.thisRepN'
p1699
I0
sg1614
Vleft_word_2_WHI.jpg
p1700
sS'repeat_spatial_practice.thisTrialN'
p1701
I0
sg1620
g1621
sg32
g36
sg1625
I2
sS'repeat_spatial_practice.thisRepN'
p1702
I1
sS'repeat_spatial_practice.thisIndex'
p1703
g1380
sg1628
g1629
sg20
F0.017264945288843592
sg30
g31
sS'trials_4.thisN'
p1704
I6
sS'trials_4.thisTrialN'
p1705
I6
sg37
g12
sg40
g41
sa(dp1706
S'trials_4.thisIndex'
p1707
g33
(g242
S'\x08\x00\x00\x00'
tRp1708
sS'repeat_spatial_practice.thisN'
p1709
I1
sg1617
g1673
sS'repeat_spatial_practice.thisTrial'
p1710
Nsg38
g39
sg19
S'f'
sS'trials_4.thisRepN'
p1711
I0
sg1614
Vahead_word_1_WHI.jpg
p1712
sS'repeat_spatial_practice.thisTrialN'
p1713
I0
sg1620
g1621
sg32
g36
sg1625
I1
sS'repeat_spatial_practice.thisRepN'
p1714
I1
sS'repeat_spatial_practice.thisIndex'
p1715
g1380
sg1628
g1629
sg20
F0.084441602404695004
sg30
g31
sS'trials_4.thisN'
p1716
I7
sS'trials_4.thisTrialN'
p1717
I7
sg37
g12
sg40
g41
sa(dp1718
S'trials_4.thisIndex'
p1719
g33
(g242
S'\x03\x00\x00\x00'
tRp1720
sS'repeat_spatial_practice.thisN'
p1721
I1
sg1617
g1648
sS'repeat_spatial_practice.thisTrial'
p1722
Nsg38
g39
sg19
S'a'
sS'trials_4.thisRepN'
p1723
I0
sg1614
Vright_word_2_WHI.jpg
p1724
sS'repeat_spatial_practice.thisTrialN'
p1725
I0
sg1620
g1621
sg32
g36
sg1625
I2
sS'repeat_spatial_practice.thisRepN'
p1726
I1
sS'repeat_spatial_practice.thisIndex'
p1727
g1380
sg1628
g1629
sg20
F0.034865461497247452
sg30
g31
sS'trials_4.thisN'
p1728
I8
sS'trials_4.thisTrialN'
p1729
I8
sg37
g12
sg40
g41
sa(dp1730
g37
g12
sg38
g39
sg23
S'd'
sg30
g31
sg32
g36
sg24
F0.90071429304407502
sg40
g41
sa(dp1731
g54
g250
sg38
g39
sS'trials_2.thisRepN'
p1732
I0
sS'trials_2.thisTrialN'
p1733
I0
sg52
g249
sg59
g252
sg32
g36
sg56
g251
sg26
F0.50122648493379529
sg37
g12
sS'trials_2.thisIndex'
p1734
g33
(g242
S'\x00\x00\x00\x00'
tRp1735
sg30
g31
sg25
S'a'
sS'trials_2.thisN'
p1736
I0
sg40
g41
sa(dp1737
g54
g250
sg38
g39
sS'trials_2.thisRepN'
p1738
I0
sS'trials_2.thisTrialN'
p1739
I1
sg52
g255
sg59
g252
sg32
g36
sg56
g256
sg26
F0.28485151656241214
sg37
g12
sS'trials_2.thisIndex'
p1740
g33
(g242
S'\x01\x00\x00\x00'
tRp1741
sg30
g31
sg25
S'f'
sS'trials_2.thisN'
p1742
I1
sg40
g41
sa(dp1743
g54
g55
sg38
g39
sS'trials_2.thisRepN'
p1744
I0
sS'trials_2.thisTrialN'
p1745
I2
sg52
g259
sg59
g252
sg32
g36
sg56
g260
sg26
F0.20124259412477841
sg37
g12
sS'trials_2.thisIndex'
p1746
g33
(g242
S'\x02\x00\x00\x00'
tRp1747
sg30
g31
sg25
S'a'
sS'trials_2.thisN'
p1748
I2
sg40
g41
sa(dp1749
g54
g264
sg38
g39
sS'trials_2.thisRepN'
p1750
I0
sS'trials_2.thisTrialN'
p1751
I3
sg52
g263
sg59
g252
sg32
g36
sg56
g265
sg26
F0.15115327960302238
sg37
g12
sS'trials_2.thisIndex'
p1752
g33
(g242
S'\x03\x00\x00\x00'
tRp1753
sg30
g31
sg25
S'f'
sS'trials_2.thisN'
p1754
I3
sg40
g41
sa(dp1755
g54
g55
sg38
g39
sS'trials_2.thisRepN'
p1756
I0
sS'trials_2.thisTrialN'
p1757
I4
sg52
g268
sg59
g252
sg32
g36
sg56
g269
sg26
F0.085313551307990565
sg37
g12
sS'trials_2.thisIndex'
p1758
g33
(g242
S'\x04\x00\x00\x00'
tRp1759
sg30
g31
sg25
S'a'
sS'trials_2.thisN'
p1760
I4
sg40
g41
sa(dp1761
g54
g264
sg38
g39
sS'trials_2.thisRepN'
p1762
I0
sS'trials_2.thisTrialN'
p1763
I5
sg52
g272
sg59
g252
sg32
g36
sg56
g273
sg26
F0.201236346792939
sg37
g12
sS'trials_2.thisIndex'
p1764
g33
(g242
S'\x05\x00\x00\x00'
tRp1765
sg30
g31
sg25
S'f'
sS'trials_2.thisN'
p1766
I5
sg40
g41
sa(dp1767
g54
g264
sg38
g39
sS'trials_2.thisRepN'
p1768
I0
sS'trials_2.thisTrialN'
p1769
I6
sg52
g276
sg59
g252
sg32
g36
sg56
g277
sg26
F0.16750611457609921
sg37
g12
sS'trials_2.thisIndex'
p1770
g33
(g242
S'\x06\x00\x00\x00'
tRp1771
sg30
g31
sg25
S'a'
sS'trials_2.thisN'
p1772
I6
sg40
g41
sa(dp1773
g54
g250
sg38
g39
sS'trials_2.thisRepN'
p1774
I0
sS'trials_2.thisTrialN'
p1775
I7
sg52
g280
sg59
g252
sg32
g36
sg56
g281
sg26
F0.13489772449975135
sg37
g12
sS'trials_2.thisIndex'
p1776
g33
(g242
S'\x07\x00\x00\x00'
tRp1777
sg30
g31
sg25
S'f'
sS'trials_2.thisN'
p1778
I7
sg40
g41
sa(dp1779
g54
g55
sg38
g39
sS'trials_2.thisRepN'
p1780
I0
sS'trials_2.thisTrialN'
p1781
I8
sg52
g284
sg59
g252
sg32
g36
sg56
g285
sg26
F0.15127331760413654
sg37
g12
sS'trials_2.thisIndex'
p1782
g33
(g242
S'\x08\x00\x00\x00'
tRp1783
sg30
g31
sg25
S'a'
sS'trials_2.thisN'
p1784
I8
sg40
g41
sa(dp1785
g54
g250
sg38
g39
sS'trials_2.thisRepN'
p1786
I0
sS'trials_2.thisTrialN'
p1787
I9
sg52
g288
sg59
g252
sg32
g36
sg56
g289
sg26
F0.13505123034519784
sg37
g12
sS'trials_2.thisIndex'
p1788
g33
(g242
S'\t\x00\x00\x00'
tRp1789
sg30
g31
sg25
S'f'
sS'trials_2.thisN'
p1790
I9
sg40
g41
sa(dp1791
g54
g55
sg38
g39
sS'trials_2.thisRepN'
p1792
I0
sS'trials_2.thisTrialN'
p1793
I10
sg52
g292
sg59
g252
sg32
g36
sg56
g293
sg26
F0.18459033350518439
sg37
g12
sS'trials_2.thisIndex'
p1794
g33
(g242
S'\n\x00\x00\x00'
tRp1795
sg30
g31
sg25
S'a'
sS'trials_2.thisN'
p1796
I10
sg40
g41
sa(dp1797
g54
g55
sg38
g39
sS'trials_2.thisRepN'
p1798
I0
sS'trials_2.thisTrialN'
p1799
I11
sg52
g296
sg59
g252
sg32
g36
sg56
g297
sg26
F0.15134203824527503
sg37
g12
sS'trials_2.thisIndex'
p1800
g33
(g242
S'\x0b\x00\x00\x00'
tRp1801
sg30
g31
sg25
S'f'
sS'trials_2.thisN'
p1802
I11
sg40
g41
sa(dp1803
g54
g264
sg38
g39
sS'trials_2.thisRepN'
p1804
I0
sS'trials_2.thisTrialN'
p1805
I12
sg52
g300
sg59
g252
sg32
g36
sg56
g301
sg26
F0.18462781749076385
sg37
g12
sS'trials_2.thisIndex'
p1806
g33
(g242
S'\x0c\x00\x00\x00'
tRp1807
sg30
g31
sg25
S'a'
sS'trials_2.thisN'
p1808
I12
sg40
g41
sa(dp1809
g54
g55
sg38
g39
sS'trials_2.thisRepN'
p1810
I0
sS'trials_2.thisTrialN'
p1811
I13
sg52
g304
sg59
g252
sg32
g36
sg56
g305
sg26
F0.15112650532682892
sg37
g12
sS'trials_2.thisIndex'
p1812
g33
(g242
S'\r\x00\x00\x00'
tRp1813
sg30
g31
sg25
S'f'
sS'trials_2.thisN'
p1814
I13
sg40
g41
sa(dp1815
g54
g250
sg38
g39
sS'trials_2.thisRepN'
p1816
I0
sS'trials_2.thisTrialN'
p1817
I14
sg52
g308
sg59
g252
sg32
g36
sg56
g309
sg26
F0.15263612822673167
sg37
g12
sS'trials_2.thisIndex'
p1818
g33
(g242
S'\x0e\x00\x00\x00'
tRp1819
sg30
g31
sg25
S'a'
sS'trials_2.thisN'
p1820
I14
sg40
g41
sa(dp1821
g54
g264
sg38
g39
sS'trials_2.thisRepN'
p1822
I0
sS'trials_2.thisTrialN'
p1823
I15
sg52
g312
sg59
g252
sg32
g36
sg56
g313
sg26
F0.20130060505471192
sg37
g12
sS'trials_2.thisIndex'
p1824
g33
(g242
S'\x0f\x00\x00\x00'
tRp1825
sg30
g31
sg25
S'f'
sS'trials_2.thisN'
p1826
I15
sg40
g41
sa(dp1827
g54
g250
sg38
g39
sS'trials_2.thisRepN'
p1828
I0
sS'trials_2.thisTrialN'
p1829
I16
sg52
g316
sg59
g252
sg32
g36
sg56
g317
sg26
F0.13494011710099585
sg37
g12
sS'trials_2.thisIndex'
p1830
g33
(g242
S'\x10\x00\x00\x00'
tRp1831
sg30
g31
sg25
S'a'
sS'trials_2.thisN'
p1832
I16
sg40
g41
sa(dp1833
g54
g264
sg38
g39
sS'trials_2.thisRepN'
p1834
I0
sS'trials_2.thisTrialN'
p1835
I17
sg52
g320
sg59
g252
sg32
g36
sg56
g321
sg26
F0.2012131424198742
sg37
g12
sS'trials_2.thisIndex'
p1836
g33
(g242
S'\x11\x00\x00\x00'
tRp1837
sg30
g31
sg25
S'f'
sS'trials_2.thisN'
p1838
I17
sg40
g41
sa(dp1839
g54
g264
sg38
g39
sS'trials_2.thisRepN'
p1840
I0
sS'trials_2.thisTrialN'
p1841
I18
sg52
g324
sg59
g252
sg32
g36
sg56
g325
sg26
F0.13463265917198441
sg37
g12
sS'trials_2.thisIndex'
p1842
g33
(g242
S'\x12\x00\x00\x00'
tRp1843
sg30
g31
sg25
S'a'
sS'trials_2.thisN'
p1844
I18
sg40
g41
sa(dp1845
g54
g250
sg38
g39
sS'trials_2.thisRepN'
p1846
I0
sS'trials_2.thisTrialN'
p1847
I19
sg52
g328
sg59
g252
sg32
g36
sg56
g329
sg26
F0.18411776754328457
sg37
g12
sS'trials_2.thisIndex'
p1848
g33
(g242
S'\x13\x00\x00\x00'
tRp1849
sg30
g31
sg25
S'f'
sS'trials_2.thisN'
p1850
I19
sg40
g41
sa(dp1851
g54
g55
sg38
g39
sS'trials_2.thisRepN'
p1852
I0
sS'trials_2.thisTrialN'
p1853
I20
sg52
g332
sg59
g252
sg32
g36
sg56
g333
sg26
F0.16791308356187074
sg37
g12
sS'trials_2.thisIndex'
p1854
g33
(g242
S'\x14\x00\x00\x00'
tRp1855
sg30
g31
sg25
S'a'
sS'trials_2.thisN'
p1856
I20
sg40
g41
sa(dp1857
g54
g264
sg38
g39
sS'trials_2.thisRepN'
p1858
I0
sS'trials_2.thisTrialN'
p1859
I21
sg52
g336
sg59
g338
sg32
g36
sg56
g337
sg26
F0.71778039471428201
sg37
g12
sS'trials_2.thisIndex'
p1860
g33
(g242
S'\x15\x00\x00\x00'
tRp1861
sg30
g31
sg25
S'a'
sS'trials_2.thisN'
p1862
I21
sg40
g41
sa(dp1863
g54
g55
sg38
g39
sS'trials_2.thisRepN'
p1864
I0
sS'trials_2.thisTrialN'
p1865
I22
sg52
g341
sg59
g338
sg32
g36
sg56
g342
sg26
F0.18412936972890748
sg37
g12
sS'trials_2.thisIndex'
p1866
g33
(g242
S'\x16\x00\x00\x00'
tRp1867
sg30
g31
sg25
S'f'
sS'trials_2.thisN'
p1868
I22
sg40
g41
sa(dp1869
g54
g250
sg38
g39
sS'trials_2.thisRepN'
p1870
I0
sS'trials_2.thisTrialN'
p1871
I23
sg52
g345
sg59
g338
sg32
g36
sg56
g346
sg26
F0.084583059826400131
sg37
g12
sS'trials_2.thisIndex'
p1872
g33
(g242
S'\x17\x00\x00\x00'
tRp1873
sg30
g31
sg25
S'a'
sS'trials_2.thisN'
p1874
I23
sg40
g41
sa(dp1875
g54
g264
sg38
g39
sS'trials_2.thisRepN'
p1876
I0
sS'trials_2.thisTrialN'
p1877
I24
sg52
g349
sg59
g338
sg32
g36
sg56
g350
sg26
F0.051519953305614763
sg37
g12
sS'trials_2.thisIndex'
p1878
g33
(g242
S'\x18\x00\x00\x00'
tRp1879
sg30
g31
sg25
S'f'
sS'trials_2.thisN'
p1880
I24
sg40
g41
sa(dp1881
g54
g55
sg38
g39
sS'trials_2.thisRepN'
p1882
I0
sS'trials_2.thisTrialN'
p1883
I25
sg52
g353
sg59
g338
sg32
g36
sg56
g354
sg26
F0.051384743213930051
sg37
g12
sS'trials_2.thisIndex'
p1884
g33
(g242
S'\x19\x00\x00\x00'
tRp1885
sg30
g31
sg25
S'a'
sS'trials_2.thisN'
p1886
I25
sg40
g41
sa(dp1887
g54
g250
sg38
g39
sS'trials_2.thisRepN'
p1888
I0
sS'trials_2.thisTrialN'
p1889
I26
sg52
g357
sg59
g338
sg32
g36
sg56
g358
sg26
F0.017264945288843592
sg37
g12
sS'trials_2.thisIndex'
p1890
g33
(g242
S'\x1a\x00\x00\x00'
tRp1891
sg30
g31
sg25
S'f'
sS'trials_2.thisN'
p1892
I26
sg40
g41
sa(dp1893
g54
g55
sg38
g39
sS'trials_2.thisRepN'
p1894
I0
sS'trials_2.thisTrialN'
p1895
I27
sg52
g361
sg59
g338
sg32
g36
sg56
g362
sg26
F0.050954123616975266
sg37
g12
sS'trials_2.thisIndex'
p1896
g33
(g242
S'\x1b\x00\x00\x00'
tRp1897
sg30
g31
sg25
S'a'
sS'trials_2.thisN'
p1898
I27
sg40
g41
sa(dp1899
g54
g264
sg38
g39
sS'trials_2.thisRepN'
p1900
I0
sS'trials_2.thisTrialN'
p1901
I28
sg52
g365
sg59
g338
sg32
g36
sg56
g366
sg26
F0.10130091742030345
sg37
g12
sS'trials_2.thisIndex'
p1902
g33
(g242
S'\x1c\x00\x00\x00'
tRp1903
sg30
g31
sg25
S'a'
sS'trials_2.thisN'
p1904
I28
sg40
g41
sa(dp1905
g54
g250
sg38
g39
sS'trials_2.thisRepN'
p1906
I0
sS'trials_2.thisTrialN'
p1907
I29
sg52
g369
sg59
g338
sg32
g36
sg56
g370
sg26
F0.068225762475776719
sg37
g12
sS'trials_2.thisIndex'
p1908
g33
(g242
S'\x1d\x00\x00\x00'
tRp1909
sg30
g31
sg25
S'a'
sS'trials_2.thisN'
p1910
I29
sg40
g41
sa(dp1911
g54
g55
sg38
g39
sS'trials_2.thisRepN'
p1912
I0
sS'trials_2.thisTrialN'
p1913
I30
sg52
g373
sg59
g338
sg32
g36
sg56
g374
sg26
F0.085349250341096194
sg37
g12
sS'trials_2.thisIndex'
p1914
g33
(g242
S'\x1e\x00\x00\x00'
tRp1915
sg30
g31
sg25
S'a'
sS'trials_2.thisN'
p1916
I30
sg40
g41
sa(dp1917
g54
g250
sg38
g39
sS'trials_2.thisRepN'
p1918
I0
sS'trials_2.thisTrialN'
p1919
I31
sg52
g377
sg59
g338
sg32
g36
sg56
g378
sg26
F0.017430499559850432
sg37
g12
sS'trials_2.thisIndex'
p1920
g33
(g242
S'\x1f\x00\x00\x00'
tRp1921
sg30
g31
sg25
S'f'
sS'trials_2.thisN'
p1922
I31
sg40
g41
sa(dp1923
g54
g250
sg38
g39
sS'trials_2.thisRepN'
p1924
I0
sS'trials_2.thisTrialN'
p1925
I32
sg52
g381
sg59
g338
sg32
g36
sg56
g382
sg26
F0.00034092577334376983
sg37
g12
sS'trials_2.thisIndex'
p1926
g33
(g242
S' \x00\x00\x00'
tRp1927
sg30
g31
sg25
S'a'
sS'trials_2.thisN'
p1928
I32
sg40
g41
sa(dp1929
g54
g264
sg38
g39
sS'trials_2.thisRepN'
p1930
I0
sS'trials_2.thisTrialN'
p1931
I33
sg52
g385
sg59
g338
sg32
g36
sg56
g386
sg26
F0.051212941612902796
sg37
g12
sS'trials_2.thisIndex'
p1932
g33
(g242
S'!\x00\x00\x00'
tRp1933
sg30
g31
sg25
S'f'
sS'trials_2.thisN'
p1934
I33
sg40
g41
sa(dp1935
g54
g55
sg38
g39
sS'trials_2.thisRepN'
p1936
I0
sS'trials_2.thisTrialN'
p1937
I34
sg52
g389
sg59
g338
sg32
g36
sg56
g390
sg26
F0.017942780696103
sg37
g12
sS'trials_2.thisIndex'
p1938
g33
(g242
S'"\x00\x00\x00'
tRp1939
sg30
g31
sg25
S'a'
sS'trials_2.thisN'
p1940
I34
sg40
g41
sa(dp1941
g54
g264
sg38
g39
sS'trials_2.thisRepN'
p1942
I0
sS'trials_2.thisTrialN'
p1943
I35
sg52
g393
sg59
g338
sg32
g36
sg56
g394
sg26
F0.00033066230207623448
sg37
g12
sS'trials_2.thisIndex'
p1944
g33
(g242
S'#\x00\x00\x00'
tRp1945
sg30
g31
sg25
S'f'
sS'trials_2.thisN'
p1946
I35
sg40
g41
sa(dp1947
g54
g250
sg38
g39
sS'trials_2.thisRepN'
p1948
I0
sS'trials_2.thisTrialN'
p1949
I36
sg52
g397
sg59
g338
sg32
g36
sg56
g398
sg26
F0.034478126979593071
sg37
g12
sS'trials_2.thisIndex'
p1950
g33
(g242
S'$\x00\x00\x00'
tRp1951
sg30
g31
sg25
S'a'
sS'trials_2.thisN'
p1952
I36
sg40
g41
sa(dp1953
g54
g250
sg38
g39
sS'trials_2.thisRepN'
p1954
I0
sS'trials_2.thisTrialN'
p1955
I37
sg52
g401
sg59
g338
sg32
g36
sg56
g402
sg26
F0.0003284311114839511
sg37
g12
sS'trials_2.thisIndex'
p1956
g33
(g242
S'%\x00\x00\x00'
tRp1957
sg30
g31
sg25
S'f'
sS'trials_2.thisN'
p1958
I37
sg40
g41
sa(dp1959
g54
g55
sg38
g39
sS'trials_2.thisRepN'
p1960
I0
sS'trials_2.thisTrialN'
p1961
I38
sg52
g405
sg59
g338
sg32
g36
sg56
g406
sg26
F0.034430825759045547
sg37
g12
sS'trials_2.thisIndex'
p1962
g33
(g242
S'&\x00\x00\x00'
tRp1963
sg30
g31
sg25
S'a'
sS'trials_2.thisN'
p1964
I38
sg40
g41
sa(dp1965
g54
g55
sg38
g39
sS'trials_2.thisRepN'
p1966
I0
sS'trials_2.thisTrialN'
p1967
I39
sg52
g409
sg59
g338
sg32
g36
sg56
g410
sg26
F0.21761952594351897
sg37
g12
sS'trials_2.thisIndex'
p1968
g33
(g242
S"'\x00\x00\x00"
tRp1969
sg30
g31
sg25
S'f'
sS'trials_2.thisN'
p1970
I39
sg40
g41
sa(dp1971
g54
g264
sg38
g39
sS'trials_2.thisRepN'
p1972
I0
sS'trials_2.thisTrialN'
p1973
I40
sg52
g413
sg59
g338
sg32
g36
sg56
g414
sg26
F0.16847846701239177
sg37
g12
sS'trials_2.thisIndex'
p1974
g33
(g242
S'(\x00\x00\x00'
tRp1975
sg30
g31
sg25
S'a'
sS'trials_2.thisN'
p1976
I40
sg40
g41
sa(dp1977
g54
g264
sg38
g39
sS'trials_2.thisRepN'
p1978
I0
sS'trials_2.thisTrialN'
p1979
I41
sg52
g417
sg59
g338
sg32
g36
sg56
g418
sg26
F0.15110508590805694
sg37
g12
sS'trials_2.thisIndex'
p1980
g33
(g242
S')\x00\x00\x00'
tRp1981
sg30
g31
sg25
S'f'
sS'trials_2.thisN'
p1982
I41
sg40
g41
sasS'loops'
p1983
(lp1984
g1
(g44
g3
NtRp1985
(dp1986
g47
Nsg48
(lp1987
sg62
I88840560
sg11
S'repeat_spatial_practice'
p1988
sg6
I-1
sg64
I2
sg27
I01
sg28
g29
sg65
g1
(g66
g50
(dp1989
g22
g69
(g70
g71
g72
S'b'
tRp1990
(I1
(I1
I2
tg74
I00
S'\xa6\xf5\xfd?&J\x00?'
S'\x00\x00'
Ntbsg18
g69
(g70
g71
g72
S'b'
tRp1991
(I1
(I1
I2
tg74
I00
S'\xd7T\x9aA9f\xa6?'
S'\x00\x00'
Ntbsg68
g69
(g70
g71
g72
S'b'
tRp1992
(I1
(I1
I2
tg74
I00
S'\x00\x00\x80?\x00\x00\x80?'
S'\x00\x00'
Ntbsg17
g76
(g71
(I0
tS'b'
tRp1993
(I1
(I1
I2
tg78
I00
(lp1994
S'd'
aS'd'
atbsg227
g69
(g70
g71
g72
S'b'
tRp1995
(I1
(I1
I2
tg74
I00
S'\x00\x00\x00\x00\x00\x00\x80?'
S'\x00\x00'
Ntbsg21
g76
(g71
(I0
tS'b'
tRp1996
(I1
(I1
I2
tg78
I00
(lp1997
S'd'
aS'd'
atbstRp1998
(dp1999
g231
(dp2000
g22
I01
sg68
I01
sg17
I00
sg21
I00
sg227
I01
sg18
I01
ssg233
g1985
sg234
(lp2001
g68
ag227
ag17
ag18
ag21
ag22
asg236
(lp2002
I1
aI2
asbsg238
S'random'
p2003
sg240
g76
(g71
(I0
tS'b'
tRp2004
(I1
(I1
I2
tg242
I01
S'\x00\x00\x00\x00\x00\x00\x00\x00'
tbsg243
I01
sg244
I2
sg245
I-1
sg246
(lp2005
Nasg1004
Nsg1005
g1380
sg1007
I2
sg1008
I0
sg1009
I2
sg1010
I01
sbag1
(g44
g3
NtRp2006
(dp2007
g47
Nsg48
(lp2008
sg62
I88840560
sg11
g233
sg6
I-1
sg64
I1
sg27
I01
sg28
g29
sg65
g1
(g66
g50
(dp2009
g68
g69
(g70
g71
g72
S'b'
tRp2010
(I1
(I9
I1
tg74
I00
S'\x00\x00\x80?\x00\x00\x80?\x00\x00\x80?\x00\x00\x80?\x00\x00\x80?\x00\x00\x80?\x00\x00\x80?\x00\x00\x80?\x00\x00\x80?'
S'\x00\x00\x00\x00\x00\x00\x00\x00\x00'
Ntbsg19
g76
(g71
(I0
tS'b'
tRp2011
(I1
(I9
I1
tg78
I00
(lp2012
S'f'
aS'a'
aS'f'
aS'f'
aS'a'
aS'a'
aS'a'
aS'f'
aS'f'
atbsg227
g69
(g70
g71
g72
S'b'
tRp2013
(I1
(I9
I1
tg74
I00
S'\x00\x00\x80?\x00\x00\xe0@\x00\x00\x00A\x00\x00\x00\x00\x00\x00\x80@\x00\x00\x00@\x00\x00\xa0@\x00\x00@@\x00\x00\xc0@'
S'\x00\x00\x00\x00\x00\x00\x00\x00\x00'
Ntbsg20
g69
(g70
g71
g72
S'b'
tRp2014
(I1
(I9
I1
tg74
I00
S'x?@?\xd8\xd2\x08?"\xed\x08?A\xfd/@\xe2\x16\xd0= \x82\x86?\xa7\xe0\xcc?\xf1\xab&?V\x18^?'
S'\x00\x00\x00\x00\x00\x00\x00\x00\x00'
NtbstRp2015
(dp2016
g231
(dp2017
g68
I01
sg20
I01
sg227
I01
sg19
I00
ssg233
g2006
sg234
(lp2018
g68
ag227
ag19
ag20
asg236
(lp2019
I9
aI1
asbsg238
g2003
sg240
g76
(g71
(I0
tS'b'
tRp2020
(I1
(I9
I1
tg242
I01
S'\x03\x00\x00\x00\x00\x00\x00\x00\x05\x00\x00\x00\x07\x00\x00\x00\x04\x00\x00\x00\x06\x00\x00\x00\x08\x00\x00\x00\x01\x00\x00\x00\x02\x00\x00\x00'
tbsg243
I01
sg244
I1
sg245
I-1
sg246
(lp2021
g1
(g49
g50
(dp2022
g1017
g1050
sg1018
g1032
sg1019
I2
sg1020
g1040
sg1021
g1034
stRp2023
ag1
(g49
g50
(dp2024
g1017
g1124
sg1018
g1068
sg1019
I1
sg1020
g1040
sg1021
g1034
stRp2025
ag1
(g49
g50
(dp2026
g1017
g1136
sg1018
g1068
sg1019
I3
sg1020
g1040
sg1021
g1034
stRp2027
ag1
(g49
g50
(dp2028
g1017
g1027
sg1018
g1032
sg1019
I3
sg1020
g1040
sg1021
g1034
stRp2029
ag1
(g49
g50
(dp2030
g1017
g1088
sg1018
g1032
sg1019
I1
sg1020
g1040
sg1021
g1034
stRp2031
ag1
(g49
g50
(dp2032
g1017
g1063
sg1018
g1055
sg1019
I3
sg1020
g1040
sg1021
g1034
stRp2033
ag1
(g49
g50
(dp2034
g1017
g1100
sg1018
g1055
sg1019
I1
sg1020
g1040
sg1021
g1034
stRp2035
ag1
(g49
g50
(dp2036
g1017
g1076
sg1018
g1068
sg1019
I2
sg1020
g1040
sg1021
g1034
stRp2037
ag1
(g49
g50
(dp2038
g1017
g1112
sg1018
g1055
sg1019
I2
sg1020
g1040
sg1021
g1034
stRp2039
asg1004
Nsg1005
g1138
sg1007
I9
sg1008
I0
sg1009
I9
sg1010
I01
sbag1
(g44
g3
NtRp2040
(dp2041
g47
Nsg48
(lp2042
sg62
I88840560
sg11
S'trials_3'
p2043
sg6
I-1
sg64
I1
sg27
I01
sg28
g29
sg65
g1
(g66
g50
(dp2044
g68
g69
(g70
g71
g72
S'b'
tRp2045
(I1
(I9
I1
tg74
I00
S'\x00\x00\x80?\x00\x00\x80?\x00\x00\x80?\x00\x00\x80?\x00\x00\x80?\x00\x00\x80?\x00\x00\x80?\x00\x00\x80?\x00\x00\x80?'
S'\x00\x00\x00\x00\x00\x00\x00\x00\x00'
Ntbsg19
g76
(g71
(I0
tS'b'
tRp2046
(I1
(I9
I1
tg78
I00
(lp2047
S'a'
aS'a'
aS'a'
aS'f'
aS'a'
aS'f'
aS'f'
aS'a'
aS'f'
atbsg227
g69
(g70
g71
g72
S'b'
tRp2048
(I1
(I9
I1
tg74
I00
S'\x00\x00\xa0@\x00\x00\x00A\x00\x00@@\x00\x00\x80?\x00\x00\xe0@\x00\x00\x80@\x00\x00\xc0@\x00\x00\x00@\x00\x00\x00\x00'
S'\x00\x00\x00\x00\x00\x00\x00\x00\x00'
Ntbsg20
g69
(g70
g71
g72
S'b'
tRp2049
(I1
(I9
I1
tg74
I00
S'(*\x82?\x97\xc7Y?\xde\xec\xbd?\xfdD\x95?f\xa6\xb9?A\x919@\x8bx3?A["?\x97\x10\xd2@'
S'\x00\x00\x00\x00\x00\x00\x00\x00\x00'
NtbstRp2050
(dp2051
g231
(dp2052
g68
I01
sg20
I01
sg227
I01
sg19
I00
ssg233
g2040
sg234
(lp2053
g68
ag227
ag19
ag20
asg236
(lp2054
I9
aI1
asbsg238
g2003
sg240
g76
(g71
(I0
tS'b'
tRp2055
(I1
(I9
I1
tg242
I01
S'\x08\x00\x00\x00\x03\x00\x00\x00\x07\x00\x00\x00\x02\x00\x00\x00\x05\x00\x00\x00\x00\x00\x00\x00\x06\x00\x00\x00\x04\x00\x00\x00\x01\x00\x00\x00'
tbsg243
I01
sg244
I1
sg245
I-1
sg246
(lp2056
g1
(g49
g50
(dp2057
g1141
g1212
sg1148
g1210
sg1155
I1
sg1157
g1158
sg1151
g1152
stRp2058
ag1
(g49
g50
(dp2059
g1141
g1248
sg1148
g1210
sg1155
I2
sg1157
g1158
sg1151
g1152
stRp2060
ag1
(g49
g50
(dp2061
g1141
g1187
sg1148
g1149
sg1155
I3
sg1157
g1158
sg1151
g1152
stRp2062
ag1
(g49
g50
(dp2063
g1141
g1162
sg1148
g1149
sg1155
I1
sg1157
g1158
sg1151
g1152
stRp2064
ag1
(g49
g50
(dp2065
g1141
g1236
sg1148
g1173
sg1155
I3
sg1157
g1158
sg1151
g1152
stRp2066
ag1
(g49
g50
(dp2067
g1141
g1199
sg1148
g1173
sg1155
I1
sg1157
g1158
sg1151
g1152
stRp2068
ag1
(g49
g50
(dp2069
g1141
g1224
sg1148
g1210
sg1155
I3
sg1157
g1158
sg1151
g1152
stRp2070
ag1
(g49
g50
(dp2071
g1141
g1175
sg1148
g1173
sg1155
I2
sg1157
g1158
sg1151
g1152
stRp2072
ag1
(g49
g50
(dp2073
g1141
g1142
sg1148
g1149
sg1155
I2
sg1157
g1158
sg1151
g1152
stRp2074
asg1004
Nsg1005
g1255
sg1007
I9
sg1008
I0
sg1009
I9
sg1010
I01
sbag1
(g44
g3
NtRp2075
(dp2076
g47
Nsg48
(lp2077
sg62
I88840560
sg11
S'trials_4'
p2078
sg6
I-1
sg64
I1
sg27
I01
sg28
g29
sg65
g1
(g66
g50
(dp2079
g68
g69
(g70
g71
g72
S'b'
tRp2080
(I1
(I9
I1
tg74
I00
S'\x00\x00\x80?\x00\x00\x80?\x00\x00\x80?\x00\x00\x80?\x00\x00\x80?\x00\x00\x80?\x00\x00\x80?\x00\x00\x80?\x00\x00\x80?'
S'\x00\x00\x00\x00\x00\x00\x00\x00\x00'
Ntbsg19
g76
(g71
(I0
tS'b'
tRp2081
(I1
(I9
I1
tg78
I00
(lp2082
S'a'
aS'a'
aS'f'
aS'f'
aS'a'
aS'a'
aS'f'
aS'f'
aS'a'
atbsg227
g69
(g70
g71
g72
S'b'
tRp2083
(I1
(I9
I1
tg74
I00
S'\x00\x00\x00\x00\x00\x00\x00A\x00\x00\xa0@\x00\x00\x80?\x00\x00\x00@\x00\x00\xc0@\x00\x00\xe0@\x00\x00@@\x00\x00\x80@'
S'\x00\x00\x00\x00\x00\x00\x00\x00\x00'
Ntbsg20
g69
(g70
g71
g72
S'b'
tRp2084
(I1
(I9
I1
tg74
I00
S'\x8e\x8e\x97?v\x81p>\xaaNN>Q\xfe\xe6>\xb5%\x1e?\xc9\x08_>\xf8uN>\xb2Cp>\xdd\xb4o>'
S'\x00\x00\x00\x00\x00\x00\x00\x00\x00'
NtbstRp2085
(dp2086
g231
(dp2087
g68
I01
sg20
I01
sg227
I01
sg19
I00
ssg233
g2075
sg234
(lp2088
g68
ag227
ag19
ag20
asg236
(lp2089
I9
aI1
asbsg238
g2003
sg240
g76
(g71
(I0
tS'b'
tRp2090
(I1
(I9
I1
tg242
I01
S'\x00\x00\x00\x00\x03\x00\x00\x00\x04\x00\x00\x00\x07\x00\x00\x00\x08\x00\x00\x00\x02\x00\x00\x00\x05\x00\x00\x00\x06\x00\x00\x00\x01\x00\x00\x00'
tbsg243
I01
sg244
I1
sg245
I-1
sg246
(lp2091
g1
(g49
g50
(dp2092
g1259
g1260
sg1262
g1263
sg1270
I1
sg1273
g1274
sg1265
g1266
stRp2093
ag1
(g49
g50
(dp2094
g1259
g1369
sg1262
g1281
sg1270
I3
sg1273
g1274
sg1265
g1266
stRp2095
ag1
(g49
g50
(dp2096
g1259
g1333
sg1262
g1263
sg1270
I3
sg1273
g1274
sg1265
g1266
stRp2097
ag1
(g49
g50
(dp2098
g1259
g1284
sg1262
g1281
sg1270
I2
sg1273
g1274
sg1265
g1266
stRp2099
ag1
(g49
g50
(dp2100
g1259
g1297
sg1262
g1294
sg1270
I3
sg1273
g1274
sg1265
g1266
stRp2101
ag1
(g49
g50
(dp2102
g1259
g1345
sg1262
g1263
sg1270
I2
sg1273
g1274
sg1265
g1266
stRp2103
ag1
(g49
g50
(dp2104
g1259
g1357
sg1262
g1281
sg1270
I1
sg1273
g1274
sg1265
g1266
stRp2105
ag1
(g49
g50
(dp2106
g1259
g1309
sg1262
g1294
sg1270
I2
sg1273
g1274
sg1265
g1266
stRp2107
ag1
(g49
g50
(dp2108
g1259
g1321
sg1262
g1294
sg1270
I1
sg1273
g1274
sg1265
g1266
stRp2109
asg1004
Nsg1005
g1365
sg1007
I9
sg1008
I0
sg1009
I9
sg1010
I01
sbag1
(g44
g3
NtRp2110
(dp2111
g47
Nsg48
(lp2112
sg62
I88840560
sg11
g233
sg6
I-1
sg64
I1
sg27
I01
sg28
g29
sg65
g1
(g66
g50
(dp2113
g68
g69
(g70
g71
g72
S'b'
tRp2114
(I1
(I9
I1
tg74
I00
S'\x00\x00\x80?\x00\x00\x80?\x00\x00\x80?\x00\x00\x80?\x00\x00\x80?\x00\x00\x80?\x00\x00\x80?\x00\x00\x80?\x00\x00\x80?'
S'\x00\x00\x00\x00\x00\x00\x00\x00\x00'
Ntbsg19
g76
(g71
(I0
tS'b'
tRp2115
(I1
(I9
I1
tg78
I00
(lp2116
S'a'
aS'a'
aS'f'
aS'a'
aS'f'
aS'f'
aS'a'
aS'f'
aS'a'
atbsg227
g69
(g70
g71
g72
S'b'
tRp2117
(I1
(I9
I1
tg74
I00
S'\x00\x00\x00@\x00\x00\xc0@\x00\x00\x80?\x00\x00\x00\x00\x00\x00\xe0@\x00\x00\xa0@\x00\x00\x00A\x00\x00@@\x00\x00\x80@'
S'\x00\x00\x00\x00\x00\x00\x00\x00\x00'
Ntbsg20
g69
(g70
g71
g72
S'b'
tRp2118
(I1
(I9
I1
tg74
I00
S'\xc0wp>t\x90=>\xb4\t\x89>\xb5i\xef>\xabi<>:<=>\xd8\x13\x1b>\x05\xd2\x80>F\xd2^>'
S'\x00\x00\x00\x00\x00\x00\x00\x00\x00'
NtbstRp2119
(dp2120
g231
(dp2121
g68
I01
sg20
I01
sg227
I01
sg19
I00
ssg233
g2110
sg234
(lp2122
g68
ag227
ag19
ag20
asg236
(lp2123
I9
aI1
asbsg238
g2003
sg240
g76
(g71
(I0
tS'b'
tRp2124
(I1
(I9
I1
tg242
I01
S'\x03\x00\x00\x00\x02\x00\x00\x00\x00\x00\x00\x00\x07\x00\x00\x00\x08\x00\x00\x00\x05\x00\x00\x00\x01\x00\x00\x00\x04\x00\x00\x00\x06\x00\x00\x00'
tbsg243
I01
sg244
I1
sg245
I-1
sg246
(lp2125
g1
(g49
g50
(dp2126
g1377
g1418
sg1383
g1410
sg1390
I1
sg1394
g1395
sg1386
g1387
stRp2127
ag1
(g49
g50
(dp2128
g1377
g1467
sg1383
g1410
sg1390
I2
sg1394
g1395
sg1386
g1387
stRp2129
ag1
(g49
g50
(dp2130
g1377
g1405
sg1383
g1384
sg1390
I3
sg1394
g1395
sg1386
g1387
stRp2131
ag1
(g49
g50
(dp2132
g1377
g1378
sg1383
g1384
sg1390
I1
sg1394
g1395
sg1386
g1387
stRp2133
ag1
(g49
g50
(dp2134
g1377
g1479
sg1383
g1423
sg1390
I3
sg1394
g1395
sg1386
g1387
stRp2135
ag1
(g49
g50
(dp2136
g1377
g1455
sg1383
g1423
sg1390
I1
sg1394
g1395
sg1386
g1387
stRp2137
ag1
(g49
g50
(dp2138
g1377
g1491
sg1383
g1410
sg1390
I3
sg1394
g1395
sg1386
g1387
stRp2139
ag1
(g49
g50
(dp2140
g1377
g1431
sg1383
g1423
sg1390
I2
sg1394
g1395
sg1386
g1387
stRp2141
ag1
(g49
g50
(dp2142
g1377
g1443
sg1383
g1384
sg1390
I2
sg1394
g1395
sg1386
g1387
stRp2143
asg1004
Nsg1005
g1493
sg1007
I9
sg1008
I0
sg1009
I9
sg1010
I01
sbag1
(g44
g3
NtRp2144
(dp2145
g47
Nsg48
(lp2146
sg62
I88840560
sg11
g2043
sg6
I-1
sg64
I1
sg27
I01
sg28
g29
sg65
g1
(g66
g50
(dp2147
g68
g69
(g70
g71
g72
S'b'
tRp2148
(I1
(I9
I1
tg74
I00
S'\x00\x00\x80?\x00\x00\x80?\x00\x00\x80?\x00\x00\x80?\x00\x00\x80?\x00\x00\x80?\x00\x00\x80?\x00\x00\x80?\x00\x00\x80?'
S'\x00\x00\x00\x00\x00\x00\x00\x00\x00'
Ntbsg19
g76
(g71
(I0
tS'b'
tRp2149
(I1
(I9
I1
tg78
I00
(lp2150
S'a'
aS'a'
aS'f'
aS'a'
aS'f'
aS'a'
aS'a'
aS'f'
aS'f'
atbsg227
g69
(g70
g71
g72
S'b'
tRp2151
(I1
(I9
I1
tg74
I00
S'\x00\x00\xc0@\x00\x00\x80@\x00\x00\xe0@\x00\x00\x00\x00\x00\x00@@\x00\x00\x00@\x00\x00\x00A\x00\x00\x80?\x00\x00\xa0@'
S'\x00\x00\x00\x00\x00\x00\x00\x00\x00'
Ntbsg20
g69
(g70
g71
g72
S'b'
tRp2152
(I1
(I9
I1
tg74
I00
S'\x1b\x14T=f"O=\x85\xd4R=\x0f5\x9a>G\nT=Y\xc6\x8b=]\xe5R=\xe2g\xcf=\x8b\xf6\x8b='
S'\x00\x00\x00\x00\x00\x00\x00\x00\x00'
NtbstRp2153
(dp2154
g231
(dp2155
g68
I01
sg20
I01
sg227
I01
sg19
I00
ssg233
g2144
sg234
(lp2156
g68
ag227
ag19
ag20
asg236
(lp2157
I9
aI1
asbsg238
g2003
sg240
g76
(g71
(I0
tS'b'
tRp2158
(I1
(I9
I1
tg242
I01
S'\x03\x00\x00\x00\x07\x00\x00\x00\x05\x00\x00\x00\x04\x00\x00\x00\x01\x00\x00\x00\x08\x00\x00\x00\x00\x00\x00\x00\x02\x00\x00\x00\x06\x00\x00\x00'
tbsg243
I01
sg244
I1
sg245
I-1
sg246
(lp2159
g1
(g49
g50
(dp2160
g1496
g1579
sg1503
g1504
sg1510
I2
sg1512
g1513
sg1506
g1507
stRp2161
ag1
(g49
g50
(dp2162
g1496
g1555
sg1503
g1516
sg1510
I1
sg1512
g1513
sg1506
g1507
stRp2163
ag1
(g49
g50
(dp2164
g1496
g1591
sg1503
g1516
sg1510
I3
sg1512
g1513
sg1506
g1507
stRp2165
ag1
(g49
g50
(dp2166
g1496
g1497
sg1503
g1504
sg1510
I3
sg1512
g1513
sg1506
g1507
stRp2167
ag1
(g49
g50
(dp2168
g1496
g1543
sg1503
g1504
sg1510
I1
sg1512
g1513
sg1506
g1507
stRp2169
ag1
(g49
g50
(dp2170
g1496
g1531
sg1503
g1529
sg1510
I3
sg1512
g1513
sg1506
g1507
stRp2171
ag1
(g49
g50
(dp2172
g1496
g1603
sg1503
g1529
sg1510
I1
sg1512
g1513
sg1506
g1507
stRp2173
ag1
(g49
g50
(dp2174
g1496
g1518
sg1503
g1516
sg1510
I2
sg1512
g1513
sg1506
g1507
stRp2175
ag1
(g49
g50
(dp2176
g1496
g1567
sg1503
g1529
sg1510
I2
sg1512
g1513
sg1506
g1507
stRp2177
asg1004
Nsg1005
g1610
sg1007
I9
sg1008
I0
sg1009
I9
sg1010
I01
sbag1
(g44
g3
NtRp2178
(dp2179
g47
Nsg48
(lp2180
sg62
I88840560
sg11
g2078
sg6
I-1
sg64
I1
sg27
I01
sg28
g29
sg65
g1
(g66
g50
(dp2181
g68
g69
(g70
g71
g72
S'b'
tRp2182
(I1
(I9
I1
tg74
I00
S'\x00\x00\x80?\x00\x00\x80?\x00\x00\x80?\x00\x00\x80?\x00\x00\x80?\x00\x00\x80?\x00\x00\x80?\x00\x00\x80?\x00\x00\x80?'
S'\x00\x00\x00\x00\x00\x00\x00\x00\x00'
Ntbsg19
g76
(g71
(I0
tS'b'
tRp2183
(I1
(I9
I1
tg78
I00
(lp2184
S'a'
aS'a'
aS'f'
aS'a'
aS'f'
aS'a'
aS'f'
aS'a'
aS'f'
atbsg227
g69
(g70
g71
g72
S'b'
tRp2185
(I1
(I9
I1
tg74
I00
S'\x00\x00\x00\x00\x00\x00\x00@\x00\x00\x80?\x00\x00\x00A\x00\x00\xa0@\x00\x00\xc0@\x00\x00@@\x00\x00\x80@\x00\x00\xe0@'
S'\x00\x00\x00\x00\x00\x00\x00\x00\x00'
Ntbsg20
g69
(g70
g71
g72
S'b'
tRp2186
(I1
(I9
I1
tg74
I00
S'\xf8\xaa^>\xd8SR=\xd1>\x11=\x16\xcf\x0e=\xf0\x14V=7o\x8d<w\xb4\r=\x98\x88\x94<\xb8\xef\xac='
S'\x00\x00\x00\x00\x00\x00\x00\x00\x00'
NtbstRp2187
(dp2188
g231
(dp2189
g68
I01
sg20
I01
sg227
I01
sg19
I00
ssg233
g2178
sg234
(lp2190
g68
ag227
ag19
ag20
asg236
(lp2191
I9
aI1
asbsg238
g2003
sg240
g76
(g71
(I0
tS'b'
tRp2192
(I1
(I9
I1
tg242
I01
S'\x00\x00\x00\x00\x02\x00\x00\x00\x01\x00\x00\x00\x06\x00\x00\x00\x07\x00\x00\x00\x04\x00\x00\x00\x05\x00\x00\x00\x08\x00\x00\x00\x03\x00\x00\x00'
tbsg243
I01
sg244
I1
sg245
I-1
sg246
(lp2193
g1
(g49
g50
(dp2194
g1614
g1615
sg1617
g1618
sg1625
I1
sg1628
g1629
sg1620
g1621
stRp2195
ag1
(g49
g50
(dp2196
g1614
g1651
sg1617
g1648
sg1625
I3
sg1628
g1629
sg1620
g1621
stRp2197
ag1
(g49
g50
(dp2198
g1614
g1638
sg1617
g1618
sg1625
I3
sg1628
g1629
sg1620
g1621
stRp2199
ag1
(g49
g50
(dp2200
g1614
g1724
sg1617
g1648
sg1625
I2
sg1628
g1629
sg1620
g1621
stRp2201
ag1
(g49
g50
(dp2202
g1614
g1688
sg1617
g1673
sg1625
I3
sg1628
g1629
sg1620
g1621
stRp2203
ag1
(g49
g50
(dp2204
g1614
g1700
sg1617
g1618
sg1625
I2
sg1628
g1629
sg1620
g1621
stRp2205
ag1
(g49
g50
(dp2206
g1614
g1663
sg1617
g1648
sg1625
I1
sg1628
g1629
sg1620
g1621
stRp2207
ag1
(g49
g50
(dp2208
g1614
g1676
sg1617
g1673
sg1625
I2
sg1628
g1629
sg1620
g1621
stRp2209
ag1
(g49
g50
(dp2210
g1614
g1712
sg1617
g1673
sg1625
I1
sg1628
g1629
sg1620
g1621
stRp2211
asg1004
Nsg1005
g1720
sg1007
I9
sg1008
I0
sg1009
I9
sg1010
I01
sbag45
asS'savePickle'
p2212
I00
sb.